(dp0
Vtodays
p1
cnumpy.core.multiarray
scalar
p2
(cnumpy
dtype
p3
(S'i4'
p4
I0
I1
tp5
Rp6
(I3
S'<'
p7
NNNI-1
I-1
I0
tp8
bS'[\x07\x00\x00'
p9
tp10
Rp11
sVyellow
p12
g2
(g6
S')\x08\x00\x00'
p13
tp14
Rp15
sVstraws
p16
g2
(g6
S'\xee\x06\x00\x00'
p17
tp18
Rp19
sVconjure
p20
g2
(g6
S'\x99\x01\x00\x00'
p21
tp22
Rp23
sVlooking
p24
g2
(g6
S'M\x04\x00\x00'
p25
tp26
Rp27
sVeligible
p28
g2
(g6
S'_\x02\x00\x00'
p29
tp30
Rp31
sVpresents
p32
g2
(g6
S'\x8a\x05\x00\x00'
p33
tp34
Rp35
sVswap
p36
g2
(g6
S'\r\x07\x00\x00'
p37
tp38
Rp39
sVup3
p40
g2
(g6
S'\xaa\x07\x00\x00'
p41
tp42
Rp43
sVussernm
p44
g2
(g6
S'\xb9\x07\x00\x00'
p45
tp46
Rp47
sVrescue
p48
g2
(g6
S'\xf4\x05\x00\x00'
p49
tp50
Rp51
sVbattles
p52
g2
(g6
S'\xb0\x00\x00\x00'
p53
tp54
Rp55
sVinternet
p56
g2
(g6
S'\xbe\x03\x00\x00'
p57
tp58
Rp59
sVupdates
p60
g2
(g6
S'\xac\x07\x00\x00'
p61
tp62
Rp63
sVbringing
p64
g2
(g6
S'\xfa\x00\x00\x00'
p65
tp66
Rp67
sVlumia
p68
g2
(g6
S'^\x04\x00\x00'
p69
tp70
Rp71
sVskills
p72
g2
(g6
S'\x8f\x06\x00\x00'
p73
tp74
Rp75
sVwednesday
p76
g2
(g6
S'\xe5\x07\x00\x00'
p77
tp78
Rp79
sVups
p80
g2
(g6
S'\xaf\x07\x00\x00'
p81
tp82
Rp83
sVforce
p84
g2
(g6
S'\xd2\x02\x00\x00'
p85
tp86
Rp87
sVbacon
p88
g2
(g6
S'\x9e\x00\x00\x00'
p89
tp90
Rp91
sVsecond
p92
g2
(g6
S'L\x06\x00\x00'
p93
tp94
Rp95
sVhate
p96
g2
(g6
S'M\x03\x00\x00'
p97
tp98
Rp99
sVcooking
p100
g2
(g6
S'\xab\x01\x00\x00'
p101
tp102
Rp103
sVlights
p104
g2
(g6
S'1\x04\x00\x00'
p105
tp106
Rp107
sVnew
p108
g2
(g6
S'\xe7\x04\x00\x00'
p109
tp110
Rp111
sVtips
p112
g2
(g6
S'U\x07\x00\x00'
p113
tp114
Rp115
sVpioneering
p116
g2
(g6
S'Z\x05\x00\x00'
p117
tp118
Rp119
sVhero
p120
g2
(g6
S'a\x03\x00\x00'
p121
tp122
Rp123
sVmen
p124
g2
(g6
S'\x8e\x04\x00\x00'
p125
tp126
Rp127
sVmet
p128
g2
(g6
S'\x95\x04\x00\x00'
p129
tp130
Rp131
sVhulk
p132
g2
(g6
S'\x89\x03\x00\x00'
p133
tp134
Rp135
sVactive
p136
g2
(g6
S'H\x00\x00\x00'
p137
tp138
Rp139
sV100
p140
g2
(g6
S'\x03\x00\x00\x00'
p141
tp142
Rp143
sVcardboard
p144
g2
(g6
S'(\x01\x00\x00'
p145
tp146
Rp147
sVnopurcnec
p148
g2
(g6
S'\xf6\x04\x00\x00'
p149
tp150
Rp151
sVkids
p152
g2
(g6
S'\xf7\x03\x00\x00'
p153
tp154
Rp155
sVjams
p156
g2
(g6
S'\xd7\x03\x00\x00'
p157
tp158
Rp159
sVcredit
p160
g2
(g6
S'\xcb\x01\x00\x00'
p161
tp162
Rp163
sVgolden
p164
g2
(g6
S'\x1e\x03\x00\x00'
p165
tp166
Rp167
sVfantastic
p168
g2
(g6
S'\x9c\x02\x00\x00'
p169
tp170
Rp171
sVexplained
p172
g2
(g6
S'\x88\x02\x00\x00'
p173
tp174
Rp175
sVbrought
p176
g2
(g6
S'\xfd\x00\x00\x00'
p177
tp178
Rp179
sVjackets
p180
g2
(g6
S'\xd5\x03\x00\x00'
p181
tp182
Rp183
sVcounts
p184
g2
(g6
S'\xb9\x01\x00\x00'
p185
tp186
Rp187
sVcents
p188
g2
(g6
S'A\x01\x00\x00'
p189
tp190
Rp191
sVmusic
p192
g2
(g6
S'\xd4\x04\x00\x00'
p193
tp194
Rp195
sVsurvive
p196
g2
(g6
S'\x0b\x07\x00\x00'
p197
tp198
Rp199
sVtell
p200
g2
(g6
S'/\x07\x00\x00'
p201
tp202
Rp203
sVrelax
p204
g2
(g6
S'\xe9\x05\x00\x00'
p205
tp206
Rp207
sVbrings
p208
g2
(g6
S'\xfb\x00\x00\x00'
p209
tp210
Rp211
sVwars
p212
g2
(g6
S'\xd8\x07\x00\x00'
p213
tp214
Rp215
sV99
p216
g2
(g6
S'<\x00\x00\x00'
p217
tp218
Rp219
sVglass
p220
g2
(g6
S'\x11\x03\x00\x00'
p221
tp222
Rp223
sV90
p224
g2
(g6
S';\x00\x00\x00'
p225
tp226
Rp227
sVhold
p228
g2
(g6
S'p\x03\x00\x00'
p229
tp230
Rp231
sVroom
p232
g2
(g6
S'\x0f\x06\x00\x00'
p233
tp234
Rp235
sVmovies
p236
g2
(g6
S'\xce\x04\x00\x00'
p237
tp238
Rp239
sVwang
p240
g2
(g6
S'\xd4\x07\x00\x00'
p241
tp242
Rp243
sVorganized
p244
g2
(g6
S'\x19\x05\x00\x00'
p245
tp246
Rp247
sVvoil
p248
g2
(g6
S'\xc8\x07\x00\x00'
p249
tp250
Rp251
sVcaution
p252
g2
(g6
S':\x01\x00\x00'
p253
tp254
Rp255
sVwant
p256
g2
(g6
S'\xd5\x07\x00\x00'
p257
tp258
Rp259
sVsavers
p260
g2
(g6
S'-\x06\x00\x00'
p261
tp262
Rp263
sVtravel
p264
g2
(g6
S'u\x07\x00\x00'
p265
tp266
Rp267
sVfeature
p268
g2
(g6
S'\xa9\x02\x00\x00'
p269
tp270
Rp271
sVmachine
p272
g2
(g6
S'b\x04\x00\x00'
p273
tp274
Rp275
sVamazing
p276
g2
(g6
S'h\x00\x00\x00'
p277
tp278
Rp279
sVhop
p280
g2
(g6
S'z\x03\x00\x00'
p281
tp282
Rp283
sVanswer
p284
g2
(g6
S'v\x00\x00\x00'
p285
tp286
Rp287
sVwithyour
p288
g2
(g6
S'\x08\x08\x00\x00'
p289
tp290
Rp291
sVgaming
p292
g2
(g6
S'\xf8\x02\x00\x00'
p293
tp294
Rp295
sVbeauty
p296
g2
(g6
S'\xba\x00\x00\x00'
p297
tp298
Rp299
sVsippy
p300
g2
(g6
S'\x87\x06\x00\x00'
p301
tp302
Rp303
sVwrong
p304
g2
(g6
S'"\x08\x00\x00'
p305
tp306
Rp307
sVcuriosity
p308
g2
(g6
S'\xd4\x01\x00\x00'
p309
tp310
Rp311
sVpresident
p312
g2
(g6
S'\x8b\x05\x00\x00'
p313
tp314
Rp315
sVpurchase
p316
g2
(g6
S'\xac\x05\x00\x00'
p317
tp318
Rp319
sVwins
p320
g2
(g6
S'\xf9\x07\x00\x00'
p321
tp322
Rp323
sVheadquarters
p324
g2
(g6
S'T\x03\x00\x00'
p325
tp326
Rp327
sVgoodbye
p328
g2
(g6
S'"\x03\x00\x00'
p329
tp330
Rp331
sVathletes
p332
g2
(g6
S'\x92\x00\x00\x00'
p333
tp334
Rp335
sVwind
p336
g2
(g6
S'\xf4\x07\x00\x00'
p337
tp338
Rp339
sVwine
p340
g2
(g6
S'\xf6\x07\x00\x00'
p341
tp342
Rp343
sVfifa
p344
g2
(g6
S'\xb5\x02\x00\x00'
p345
tp346
Rp347
sVfeedback
p348
g2
(g6
S'\xae\x02\x00\x00'
p349
tp350
Rp351
sVdeck
p352
g2
(g6
S'\xfc\x01\x00\x00'
p353
tp354
Rp355
sVkickoff
p356
g2
(g6
S'\xf2\x03\x00\x00'
p357
tp358
Rp359
sVkeyboard
p360
g2
(g6
S'\xef\x03\x00\x00'
p361
tp362
Rp363
sVscoring
p364
g2
(g6
S'<\x06\x00\x00'
p365
tp366
Rp367
sVfit
p368
g2
(g6
S'\xc4\x02\x00\x00'
p369
tp370
Rp371
sVpersonal
p372
g2
(g6
S'G\x05\x00\x00'
p373
tp374
Rp375
sVbetter
p376
g2
(g6
S'\xbf\x00\x00\x00'
p377
tp378
Rp379
sVweeks
p380
g2
(g6
S'\xe8\x07\x00\x00'
p381
tp382
Rp383
sVeasier
p384
g2
(g6
S'O\x02\x00\x00'
p385
tp386
Rp387
sVgrand
p388
g2
(g6
S',\x03\x00\x00'
p389
tp390
Rp391
sVeffects
p392
g2
(g6
S'Z\x02\x00\x00'
p393
tp394
Rp395
sVsilver
p396
g2
(g6
S'\x81\x06\x00\x00'
p397
tp398
Rp399
sVlucy
p400
g2
(g6
S']\x04\x00\x00'
p401
tp402
Rp403
sVcustomizable
p404
g2
(g6
S'\xde\x01\x00\x00'
p405
tp406
Rp407
sVarrow
p408
g2
(g6
S'\x88\x00\x00\x00'
p409
tp410
Rp411
sVmeal
p412
g2
(g6
S'\x82\x04\x00\x00'
p413
tp414
Rp415
sVmean
p416
g2
(g6
S'\x83\x04\x00\x00'
p417
tp418
Rp419
sVseries
p420
g2
(g6
S'\\\x06\x00\x00'
p421
tp422
Rp423
sVskins
p424
g2
(g6
S'\x90\x06\x00\x00'
p425
tp426
Rp427
sVrt
p428
g2
(g6
S'\x19\x06\x00\x00'
p429
tp430
Rp431
sVtrending
p432
g2
(g6
S'\x7f\x07\x00\x00'
p433
tp434
Rp435
sVcontent
p436
g2
(g6
S'\xa1\x01\x00\x00'
p437
tp438
Rp439
sVsize
p440
g2
(g6
S'\x8b\x06\x00\x00'
p441
tp442
Rp443
sVturning
p444
g2
(g6
S'\x95\x07\x00\x00'
p445
tp446
Rp447
sVcutest
p448
g2
(g6
S'\xe3\x01\x00\x00'
p449
tp450
Rp451
sVfave
p452
g2
(g6
S'\xa3\x02\x00\x00'
p453
tp454
Rp455
sVpumpkins
p456
g2
(g6
S'\xa8\x05\x00\x00'
p457
tp458
Rp459
sVr2
p460
g2
(g6
S'\xc0\x05\x00\x00'
p461
tp462
Rp463
sVstarts
p464
g2
(g6
S'\xd8\x06\x00\x00'
p465
tp466
Rp467
sVmessages
p468
g2
(g6
S'\x93\x04\x00\x00'
p469
tp470
Rp471
sVviewing
p472
g2
(g6
S'\xc3\x07\x00\x00'
p473
tp474
Rp475
sVshipped
p476
g2
(g6
S't\x06\x00\x00'
p477
tp478
Rp479
sVspeedy
p480
g2
(g6
S'\xbd\x06\x00\x00'
p481
tp482
Rp483
sVisn
p484
g2
(g6
S'\xcd\x03\x00\x00'
p485
tp486
Rp487
sVswiping
p488
g2
(g6
S'\x13\x07\x00\x00'
p489
tp490
Rp491
sVnaughty
p492
g2
(g6
S'\xde\x04\x00\x00'
p493
tp494
Rp495
sVfeatures
p496
g2
(g6
S'\xab\x02\x00\x00'
p497
tp498
Rp499
sVprocreate
p500
g2
(g6
S'\x99\x05\x00\x00'
p501
tp502
Rp503
sVfeatured
p504
g2
(g6
S'\xaa\x02\x00\x00'
p505
tp506
Rp507
sVservice
p508
g2
(g6
S']\x06\x00\x00'
p509
tp510
Rp511
sVneeded
p512
g2
(g6
S'\xe4\x04\x00\x00'
p513
tp514
Rp515
sVmaster
p516
g2
(g6
S'z\x04\x00\x00'
p517
tp518
Rp519
sVlisten
p520
g2
(g6
S';\x04\x00\x00'
p521
tp522
Rp523
sVstocking
p524
g2
(g6
S'\xe4\x06\x00\x00'
p525
tp526
Rp527
sVbegins
p528
g2
(g6
S'\xbd\x00\x00\x00'
p529
tp530
Rp531
sVspoiler
p532
g2
(g6
S'\xc3\x06\x00\x00'
p533
tp534
Rp535
sVtrek
p536
g2
(g6
S'|\x07\x00\x00'
p537
tp538
Rp539
sVtree
p540
g2
(g6
S'{\x07\x00\x00'
p541
tp542
Rp543
sVproject
p544
g2
(g6
S'\x9f\x05\x00\x00'
p545
tp546
Rp547
sVmatter
p548
g2
(g6
S'~\x04\x00\x00'
p549
tp550
Rp551
sVsilly
p552
g2
(g6
S'\x80\x06\x00\x00'
p553
tp554
Rp555
sVfeeling
p556
g2
(g6
S'\xb1\x02\x00\x00'
p557
tp558
Rp559
sVmini
p560
g2
(g6
S'\xa5\x04\x00\x00'
p561
tp562
Rp563
sVexploring
p564
g2
(g6
S'\x8b\x02\x00\x00'
p565
tp566
Rp567
sVmodern
p568
g2
(g6
S'\xb8\x04\x00\x00'
p569
tp570
Rp571
sVmind
p572
g2
(g6
S'\xa3\x04\x00\x00'
p573
tp574
Rp575
sVseen
p576
g2
(g6
S'Q\x06\x00\x00'
p577
tp578
Rp579
sVmins
p580
g2
(g6
S'\xa8\x04\x00\x00'
p581
tp582
Rp583
sVhub
p584
g2
(g6
S'\x87\x03\x00\x00'
p585
tp586
Rp587
sVregular
p588
g2
(g6
S'\xe5\x05\x00\x00'
p589
tp590
Rp591
sVnopurchnec
p592
g2
(g6
S'\xf5\x04\x00\x00'
p593
tp594
Rp595
sVsinger
p596
g2
(g6
S'\x84\x06\x00\x00'
p597
tp598
Rp599
sVdon
p600
g2
(g6
S'2\x02\x00\x00'
p601
tp602
Rp603
sVdog
p604
g2
(g6
S'/\x02\x00\x00'
p605
tp606
Rp607
sVdefinitely
p608
g2
(g6
S'\xff\x01\x00\x00'
p609
tp610
Rp611
sVtech
p612
g2
(g6
S',\x07\x00\x00'
p613
tp614
Rp615
sVconsumer
p616
g2
(g6
S'\x9f\x01\x00\x00'
p617
tp618
Rp619
sVcame
p620
g2
(g6
S'\x1c\x01\x00\x00'
p621
tp622
Rp623
sVmarvel
p624
g2
(g6
S'y\x04\x00\x00'
p625
tp626
Rp627
sVlethal
p628
g2
(g6
S"'\x04\x00\x00"
p629
tp630
Rp631
sVbusy
p632
g2
(g6
S'\r\x01\x00\x00'
p633
tp634
Rp635
sVbust
p636
g2
(g6
S'\x0c\x01\x00\x00'
p637
tp638
Rp639
sVtheme
p640
g2
(g6
S'=\x07\x00\x00'
p641
tp642
Rp643
sVrick
p644
g2
(g6
S'\x00\x06\x00\x00'
p645
tp646
Rp647
sVfolks
p648
g2
(g6
S'\xcd\x02\x00\x00'
p649
tp650
Rp651
sVnex
p652
g2
(g6
S'\xea\x04\x00\x00'
p653
tp654
Rp655
sVcolorful
p656
g2
(g6
S'\x86\x01\x00\x00'
p657
tp658
Rp659
sVstop
p660
g2
(g6
S'\xe6\x06\x00\x00'
p661
tp662
Rp663
sVpocket
p664
g2
(g6
S'o\x05\x00\x00'
p665
tp666
Rp667
sVmention
p668
g2
(g6
S'\x8f\x04\x00\x00'
p669
tp670
Rp671
sV15
p672
g2
(g6
S'\t\x00\x00\x00'
p673
tp674
Rp675
sVdisco
p676
g2
(g6
S'!\x02\x00\x00'
p677
tp678
Rp679
sVbag
p680
g2
(g6
S'\xa0\x00\x00\x00'
p681
tp682
Rp683
sVbad
p684
g2
(g6
S'\x9f\x00\x00\x00'
p685
tp686
Rp687
sVrelease
p688
g2
(g6
S'\xea\x05\x00\x00'
p689
tp690
Rp691
sVrockstar
p692
g2
(g6
S'\x0c\x06\x00\x00'
p693
tp694
Rp695
sVbest
p696
g2
(g6
S'\xbe\x00\x00\x00'
p697
tp698
Rp699
sVbrazil
p700
g2
(g6
S'\xed\x00\x00\x00'
p701
tp702
Rp703
sVsaid
p704
g2
(g6
S'!\x06\x00\x00'
p705
tp706
Rp707
sVlots
p708
g2
(g6
S'T\x04\x00\x00'
p709
tp710
Rp711
sVdonalds
p712
g2
(g6
S'4\x02\x00\x00'
p713
tp714
Rp715
sVolympics
p716
g2
(g6
S'\t\x05\x00\x00'
p717
tp718
Rp719
sVpets
p720
g2
(g6
S'J\x05\x00\x00'
p721
tp722
Rp723
sVyogurt
p724
g2
(g6
S'-\x08\x00\x00'
p725
tp726
Rp727
sVsorts
p728
g2
(g6
S'\xb2\x06\x00\x00'
p729
tp730
Rp731
sVnature
p732
g2
(g6
S'\xdd\x04\x00\x00'
p733
tp734
Rp735
sVhundreds
p736
g2
(g6
S'\x8b\x03\x00\x00'
p737
tp738
Rp739
sVtablet
p740
g2
(g6
S'\x16\x07\x00\x00'
p741
tp742
Rp743
sVresistant
p744
g2
(g6
S'\xf7\x05\x00\x00'
p745
tp746
Rp747
sVcountry
p748
g2
(g6
S'\xb8\x01\x00\x00'
p749
tp750
Rp751
sVadventures
p752
g2
(g6
S'Y\x00\x00\x00'
p753
tp754
Rp755
sVlookin
p756
g2
(g6
S'L\x04\x00\x00'
p757
tp758
Rp759
sVargue
p760
g2
(g6
S'\x82\x00\x00\x00'
p761
tp762
Rp763
sVasked
p764
g2
(g6
S'\x8f\x00\x00\x00'
p765
tp766
Rp767
sVtmnt
p768
g2
(g6
S'X\x07\x00\x00'
p769
tp770
Rp771
sV2nd
p772
g2
(g6
S'\x1e\x00\x00\x00'
p773
tp774
Rp775
sVdorm
p776
g2
(g6
S'8\x02\x00\x00'
p777
tp778
Rp779
sVperiscope
p780
g2
(g6
S'E\x05\x00\x00'
p781
tp782
Rp783
sV250
p784
g2
(g6
S'\x17\x00\x00\x00'
p785
tp786
Rp787
sVsan
p788
g2
(g6
S'&\x06\x00\x00'
p789
tp790
Rp791
sVunion
p792
g2
(g6
S'\xa3\x07\x00\x00'
p793
tp794
Rp795
sVtiny
p796
g2
(g6
S'S\x07\x00\x00'
p797
tp798
Rp799
sVbasic
p800
g2
(g6
S'\xab\x00\x00\x00'
p801
tp802
Rp803
sVfry
p804
g2
(g6
S'\xea\x02\x00\x00'
p805
tp806
Rp807
sVwebsite
p808
g2
(g6
S'\xe4\x07\x00\x00'
p809
tp810
Rp811
sV25k
p812
g2
(g6
S'\x18\x00\x00\x00'
p813
tp814
Rp815
sVlife
p816
g2
(g6
S',\x04\x00\x00'
p817
tp818
Rp819
sVchionship
p820
g2
(g6
S'^\x01\x00\x00'
p821
tp822
Rp823
sVchild
p824
g2
(g6
S'[\x01\x00\x00'
p825
tp826
Rp827
sVspin
p828
g2
(g6
S'\xc1\x06\x00\x00'
p829
tp830
Rp831
sVugly
p832
g2
(g6
S'\x9d\x07\x00\x00'
p833
tp834
Rp835
sVnear
p836
g2
(g6
S'\xe0\x04\x00\x00'
p837
tp838
Rp839
sVfinder
p840
g2
(g6
S'\xbf\x02\x00\x00'
p841
tp842
Rp843
sVleaves
p844
g2
(g6
S'\x1d\x04\x00\x00'
p845
tp846
Rp847
sVseven
p848
g2
(g6
S'b\x06\x00\x00'
p849
tp850
Rp851
sVplayed
p852
g2
(g6
S'f\x05\x00\x00'
p853
tp854
Rp855
sVim
p856
g2
(g6
S'\x94\x03\x00\x00'
p857
tp858
Rp859
sVseattle
p860
g2
(g6
S'K\x06\x00\x00'
p861
tp862
Rp863
sVgrown
p864
g2
(g6
S'6\x03\x00\x00'
p865
tp866
Rp867
sVthings
p868
g2
(g6
S'D\x07\x00\x00'
p869
tp870
Rp871
sVmake
p872
g2
(g6
S'g\x04\x00\x00'
p873
tp874
Rp875
sVdebuted
p876
g2
(g6
S'\xf9\x01\x00\x00'
p877
tp878
Rp879
sV80s
p880
g2
(g6
S':\x00\x00\x00'
p881
tp882
Rp883
sVkik
p884
g2
(g6
S'\xf8\x03\x00\x00'
p885
tp886
Rp887
sVthoughts
p888
g2
(g6
S'J\x07\x00\x00'
p889
tp890
Rp891
sVkid
p892
g2
(g6
S'\xf5\x03\x00\x00'
p893
tp894
Rp895
sVyoure
p896
g2
(g6
S'0\x08\x00\x00'
p897
tp898
Rp899
sVburgers
p900
g2
(g6
S'\t\x01\x00\x00'
p901
tp902
Rp903
sVmaterials
p904
g2
(g6
S'|\x04\x00\x00'
p905
tp906
Rp907
sVleft
p908
g2
(g6
S' \x04\x00\x00'
p909
tp910
Rp911
sVjust
p912
g2
(g6
S'\xe9\x03\x00\x00'
p913
tp914
Rp915
sVhuman
p916
g2
(g6
S'\x8a\x03\x00\x00'
p917
tp918
Rp919
sVfacts
p920
g2
(g6
S'\x93\x02\x00\x00'
p921
tp922
Rp923
sVyes
p924
g2
(g6
S'*\x08\x00\x00'
p925
tp926
Rp927
sVenters
p928
g2
(g6
S'o\x02\x00\x00'
p929
tp930
Rp931
sVslices
p932
g2
(g6
S'\x97\x06\x00\x00'
p933
tp934
Rp935
sVcharacter
p936
g2
(g6
S'K\x01\x00\x00'
p937
tp938
Rp939
sVcollections
p940
g2
(g6
S'\x82\x01\x00\x00'
p941
tp942
Rp943
sVeasy
p944
g2
(g6
S'Q\x02\x00\x00'
p945
tp946
Rp947
sVhat
p948
g2
(g6
S'L\x03\x00\x00'
p949
tp950
Rp951
sVsurvival
p952
g2
(g6
S'\n\x07\x00\x00'
p953
tp954
Rp955
sVpossible
p956
g2
(g6
S'z\x05\x00\x00'
p957
tp958
Rp959
sVtmrw
p960
g2
(g6
S'Y\x07\x00\x00'
p961
tp962
Rp963
sVunique
p964
g2
(g6
S'\xa4\x07\x00\x00'
p965
tp966
Rp967
sVdreams
p968
g2
(g6
S'>\x02\x00\x00'
p969
tp970
Rp971
sVsteps
p972
g2
(g6
S'\xe0\x06\x00\x00'
p973
tp974
Rp975
sVprepping
p976
g2
(g6
S'\x87\x05\x00\x00'
p977
tp978
Rp979
sVright
p980
g2
(g6
S'\x03\x06\x00\x00'
p981
tp982
Rp983
sVold
p984
g2
(g6
S'\x07\x05\x00\x00'
p985
tp986
Rp987
sVdeal
p988
g2
(g6
S'\xf7\x01\x00\x00'
p989
tp990
Rp991
sVpeople
p992
g2
(g6
S'A\x05\x00\x00'
p993
tp994
Rp995
sVtopping
p996
g2
(g6
S'b\x07\x00\x00'
p997
tp998
Rp999
sVdead
p1000
g2
(g6
S'\xf6\x01\x00\x00'
p1001
tp1002
Rp1003
sVenemies
p1004
g2
(g6
S'i\x02\x00\x00'
p1005
tp1006
Rp1007
sVcreative
p1008
g2
(g6
S'\xc8\x01\x00\x00'
p1009
tp1010
Rp1011
sVtreadmill
p1012
g2
(g6
S'x\x07\x00\x00'
p1013
tp1014
Rp1015
sVbold
p1016
g2
(g6
S'\xda\x00\x00\x00'
p1017
tp1018
Rp1019
sVpopular
p1020
g2
(g6
S'w\x05\x00\x00'
p1021
tp1022
Rp1023
sVsuper
p1024
g2
(g6
S'\x03\x07\x00\x00'
p1025
tp1026
Rp1027
sVmeow
p1028
g2
(g6
S'\x90\x04\x00\x00'
p1029
tp1030
Rp1031
sVwords
p1032
g2
(g6
S'\x12\x08\x00\x00'
p1033
tp1034
Rp1035
sVafternoon
p1036
g2
(g6
S'[\x00\x00\x00'
p1037
tp1038
Rp1039
sVislands
p1040
g2
(g6
S'\xcc\x03\x00\x00'
p1041
tp1042
Rp1043
sVautomatically
p1044
g2
(g6
S'\x95\x00\x00\x00'
p1045
tp1046
Rp1047
sVwhats
p1048
g2
(g6
S'\xec\x07\x00\x00'
p1049
tp1050
Rp1051
sVselfie
p1052
g2
(g6
S'U\x06\x00\x00'
p1053
tp1054
Rp1055
sVthankful
p1056
g2
(g6
S'9\x07\x00\x00'
p1057
tp1058
Rp1059
sVwhatd
p1060
g2
(g6
S'\xeb\x07\x00\x00'
p1061
tp1062
Rp1063
sVcarving
p1064
g2
(g6
S'.\x01\x00\x00'
p1065
tp1066
Rp1067
sVwrap
p1068
g2
(g6
S'\x1e\x08\x00\x00'
p1069
tp1070
Rp1071
sVsoon
p1072
g2
(g6
S'\xaf\x06\x00\x00'
p1073
tp1074
Rp1075
sVsupport
p1076
g2
(g6
S'\x06\x07\x00\x00'
p1077
tp1078
Rp1079
sVtennis
p1080
g2
(g6
S'1\x07\x00\x00'
p1081
tp1082
Rp1083
sVpages
p1084
g2
(g6
S'$\x05\x00\x00'
p1085
tp1086
Rp1087
sVeditor
p1088
g2
(g6
S'W\x02\x00\x00'
p1089
tp1090
Rp1091
sVicon
p1092
g2
(g6
S'\x90\x03\x00\x00'
p1093
tp1094
Rp1095
sVhappy
p1096
g2
(g6
S'I\x03\x00\x00'
p1097
tp1098
Rp1099
sVoffer
p1100
g2
(g6
S'\x00\x05\x00\x00'
p1101
tp1102
Rp1103
sVcongratulations
p1104
g2
(g6
S'\x98\x01\x00\x00'
p1105
tp1106
Rp1107
sVstreaming
p1108
g2
(g6
S'\xf0\x06\x00\x00'
p1109
tp1110
Rp1111
sVinside
p1112
g2
(g6
S'\xad\x03\x00\x00'
p1113
tp1114
Rp1115
sVdevices
p1116
g2
(g6
S'\x14\x02\x00\x00'
p1117
tp1118
Rp1119
sVwhiskey
p1120
g2
(g6
S'\xef\x07\x00\x00'
p1121
tp1122
Rp1123
sVsapphire
p1124
g2
(g6
S'*\x06\x00\x00'
p1125
tp1126
Rp1127
sVproud
p1128
g2
(g6
S'\xa2\x05\x00\x00'
p1129
tp1130
Rp1131
sVclassic
p1132
g2
(g6
S'l\x01\x00\x00'
p1133
tp1134
Rp1135
sVdrive
p1136
g2
(g6
S'D\x02\x00\x00'
p1137
tp1138
Rp1139
sVship
p1140
g2
(g6
S's\x06\x00\x00'
p1141
tp1142
Rp1143
sVdigital
p1144
g2
(g6
S'\x1b\x02\x00\x00'
p1145
tp1146
Rp1147
sVroll
p1148
g2
(g6
S'\r\x06\x00\x00'
p1149
tp1150
Rp1151
sVdiet
p1152
g2
(g6
S'\x17\x02\x00\x00'
p1153
tp1154
Rp1155
sVjourney
p1156
g2
(g6
S'\xe3\x03\x00\x00'
p1157
tp1158
Rp1159
sVrolling
p1160
g2
(g6
S'\x0e\x06\x00\x00'
p1161
tp1162
Rp1163
sVweekend
p1164
g2
(g6
S'\xe7\x07\x00\x00'
p1165
tp1166
Rp1167
sVbillion
p1168
g2
(g6
S'\xc7\x00\x00\x00'
p1169
tp1170
Rp1171
sVhappening
p1172
g2
(g6
S'G\x03\x00\x00'
p1173
tp1174
Rp1175
sVlot
p1176
g2
(g6
S'S\x04\x00\x00'
p1177
tp1178
Rp1179
sVdaily
p1180
g2
(g6
S'\xe8\x01\x00\x00'
p1181
tp1182
Rp1183
sVtime
p1184
g2
(g6
S'P\x07\x00\x00'
p1185
tp1186
Rp1187
sVpush
p1188
g2
(g6
S'\xb1\x05\x00\x00'
p1189
tp1190
Rp1191
sVfurry
p1192
g2
(g6
S'\xee\x02\x00\x00'
p1193
tp1194
Rp1195
sVthemed
p1196
g2
(g6
S'>\x07\x00\x00'
p1197
tp1198
Rp1199
sVskip
p1200
g2
(g6
S'\x91\x06\x00\x00'
p1201
tp1202
Rp1203
sVthemes
p1204
g2
(g6
S'?\x07\x00\x00'
p1205
tp1206
Rp1207
sVmanager
p1208
g2
(g6
S'o\x04\x00\x00'
p1209
tp1210
Rp1211
sVmilk
p1212
g2
(g6
S'\x9f\x04\x00\x00'
p1213
tp1214
Rp1215
sVyummy
p1216
g2
(g6
S'3\x08\x00\x00'
p1217
tp1218
Rp1219
sVeditors
p1220
g2
(g6
S'X\x02\x00\x00'
p1221
tp1222
Rp1223
sVcountdown
p1224
g2
(g6
S'\xb7\x01\x00\x00'
p1225
tp1226
Rp1227
sVfinally
p1228
g2
(g6
S'\xbe\x02\x00\x00'
p1229
tp1230
Rp1231
sVsmartphone
p1232
g2
(g6
S'\x9b\x06\x00\x00'
p1233
tp1234
Rp1235
sVtacos
p1236
g2
(g6
S'\x18\x07\x00\x00'
p1237
tp1238
Rp1239
sVword
p1240
g2
(g6
S'\x11\x08\x00\x00'
p1241
tp1242
Rp1243
sVminute
p1244
g2
(g6
S'\xa9\x04\x00\x00'
p1245
tp1246
Rp1247
sVdid
p1248
g2
(g6
S'\x15\x02\x00\x00'
p1249
tp1250
Rp1251
sVdig
p1252
g2
(g6
S'\x1a\x02\x00\x00'
p1253
tp1254
Rp1255
sVtumi
p1256
g2
(g6
S'\x8c\x07\x00\x00'
p1257
tp1258
Rp1259
sVleave
p1260
g2
(g6
S'\x1c\x04\x00\x00'
p1261
tp1262
Rp1263
sVitem
p1264
g2
(g6
S'\xcf\x03\x00\x00'
p1265
tp1266
Rp1267
sVdiy
p1268
g2
(g6
S'(\x02\x00\x00'
p1269
tp1270
Rp1271
sVteam
p1272
g2
(g6
S'*\x07\x00\x00'
p1273
tp1274
Rp1275
sVdroid
p1276
g2
(g6
S'E\x02\x00\x00'
p1277
tp1278
Rp1279
sVrun
p1280
g2
(g6
S'\x1c\x06\x00\x00'
p1281
tp1282
Rp1283
sVheres
p1284
g2
(g6
S'`\x03\x00\x00'
p1285
tp1286
Rp1287
sVcurrent
p1288
g2
(g6
S'\xd6\x01\x00\x00'
p1289
tp1290
Rp1291
sVinternational
p1292
g2
(g6
S'\xbd\x03\x00\x00'
p1293
tp1294
Rp1295
sVfilled
p1296
g2
(g6
S'\xb9\x02\x00\x00'
p1297
tp1298
Rp1299
sVmr
p1300
g2
(g6
S'\xd0\x04\x00\x00'
p1301
tp1302
Rp1303
sVupgrade
p1304
g2
(g6
S'\xad\x07\x00\x00'
p1305
tp1306
Rp1307
sVaddress
p1308
g2
(g6
S'P\x00\x00\x00'
p1309
tp1310
Rp1311
sVwait
p1312
g2
(g6
S'\xcd\x07\x00\x00'
p1313
tp1314
Rp1315
sVbox
p1316
g2
(g6
S'\xe8\x00\x00\x00'
p1317
tp1318
Rp1319
sVwomen
p1320
g2
(g6
S'\n\x08\x00\x00'
p1321
tp1322
Rp1323
sV20mm
p1324
g2
(g6
S'\x12\x00\x00\x00'
p1325
tp1326
Rp1327
sVsuggestion
p1328
g2
(g6
S'\xfe\x06\x00\x00'
p1329
tp1330
Rp1331
sVbob
p1332
g2
(g6
S'\xd8\x00\x00\x00'
p1333
tp1334
Rp1335
sVlove
p1336
g2
(g6
S'U\x04\x00\x00'
p1337
tp1338
Rp1339
sVred
p1340
g2
(g6
S'\xdd\x05\x00\x00'
p1341
tp1342
Rp1343
sVworking
p1344
g2
(g6
S'\x14\x08\x00\x00'
p1345
tp1346
Rp1347
sVangry
p1348
g2
(g6
S'p\x00\x00\x00'
p1349
tp1350
Rp1351
sVvisit
p1352
g2
(g6
S'\xc5\x07\x00\x00'
p1353
tp1354
Rp1355
sVwondering
p1356
g2
(g6
S'\x0e\x08\x00\x00'
p1357
tp1358
Rp1359
sVloving
p1360
g2
(g6
S'Y\x04\x00\x00'
p1361
tp1362
Rp1363
sVintroducing
p1364
g2
(g6
S'\xc0\x03\x00\x00'
p1365
tp1366
Rp1367
sVsharing
p1368
g2
(g6
S'h\x06\x00\x00'
p1369
tp1370
Rp1371
sVibooks
p1372
g2
(g6
S'\x8e\x03\x00\x00'
p1373
tp1374
Rp1375
sVscratcher
p1376
g2
(g6
S'>\x06\x00\x00'
p1377
tp1378
Rp1379
sVfly
p1380
g2
(g6
S'\xcb\x02\x00\x00'
p1381
tp1382
Rp1383
sVmaking
p1384
g2
(g6
S'k\x04\x00\x00'
p1385
tp1386
Rp1387
sVarrive
p1388
g2
(g6
S'\x85\x00\x00\x00'
p1389
tp1390
Rp1391
sVawesome
p1392
g2
(g6
S'\x9b\x00\x00\x00'
p1393
tp1394
Rp1395
sVdeserves
p1396
g2
(g6
S'\x08\x02\x00\x00'
p1397
tp1398
Rp1399
sVsunday
p1400
g2
(g6
S'\x01\x07\x00\x00'
p1401
tp1402
Rp1403
sVpure
p1404
g2
(g6
S'\xae\x05\x00\x00'
p1405
tp1406
Rp1407
sVelephant
p1408
g2
(g6
S'^\x02\x00\x00'
p1409
tp1410
Rp1411
sVnyc
p1412
g2
(g6
S'\xfc\x04\x00\x00'
p1413
tp1414
Rp1415
sVmap
p1416
g2
(g6
S'r\x04\x00\x00'
p1417
tp1418
Rp1419
sVdesigner
p1420
g2
(g6
S'\x0b\x02\x00\x00'
p1421
tp1422
Rp1423
sVspot
p1424
g2
(g6
S'\xc8\x06\x00\x00'
p1425
tp1426
Rp1427
sVlatte
p1428
g2
(g6
S'\x0f\x04\x00\x00'
p1429
tp1430
Rp1431
sVdesigned
p1432
g2
(g6
S'\n\x02\x00\x00'
p1433
tp1434
Rp1435
sVman
p1436
g2
(g6
S'l\x04\x00\x00'
p1437
tp1438
Rp1439
sVjohnson
p1440
g2
(g6
S'\xde\x03\x00\x00'
p1441
tp1442
Rp1443
sVmaybe
p1444
g2
(g6
S'\x80\x04\x00\x00'
p1445
tp1446
Rp1447
sVswitch
p1448
g2
(g6
S'\x14\x07\x00\x00'
p1449
tp1450
Rp1451
sVchallenge
p1452
g2
(g6
S'E\x01\x00\x00'
p1453
tp1454
Rp1455
sVtalk
p1456
g2
(g6
S'\x1f\x07\x00\x00'
p1457
tp1458
Rp1459
sVcute
p1460
g2
(g6
S'\xe1\x01\x00\x00'
p1461
tp1462
Rp1463
sVshoes
p1464
g2
(g6
S'w\x06\x00\x00'
p1465
tp1466
Rp1467
sVwishing
p1468
g2
(g6
S'\xfe\x07\x00\x00'
p1469
tp1470
Rp1471
sVyears
p1472
g2
(g6
S'(\x08\x00\x00'
p1473
tp1474
Rp1475
sVepisodes
p1476
g2
(g6
S'u\x02\x00\x00'
p1477
tp1478
Rp1479
sVshake
p1480
g2
(g6
S'd\x06\x00\x00'
p1481
tp1482
Rp1483
sVgroup
p1484
g2
(g6
S'5\x03\x00\x00'
p1485
tp1486
Rp1487
sVthank
p1488
g2
(g6
S'8\x07\x00\x00'
p1489
tp1490
Rp1491
sVsmoothie
p1492
g2
(g6
S'\xa0\x06\x00\x00'
p1493
tp1494
Rp1495
sVinteresting
p1496
g2
(g6
S'\xbc\x03\x00\x00'
p1497
tp1498
Rp1499
sVjim
p1500
g2
(g6
S'\xdd\x03\x00\x00'
p1501
tp1502
Rp1503
sVhot
p1504
g2
(g6
S'\x7f\x03\x00\x00'
p1505
tp1506
Rp1507
sVmail
p1508
g2
(g6
S'e\x04\x00\x00'
p1509
tp1510
Rp1511
sVinstantly
p1512
g2
(g6
S'\xb6\x03\x00\x00'
p1513
tp1514
Rp1515
sVsmarter
p1516
g2
(g6
S'\x9a\x06\x00\x00'
p1517
tp1518
Rp1519
sVkiller
p1520
g2
(g6
S'\xf9\x03\x00\x00'
p1521
tp1522
Rp1523
sVshatter
p1524
g2
(g6
S'j\x06\x00\x00'
p1525
tp1526
Rp1527
sVsooner
p1528
g2
(g6
S'\xb0\x06\x00\x00'
p1529
tp1530
Rp1531
sVfeelin
p1532
g2
(g6
S'\xb0\x02\x00\x00'
p1533
tp1534
Rp1535
sVlunch
p1536
g2
(g6
S'_\x04\x00\x00'
p1537
tp1538
Rp1539
sVshhh
p1540
g2
(g6
S'p\x06\x00\x00'
p1541
tp1542
Rp1543
sVrock
p1544
g2
(g6
S'\t\x06\x00\x00'
p1545
tp1546
Rp1547
sVvogue
p1548
g2
(g6
S'\xc6\x07\x00\x00'
p1549
tp1550
Rp1551
sVunlock
p1552
g2
(g6
S'\xa7\x07\x00\x00'
p1553
tp1554
Rp1555
sVsponsor
p1556
g2
(g6
S'\xc4\x06\x00\x00'
p1557
tp1558
Rp1559
sVfingertips
p1560
g2
(g6
S'\xc2\x02\x00\x00'
p1561
tp1562
Rp1563
sVgirl
p1564
g2
(g6
S'\r\x03\x00\x00'
p1565
tp1566
Rp1567
sVdisasters
p1568
g2
(g6
S' \x02\x00\x00'
p1569
tp1570
Rp1571
sVrelive
p1572
g2
(g6
S'\xec\x05\x00\x00'
p1573
tp1574
Rp1575
sVcanada
p1576
g2
(g6
S' \x01\x00\x00'
p1577
tp1578
Rp1579
sVliving
p1580
g2
(g6
S'C\x04\x00\x00'
p1581
tp1582
Rp1583
sVcanvas
p1584
g2
(g6
S'#\x01\x00\x00'
p1585
tp1586
Rp1587
sVcontainer
p1588
g2
(g6
S'\xa0\x01\x00\x00'
p1589
tp1590
Rp1591
sVgamers
p1592
g2
(g6
S'\xf6\x02\x00\x00'
p1593
tp1594
Rp1595
sVformula
p1596
g2
(g6
S'\xda\x02\x00\x00'
p1597
tp1598
Rp1599
sVddiydon
p1600
g2
(g6
S'\xf5\x01\x00\x00'
p1601
tp1602
Rp1603
sVmillion
p1604
g2
(g6
S'\xa0\x04\x00\x00'
p1605
tp1606
Rp1607
sVquite
p1608
g2
(g6
S'\xbe\x05\x00\x00'
p1609
tp1610
Rp1611
sVlanguage
p1612
g2
(g6
S'\x08\x04\x00\x00'
p1613
tp1614
Rp1615
sVheadphones
p1616
g2
(g6
S'S\x03\x00\x00'
p1617
tp1618
Rp1619
sVthing
p1620
g2
(g6
S'C\x07\x00\x00'
p1621
tp1622
Rp1623
sVrouter
p1624
g2
(g6
S'\x14\x06\x00\x00'
p1625
tp1626
Rp1627
sVstar
p1628
g2
(g6
S'\xd2\x06\x00\x00'
p1629
tp1630
Rp1631
sVthink
p1632
g2
(g6
S'E\x07\x00\x00'
p1633
tp1634
Rp1635
sVcheese
p1636
g2
(g6
S'W\x01\x00\x00'
p1637
tp1638
Rp1639
sVsaving
p1640
g2
(g6
S'.\x06\x00\x00'
p1641
tp1642
Rp1643
sVitthe
p1644
g2
(g6
S'\xd1\x03\x00\x00'
p1645
tp1646
Rp1647
sVlong
p1648
g2
(g6
S'I\x04\x00\x00'
p1649
tp1650
Rp1651
sVlau
p1652
g2
(g6
S'\x10\x04\x00\x00'
p1653
tp1654
Rp1655
sVvote
p1656
g2
(g6
S'\xc9\x07\x00\x00'
p1657
tp1658
Rp1659
sVsounds
p1660
g2
(g6
S'\xb4\x06\x00\x00'
p1661
tp1662
Rp1663
sVopen
p1664
g2
(g6
S'\x10\x05\x00\x00'
p1665
tp1666
Rp1667
sVcheesy
p1668
g2
(g6
S'X\x01\x00\x00'
p1669
tp1670
Rp1671
sVcity
p1672
g2
(g6
S'j\x01\x00\x00'
p1673
tp1674
Rp1675
sVlittle
p1676
g2
(g6
S'>\x04\x00\x00'
p1677
tp1678
Rp1679
sVbite
p1680
g2
(g6
S'\xce\x00\x00\x00'
p1681
tp1682
Rp1683
sVeyes
p1684
g2
(g6
S'\x90\x02\x00\x00'
p1685
tp1686
Rp1687
sVbroadcast
p1688
g2
(g6
S'\xfc\x00\x00\x00'
p1689
tp1690
Rp1691
sVbutt
p1692
g2
(g6
S'\x0e\x01\x00\x00'
p1693
tp1694
Rp1695
sVwithanki
p1696
g2
(g6
S'\x01\x08\x00\x00'
p1697
tp1698
Rp1699
sVinventor
p1700
g2
(g6
S'\xc1\x03\x00\x00'
p1701
tp1702
Rp1703
sV11
p1704
g2
(g6
S'\x05\x00\x00\x00'
p1705
tp1706
Rp1707
sV10
p1708
g2
(g6
S'\x02\x00\x00\x00'
p1709
tp1710
Rp1711
sV13
p1712
g2
(g6
S'\x08\x00\x00\x00'
p1713
tp1714
Rp1715
sV12
p1716
g2
(g6
S'\x06\x00\x00\x00'
p1717
tp1718
Rp1719
sVtalkies
p1720
g2
(g6
S'!\x07\x00\x00'
p1721
tp1722
Rp1723
sV16
p1724
g2
(g6
S'\n\x00\x00\x00'
p1725
tp1726
Rp1727
sVgotta
p1728
g2
(g6
S'(\x03\x00\x00'
p1729
tp1730
Rp1731
sVcoats
p1732
g2
(g6
S'{\x01\x00\x00'
p1733
tp1734
Rp1735
sVfuture
p1736
g2
(g6
S'\xef\x02\x00\x00'
p1737
tp1738
Rp1739
sVcollege
p1740
g2
(g6
S'\x83\x01\x00\x00'
p1741
tp1742
Rp1743
sVtasted
p1744
g2
(g6
S'%\x07\x00\x00'
p1745
tp1746
Rp1747
sVsam
p1748
g2
(g6
S'#\x06\x00\x00'
p1749
tp1750
Rp1751
sVturned
p1752
g2
(g6
S'\x94\x07\x00\x00'
p1753
tp1754
Rp1755
sVdash
p1756
g2
(g6
S'\xef\x01\x00\x00'
p1757
tp1758
Rp1759
sVsay
p1760
g2
(g6
S'1\x06\x00\x00'
p1761
tp1762
Rp1763
sVsaw
p1764
g2
(g6
S'0\x06\x00\x00'
p1765
tp1766
Rp1767
sVspeakers
p1768
g2
(g6
S'\xba\x06\x00\x00'
p1769
tp1770
Rp1771
sVanswering
p1772
g2
(g6
S'w\x00\x00\x00'
p1773
tp1774
Rp1775
sVnote
p1776
g2
(g6
S'\xf8\x04\x00\x00'
p1777
tp1778
Rp1779
sVpotential
p1780
g2
(g6
S'~\x05\x00\x00'
p1781
tp1782
Rp1783
sVperformance
p1784
g2
(g6
S'D\x05\x00\x00'
p1785
tp1786
Rp1787
sVprinter
p1788
g2
(g6
S'\x92\x05\x00\x00'
p1789
tp1790
Rp1791
sVtrack
p1792
g2
(g6
S'h\x07\x00\x00'
p1793
tp1794
Rp1795
sVtr3000i
p1796
g2
(g6
S'g\x07\x00\x00'
p1797
tp1798
Rp1799
sVpair
p1800
g2
(g6
S'&\x05\x00\x00'
p1801
tp1802
Rp1803
sVsale
p1804
g2
(g6
S'"\x06\x00\x00'
p1805
tp1806
Rp1807
sVways
p1808
g2
(g6
S'\xdf\x07\x00\x00'
p1809
tp1810
Rp1811
sVstockings
p1812
g2
(g6
S'\xe5\x06\x00\x00'
p1813
tp1814
Rp1815
sVshop
p1816
g2
(g6
S'y\x06\x00\x00'
p1817
tp1818
Rp1819
sVwalking
p1820
g2
(g6
S'\xd2\x07\x00\x00'
p1821
tp1822
Rp1823
sVshot
p1824
g2
(g6
S'|\x06\x00\x00'
p1825
tp1826
Rp1827
sVbright
p1828
g2
(g6
S'\xf6\x00\x00\x00'
p1829
tp1830
Rp1831
sVcorner
p1832
g2
(g6
S'\xb2\x01\x00\x00'
p1833
tp1834
Rp1835
sVgourd
p1836
g2
(g6
S')\x03\x00\x00'
p1837
tp1838
Rp1839
sVnadella
p1840
g2
(g6
S'\xd5\x04\x00\x00'
p1841
tp1842
Rp1843
sVgoing
p1844
g2
(g6
S'\x1c\x03\x00\x00'
p1845
tp1846
Rp1847
sVblack
p1848
g2
(g6
S'\xcf\x00\x00\x00'
p1849
tp1850
Rp1851
sVequipped
p1852
g2
(g6
S'v\x02\x00\x00'
p1853
tp1854
Rp1855
sVbeatles
p1856
g2
(g6
S'\xb7\x00\x00\x00'
p1857
tp1858
Rp1859
sVux
p1860
g2
(g6
S'\xbb\x07\x00\x00'
p1861
tp1862
Rp1863
sVprime
p1864
g2
(g6
S'\x90\x05\x00\x00'
p1865
tp1866
Rp1867
sVskull
p1868
g2
(g6
S'\x92\x06\x00\x00'
p1869
tp1870
Rp1871
sVsettings
p1872
g2
(g6
S'a\x06\x00\x00'
p1873
tp1874
Rp1875
sVosmo
p1876
g2
(g6
S'\x1c\x05\x00\x00'
p1877
tp1878
Rp1879
sVmorning
p1880
g2
(g6
S'\xc5\x04\x00\x00'
p1881
tp1882
Rp1883
sVfinishing
p1884
g2
(g6
S'\xc3\x02\x00\x00'
p1885
tp1886
Rp1887
sVseat
p1888
g2
(g6
S'I\x06\x00\x00'
p1889
tp1890
Rp1891
sVivories
p1892
g2
(g6
S'\xd2\x03\x00\x00'
p1893
tp1894
Rp1895
sVcalendar
p1896
g2
(g6
S'\x16\x01\x00\x00'
p1897
tp1898
Rp1899
sVwonder
p1900
g2
(g6
S'\r\x08\x00\x00'
p1901
tp1902
Rp1903
sVcaturday
p1904
g2
(g6
S'7\x01\x00\x00'
p1905
tp1906
Rp1907
sVreading
p1908
g2
(g6
S'\xcf\x05\x00\x00'
p1909
tp1910
Rp1911
sVaugust
p1912
g2
(g6
S'\x94\x00\x00\x00'
p1913
tp1914
Rp1915
sVscreen
p1916
g2
(g6
S'?\x06\x00\x00'
p1917
tp1918
Rp1919
sVjr
p1920
g2
(g6
S'\xe5\x03\x00\x00'
p1921
tp1922
Rp1923
sVcoupons
p1924
g2
(g6
S'\xbd\x01\x00\x00'
p1925
tp1926
Rp1927
sVaccording
p1928
g2
(g6
S'B\x00\x00\x00'
p1929
tp1930
Rp1931
sVadults
p1932
g2
(g6
S'U\x00\x00\x00'
p1933
tp1934
Rp1935
sVteddy
p1936
g2
(g6
S'.\x07\x00\x00'
p1937
tp1938
Rp1939
sVmark
p1940
g2
(g6
S'u\x04\x00\x00'
p1941
tp1942
Rp1943
sVdefined
p1944
g2
(g6
S'\xfe\x01\x00\x00'
p1945
tp1946
Rp1947
sVmars
p1948
g2
(g6
S'w\x04\x00\x00'
p1949
tp1950
Rp1951
sVenable
p1952
g2
(g6
S'd\x02\x00\x00'
p1953
tp1954
Rp1955
sVshopping
p1956
g2
(g6
S'z\x06\x00\x00'
p1957
tp1958
Rp1959
sVreadings
p1960
g2
(g6
S'\xd0\x05\x00\x00'
p1961
tp1962
Rp1963
sVlaptops
p1964
g2
(g6
S'\x0b\x04\x00\x00'
p1965
tp1966
Rp1967
sVphotos
p1968
g2
(g6
S'P\x05\x00\x00'
p1969
tp1970
Rp1971
sVdramatic
p1972
g2
(g6
S'<\x02\x00\x00'
p1973
tp1974
Rp1975
sVwake
p1976
g2
(g6
S'\xcf\x07\x00\x00'
p1977
tp1978
Rp1979
sVhidden
p1980
g2
(g6
S'h\x03\x00\x00'
p1981
tp1982
Rp1983
sVsound
p1984
g2
(g6
S'\xb3\x06\x00\x00'
p1985
tp1986
Rp1987
sVturbopower
p1988
g2
(g6
S'\x91\x07\x00\x00'
p1989
tp1990
Rp1991
sVcoffee
p1992
g2
(g6
S'~\x01\x00\x00'
p1993
tp1994
Rp1995
sVmiddle
p1996
g2
(g6
S'\x9c\x04\x00\x00'
p1997
tp1998
Rp1999
sVtechnology
p2000
g2
(g6
S'-\x07\x00\x00'
p2001
tp2002
Rp2003
sVeveryday
p2004
g2
(g6
S'|\x02\x00\x00'
p2005
tp2006
Rp2007
sVbags
p2008
g2
(g6
S'\xa1\x00\x00\x00'
p2009
tp2010
Rp2011
sVdifferent
p2012
g2
(g6
S'\x19\x02\x00\x00'
p2013
tp2014
Rp2015
sVdoctor
p2016
g2
(g6
S'+\x02\x00\x00'
p2017
tp2018
Rp2019
sVpay
p2020
g2
(g6
S'8\x05\x00\x00'
p2021
tp2022
Rp2023
sVemojis
p2024
g2
(g6
S'c\x02\x00\x00'
p2025
tp2026
Rp2027
sVworkout
p2028
g2
(g6
S'\x15\x08\x00\x00'
p2029
tp2030
Rp2031
sVextended
p2032
g2
(g6
S'\x8e\x02\x00\x00'
p2033
tp2034
Rp2035
sVrunning
p2036
g2
(g6
S'\x1d\x06\x00\x00'
p2037
tp2038
Rp2039
sVtotally
p2040
g2
(g6
S'c\x07\x00\x00'
p2041
tp2042
Rp2043
sVawesomeness
p2044
g2
(g6
S'\x9c\x00\x00\x00'
p2045
tp2046
Rp2047
sVtrains
p2048
g2
(g6
S'n\x07\x00\x00'
p2049
tp2050
Rp2051
sVsummer
p2052
g2
(g6
S'\xff\x06\x00\x00'
p2053
tp2054
Rp2055
sVmoney
p2056
g2
(g6
S'\xbd\x04\x00\x00'
p2057
tp2058
Rp2059
sVguys
p2060
g2
(g6
S'>\x03\x00\x00'
p2061
tp2062
Rp2063
sVpups
p2064
g2
(g6
S'\xab\x05\x00\x00'
p2065
tp2066
Rp2067
sVpot
p2068
g2
(g6
S'}\x05\x00\x00'
p2069
tp2070
Rp2071
sVdark
p2072
g2
(g6
S'\xee\x01\x00\x00'
p2073
tp2074
Rp2075
sVtraffic
p2076
g2
(g6
S'k\x07\x00\x00'
p2077
tp2078
Rp2079
sVvacuum
p2080
g2
(g6
S'\xbc\x07\x00\x00'
p2081
tp2082
Rp2083
sVpostal
p2084
g2
(g6
S'|\x05\x00\x00'
p2085
tp2086
Rp2087
sVdare
p2088
g2
(g6
S'\xec\x01\x00\x00'
p2089
tp2090
Rp2091
sVapple
p2092
g2
(g6
S'{\x00\x00\x00'
p2093
tp2094
Rp2095
sVintel
p2096
g2
(g6
S'\xb8\x03\x00\x00'
p2097
tp2098
Rp2099
sVschools
p2100
g2
(g6
S'8\x06\x00\x00'
p2101
tp2102
Rp2103
sV62
p2104
g2
(g6
S'2\x00\x00\x00'
p2105
tp2106
Rp2107
sVlightning
p2108
g2
(g6
S'0\x04\x00\x00'
p2109
tp2110
Rp2111
sVimages
p2112
g2
(g6
S'\x96\x03\x00\x00'
p2113
tp2114
Rp2115
sVdiving
p2116
g2
(g6
S'&\x02\x00\x00'
p2117
tp2118
Rp2119
sVthinks
p2120
g2
(g6
S'G\x07\x00\x00'
p2121
tp2122
Rp2123
sVmemories
p2124
g2
(g6
S'\x8c\x04\x00\x00'
p2125
tp2126
Rp2127
sVnoon
p2128
g2
(g6
S'\xf4\x04\x00\x00'
p2129
tp2130
Rp2131
sVfondue
p2132
g2
(g6
S'\xcf\x02\x00\x00'
p2133
tp2134
Rp2135
sVpower
p2136
g2
(g6
S'\x80\x05\x00\x00'
p2137
tp2138
Rp2139
sVseconds
p2140
g2
(g6
S'M\x06\x00\x00'
p2141
tp2142
Rp2143
sVrobots
p2144
g2
(g6
S'\x08\x06\x00\x00'
p2145
tp2146
Rp2147
sVthrowback
p2148
g2
(g6
S'M\x07\x00\x00'
p2149
tp2150
Rp2151
sVcouple
p2152
g2
(g6
S'\xbb\x01\x00\x00'
p2153
tp2154
Rp2155
sVshattershield
p2156
g2
(g6
S'l\x06\x00\x00'
p2157
tp2158
Rp2159
sVisland
p2160
g2
(g6
S'\xcb\x03\x00\x00'
p2161
tp2162
Rp2163
sVindustry
p2164
g2
(g6
S'\xa4\x03\x00\x00'
p2165
tp2166
Rp2167
sVfavorite
p2168
g2
(g6
S'\xa4\x02\x00\x00'
p2169
tp2170
Rp2171
sVbonding
p2172
g2
(g6
S'\xdb\x00\x00\x00'
p2173
tp2174
Rp2175
sVyouve
p2176
g2
(g6
S'2\x08\x00\x00'
p2177
tp2178
Rp2179
sVluck
p2180
g2
(g6
S'[\x04\x00\x00'
p2181
tp2182
Rp2183
sVroad
p2184
g2
(g6
S'\x06\x06\x00\x00'
p2185
tp2186
Rp2187
sVmarshmallow
p2188
g2
(g6
S'x\x04\x00\x00'
p2189
tp2190
Rp2191
sVcoupon
p2192
g2
(g6
S'\xbc\x01\x00\x00'
p2193
tp2194
Rp2195
sVimage
p2196
g2
(g6
S'\x95\x03\x00\x00'
p2197
tp2198
Rp2199
sVlegged
p2200
g2
(g6
S'#\x04\x00\x00'
p2201
tp2202
Rp2203
sVparties
p2204
g2
(g6
S'0\x05\x00\x00'
p2205
tp2206
Rp2207
sVsamsungs
p2208
g2
(g6
S'%\x06\x00\x00'
p2209
tp2210
Rp2211
sVshells
p2212
g2
(g6
S'n\x06\x00\x00'
p2213
tp2214
Rp2215
sVhey
p2216
g2
(g6
S'c\x03\x00\x00'
p2217
tp2218
Rp2219
sVmondays
p2220
g2
(g6
S'\xbc\x04\x00\x00'
p2221
tp2222
Rp2223
sVmornings
p2224
g2
(g6
S'\xc6\x04\x00\x00'
p2225
tp2226
Rp2227
sVcomplete
p2228
g2
(g6
S'\x94\x01\x00\x00'
p2229
tp2230
Rp2231
sVspice
p2232
g2
(g6
S'\xc0\x06\x00\x00'
p2233
tp2234
Rp2235
sVoctober
p2236
g2
(g6
S'\xff\x04\x00\x00'
p2237
tp2238
Rp2239
sVagree
p2240
g2
(g6
S']\x00\x00\x00'
p2241
tp2242
Rp2243
sVgone
p2244
g2
(g6
S'\x1f\x03\x00\x00'
p2245
tp2246
Rp2247
sVplaylists
p2248
g2
(g6
S'j\x05\x00\x00'
p2249
tp2250
Rp2251
sVad
p2252
g2
(g6
S'K\x00\x00\x00'
p2253
tp2254
Rp2255
sVvideos
p2256
g2
(g6
S'\xc1\x07\x00\x00'
p2257
tp2258
Rp2259
sVforgot
p2260
g2
(g6
S'\xd7\x02\x00\x00'
p2261
tp2262
Rp2263
sVdeep
p2264
g2
(g6
S'\xfd\x01\x00\x00'
p2265
tp2266
Rp2267
sVgeneral
p2268
g2
(g6
S'\xfd\x02\x00\x00'
p2269
tp2270
Rp2271
sVimagination
p2272
g2
(g6
S'\x97\x03\x00\x00'
p2273
tp2274
Rp2275
sVwalks
p2276
g2
(g6
S'\xd3\x07\x00\x00'
p2277
tp2278
Rp2279
sVwatched
p2280
g2
(g6
S'\xdb\x07\x00\x00'
p2281
tp2282
Rp2283
sVfilm
p2284
g2
(g6
S'\xba\x02\x00\x00'
p2285
tp2286
Rp2287
sVcream
p2288
g2
(g6
S'\xc3\x01\x00\x00'
p2289
tp2290
Rp2291
sVyogi
p2292
g2
(g6
S',\x08\x00\x00'
p2293
tp2294
Rp2295
sVstudents
p2296
g2
(g6
S'\xf6\x06\x00\x00'
p2297
tp2298
Rp2299
sVgifts
p2300
g2
(g6
S'\x0b\x03\x00\x00'
p2301
tp2302
Rp2303
sVimportant
p2304
g2
(g6
S'\x9a\x03\x00\x00'
p2305
tp2306
Rp2307
sVbrands
p2308
g2
(g6
S'\xec\x00\x00\x00'
p2309
tp2310
Rp2311
sVremote
p2312
g2
(g6
S'\xee\x05\x00\x00'
p2313
tp2314
Rp2315
sVtravel10
p2316
g2
(g6
S'v\x07\x00\x00'
p2317
tp2318
Rp2319
sVtricks
p2320
g2
(g6
S'\x81\x07\x00\x00'
p2321
tp2322
Rp2323
sVhaving
p2324
g2
(g6
S'P\x03\x00\x00'
p2325
tp2326
Rp2327
sVstarting
p2328
g2
(g6
S'\xd7\x06\x00\x00'
p2329
tp2330
Rp2331
sVoriginal
p2332
g2
(g6
S'\x1a\x05\x00\x00'
p2333
tp2334
Rp2335
sVconsider
p2336
g2
(g6
S'\x9d\x01\x00\x00'
p2337
tp2338
Rp2339
sVcommute
p2340
g2
(g6
S'\x92\x01\x00\x00'
p2341
tp2342
Rp2343
sVtalks
p2344
g2
(g6
S'"\x07\x00\x00'
p2345
tp2346
Rp2347
sVtv
p2348
g2
(g6
S'\x98\x07\x00\x00'
p2349
tp2350
Rp2351
sVts
p2352
g2
(g6
S'\x8a\x07\x00\x00'
p2353
tp2354
Rp2355
sVsmile
p2356
g2
(g6
S'\x9f\x06\x00\x00'
p2357
tp2358
Rp2359
sVhomepage
p2360
g2
(g6
S'v\x03\x00\x00'
p2361
tp2362
Rp2363
sVreturned
p2364
g2
(g6
S'\xfb\x05\x00\x00'
p2365
tp2366
Rp2367
sVsitting
p2368
g2
(g6
S'\x8a\x06\x00\x00'
p2369
tp2370
Rp2371
sVpuzzler
p2372
g2
(g6
S'\xb4\x05\x00\x00'
p2373
tp2374
Rp2375
sVfall
p2376
g2
(g6
S'\x95\x02\x00\x00'
p2377
tp2378
Rp2379
sVdifference
p2380
g2
(g6
S'\x18\x02\x00\x00'
p2381
tp2382
Rp2383
sVsteve
p2384
g2
(g6
S'\xe1\x06\x00\x00'
p2385
tp2386
Rp2387
sVcable
p2388
g2
(g6
S'\x14\x01\x00\x00'
p2389
tp2390
Rp2391
sVjoined
p2392
g2
(g6
S'\xe0\x03\x00\x00'
p2393
tp2394
Rp2395
sVadjust
p2396
g2
(g6
S'Q\x00\x00\x00'
p2397
tp2398
Rp2399
sVform
p2400
g2
(g6
S'\xd8\x02\x00\x00'
p2401
tp2402
Rp2403
sVsmall
p2404
g2
(g6
S'\x98\x06\x00\x00'
p2405
tp2406
Rp2407
sVgang
p2408
g2
(g6
S'\xf9\x02\x00\x00'
p2409
tp2410
Rp2411
sVneighborhood
p2412
g2
(g6
S'\xe6\x04\x00\x00'
p2413
tp2414
Rp2415
sVportable
p2416
g2
(g6
S'x\x05\x00\x00'
p2417
tp2418
Rp2419
sVpast
p2420
g2
(g6
S'5\x05\x00\x00'
p2421
tp2422
Rp2423
sVtitles
p2424
g2
(g6
S'W\x07\x00\x00'
p2425
tp2426
Rp2427
sVclock
p2428
g2
(g6
S'u\x01\x00\x00'
p2429
tp2430
Rp2431
sVscientists
p2432
g2
(g6
S':\x06\x00\x00'
p2433
tp2434
Rp2435
sVfixings
p2436
g2
(g6
S'\xc6\x02\x00\x00'
p2437
tp2438
Rp2439
sVhours
p2440
g2
(g6
S'\x82\x03\x00\x00'
p2441
tp2442
Rp2443
sVoldie
p2444
g2
(g6
S'\x08\x05\x00\x00'
p2445
tp2446
Rp2447
sVnovember
p2448
g2
(g6
S'\xf9\x04\x00\x00'
p2449
tp2450
Rp2451
sVlegend
p2452
g2
(g6
S'"\x04\x00\x00'
p2453
tp2454
Rp2455
sVsearch
p2456
g2
(g6
S'D\x06\x00\x00'
p2457
tp2458
Rp2459
sVstretching
p2460
g2
(g6
S'\xf2\x06\x00\x00'
p2461
tp2462
Rp2463
sVexperience
p2464
g2
(g6
S'\x84\x02\x00\x00'
p2465
tp2466
Rp2467
sVpics
p2468
g2
(g6
S'U\x05\x00\x00'
p2469
tp2470
Rp2471
sVsocial
p2472
g2
(g6
S'\xa8\x06\x00\x00'
p2473
tp2474
Rp2475
sVaction
p2476
g2
(g6
S'G\x00\x00\x00'
p2477
tp2478
Rp2479
sVdachshund
p2480
g2
(g6
S'\xe7\x01\x00\x00'
p2481
tp2482
Rp2483
sVselect
p2484
g2
(g6
S'R\x06\x00\x00'
p2485
tp2486
Rp2487
sVpearl
p2488
g2
(g6
S'=\x05\x00\x00'
p2489
tp2490
Rp2491
sVgorgeous
p2492
g2
(g6
S'&\x03\x00\x00'
p2493
tp2494
Rp2495
sVtested
p2496
g2
(g6
S'5\x07\x00\x00'
p2497
tp2498
Rp2499
sVlanded
p2500
g2
(g6
S'\x07\x04\x00\x00'
p2501
tp2502
Rp2503
sVkeeping
p2504
g2
(g6
S'\xec\x03\x00\x00'
p2505
tp2506
Rp2507
sVhour
p2508
g2
(g6
S'\x81\x03\x00\x00'
p2509
tp2510
Rp2511
sVscience
p2512
g2
(g6
S'9\x06\x00\x00'
p2513
tp2514
Rp2515
sVlearn
p2516
g2
(g6
S'\x18\x04\x00\x00'
p2517
tp2518
Rp2519
sVdec
p2520
g2
(g6
S'\xfa\x01\x00\x00'
p2521
tp2522
Rp2523
sVbeautiful
p2524
g2
(g6
S'\xb9\x00\x00\x00'
p2525
tp2526
Rp2527
sVpurchases
p2528
g2
(g6
S'\xad\x05\x00\x00'
p2529
tp2530
Rp2531
sVscan
p2532
g2
(g6
S'4\x06\x00\x00'
p2533
tp2534
Rp2535
sVshare
p2536
g2
(g6
S'f\x06\x00\x00'
p2537
tp2538
Rp2539
sVboatload
p2540
g2
(g6
S'\xd7\x00\x00\x00'
p2541
tp2542
Rp2543
sVsense
p2544
g2
(g6
S'X\x06\x00\x00'
p2545
tp2546
Rp2547
sVsharp
p2548
g2
(g6
S'i\x06\x00\x00'
p2549
tp2550
Rp2551
sVdress
p2552
g2
(g6
S'?\x02\x00\x00'
p2553
tp2554
Rp2555
sVspooked
p2556
g2
(g6
S'\xc5\x06\x00\x00'
p2557
tp2558
Rp2559
sVinformation
p2560
g2
(g6
S'\xa7\x03\x00\x00'
p2561
tp2562
Rp2563
sVneeds
p2564
g2
(g6
S'\xe5\x04\x00\x00'
p2565
tp2566
Rp2567
sVmaps
p2568
g2
(g6
S's\x04\x00\x00'
p2569
tp2570
Rp2571
sVglowing
p2572
g2
(g6
S'\x16\x03\x00\x00'
p2573
tp2574
Rp2575
sVcontinues
p2576
g2
(g6
S'\xa4\x01\x00\x00'
p2577
tp2578
Rp2579
sVplans
p2580
g2
(g6
S'c\x05\x00\x00'
p2581
tp2582
Rp2583
sVsoundtrack
p2584
g2
(g6
S'\xb5\x06\x00\x00'
p2585
tp2586
Rp2587
sVregister
p2588
g2
(g6
S'\xe2\x05\x00\x00'
p2589
tp2590
Rp2591
sVplaying
p2592
g2
(g6
S'h\x05\x00\x00'
p2593
tp2594
Rp2595
sVscott
p2596
g2
(g6
S'=\x06\x00\x00'
p2597
tp2598
Rp2599
sVfilters
p2600
g2
(g6
S'\xbb\x02\x00\x00'
p2601
tp2602
Rp2603
sV24
p2604
g2
(g6
S'\x15\x00\x00\x00'
p2605
tp2606
Rp2607
sV26
p2608
g2
(g6
S'\x19\x00\x00\x00'
p2609
tp2610
Rp2611
sV27
p2612
g2
(g6
S'\x1a\x00\x00\x00'
p2613
tp2614
Rp2615
sV20
p2616
g2
(g6
S'\x0e\x00\x00\x00'
p2617
tp2618
Rp2619
sV21
p2620
g2
(g6
S'\x13\x00\x00\x00'
p2621
tp2622
Rp2623
sV28
p2624
g2
(g6
S'\x1b\x00\x00\x00'
p2625
tp2626
Rp2627
sV29
p2628
g2
(g6
S'\x1c\x00\x00\x00'
p2629
tp2630
Rp2631
sVwipe
p2632
g2
(g6
S'\xfa\x07\x00\x00'
p2633
tp2634
Rp2635
sVlate
p2636
g2
(g6
S'\r\x04\x00\x00'
p2637
tp2638
Rp2639
sVtoothy
p2640
g2
(g6
S'a\x07\x00\x00'
p2641
tp2642
Rp2643
sVgood
p2644
g2
(g6
S'!\x03\x00\x00'
p2645
tp2646
Rp2647
sVicymi
p2648
g2
(g6
S'\x91\x03\x00\x00'
p2649
tp2650
Rp2651
sVeasily
p2652
g2
(g6
S'P\x02\x00\x00'
p2653
tp2654
Rp2655
sVlantern
p2656
g2
(g6
S'\n\x04\x00\x00'
p2657
tp2658
Rp2659
sVweek
p2660
g2
(g6
S'\xe6\x07\x00\x00'
p2661
tp2662
Rp2663
sVhouse
p2664
g2
(g6
S'\x83\x03\x00\x00'
p2665
tp2666
Rp2667
sVcomin
p2668
g2
(g6
S'\x8e\x01\x00\x00'
p2669
tp2670
Rp2671
sVcritters
p2672
g2
(g6
S'\xcd\x01\x00\x00'
p2673
tp2674
Rp2675
sVchomping
p2676
g2
(g6
S'a\x01\x00\x00'
p2677
tp2678
Rp2679
sVconnect
p2680
g2
(g6
S'\x9a\x01\x00\x00'
p2681
tp2682
Rp2683
sVportland
p2684
g2
(g6
S'y\x05\x00\x00'
p2685
tp2686
Rp2687
sVreally
p2688
g2
(g6
S'\xd5\x05\x00\x00'
p2689
tp2690
Rp2691
sVlipstick
p2692
g2
(g6
S'9\x04\x00\x00'
p2693
tp2694
Rp2695
sVresearch
p2696
g2
(g6
S'\xf5\x05\x00\x00'
p2697
tp2698
Rp2699
sVdowns
p2700
g2
(g6
S';\x02\x00\x00'
p2701
tp2702
Rp2703
sVbasketball
p2704
g2
(g6
S'\xac\x00\x00\x00'
p2705
tp2706
Rp2707
sVmembers
p2708
g2
(g6
S'\x8b\x04\x00\x00'
p2709
tp2710
Rp2711
sVpairs
p2712
g2
(g6
S'(\x05\x00\x00'
p2713
tp2714
Rp2715
sVcastle
p2716
g2
(g6
S'2\x01\x00\x00'
p2717
tp2718
Rp2719
sVpilots
p2720
g2
(g6
S'Y\x05\x00\x00'
p2721
tp2722
Rp2723
sVmajor
p2724
g2
(g6
S'f\x04\x00\x00'
p2725
tp2726
Rp2727
sVdont
p2728
g2
(g6
S'5\x02\x00\x00'
p2729
tp2730
Rp2731
sVcups
p2732
g2
(g6
S'\xd3\x01\x00\x00'
p2733
tp2734
Rp2735
sVguess
p2736
g2
(g6
S'9\x03\x00\x00'
p2737
tp2738
Rp2739
sVguest
p2740
g2
(g6
S':\x03\x00\x00'
p2741
tp2742
Rp2743
sVswipe
p2744
g2
(g6
S'\x12\x07\x00\x00'
p2745
tp2746
Rp2747
sVpaint
p2748
g2
(g6
S'%\x05\x00\x00'
p2749
tp2750
Rp2751
sVrelationship
p2752
g2
(g6
S'\xe8\x05\x00\x00'
p2753
tp2754
Rp2755
sVpark
p2756
g2
(g6
S'/\x05\x00\x00'
p2757
tp2758
Rp2759
sVtracking
p2760
g2
(g6
S'i\x07\x00\x00'
p2761
tp2762
Rp2763
sVlivestream
p2764
g2
(g6
S'A\x04\x00\x00'
p2765
tp2766
Rp2767
sVgraco
p2768
g2
(g6
S'+\x03\x00\x00'
p2769
tp2770
Rp2771
sV18k
p2772
g2
(g6
S'\x0b\x00\x00\x00'
p2773
tp2774
Rp2775
sVpanda
p2776
g2
(g6
S'*\x05\x00\x00'
p2777
tp2778
Rp2779
sVpolishing
p2780
g2
(g6
S's\x05\x00\x00'
p2781
tp2782
Rp2783
sVinteractive
p2784
g2
(g6
S'\xba\x03\x00\x00'
p2785
tp2786
Rp2787
sVorders
p2788
g2
(g6
S'\x17\x05\x00\x00'
p2789
tp2790
Rp2791
sVmountain
p2792
g2
(g6
S'\xca\x04\x00\x00'
p2793
tp2794
Rp2795
sVbuilt
p2796
g2
(g6
S'\x05\x01\x00\x00'
p2797
tp2798
Rp2799
sVdancing
p2800
g2
(g6
S'\xea\x01\x00\x00'
p2801
tp2802
Rp2803
sVself
p2804
g2
(g6
S'T\x06\x00\x00'
p2805
tp2806
Rp2807
sVcouch
p2808
g2
(g6
S'\xb5\x01\x00\x00'
p2809
tp2810
Rp2811
sVbuild
p2812
g2
(g6
S'\x02\x01\x00\x00'
p2813
tp2814
Rp2815
sVplay
p2816
g2
(g6
S'e\x05\x00\x00'
p2817
tp2818
Rp2819
sVeggs
p2820
g2
(g6
S'\\\x02\x00\x00'
p2821
tp2822
Rp2823
sVplan
p2824
g2
(g6
S'_\x05\x00\x00'
p2825
tp2826
Rp2827
sVservices
p2828
g2
(g6
S'^\x06\x00\x00'
p2829
tp2830
Rp2831
sVmicrosoft
p2832
g2
(g6
S'\x9b\x04\x00\x00'
p2833
tp2834
Rp2835
sVjoining
p2836
g2
(g6
S'\xe1\x03\x00\x00'
p2837
tp2838
Rp2839
sVthomas
p2840
g2
(g6
S'H\x07\x00\x00'
p2841
tp2842
Rp2843
sVootd
p2844
g2
(g6
S'\x0f\x05\x00\x00'
p2845
tp2846
Rp2847
sVimpact
p2848
g2
(g6
S'\x99\x03\x00\x00'
p2849
tp2850
Rp2851
sVaccess
p2852
g2
(g6
S'@\x00\x00\x00'
p2853
tp2854
Rp2855
sVgiant
p2856
g2
(g6
S'\x07\x03\x00\x00'
p2857
tp2858
Rp2859
sVweve
p2860
g2
(g6
S'\xea\x07\x00\x00'
p2861
tp2862
Rp2863
sVexpress
p2864
g2
(g6
S'\x8d\x02\x00\x00'
p2865
tp2866
Rp2867
sVcourage
p2868
g2
(g6
S'\xbe\x01\x00\x00'
p2869
tp2870
Rp2871
sVcommon
p2872
g2
(g6
S'\x90\x01\x00\x00'
p2873
tp2874
Rp2875
sVinsane
p2876
g2
(g6
S'\xac\x03\x00\x00'
p2877
tp2878
Rp2879
sVset
p2880
g2
(g6
S'_\x06\x00\x00'
p2881
tp2882
Rp2883
sVstartup
p2884
g2
(g6
S'\xd9\x06\x00\x00'
p2885
tp2886
Rp2887
sVsex
p2888
g2
(g6
S'c\x06\x00\x00'
p2889
tp2890
Rp2891
sVsea
p2892
g2
(g6
S'B\x06\x00\x00'
p2893
tp2894
Rp2895
sVshower
p2896
g2
(g6
S'}\x06\x00\x00'
p2897
tp2898
Rp2899
sVmovie
p2900
g2
(g6
S'\xcd\x04\x00\x00'
p2901
tp2902
Rp2903
sVshatterproof
p2904
g2
(g6
S'k\x06\x00\x00'
p2905
tp2906
Rp2907
sVfans
p2908
g2
(g6
S'\x9b\x02\x00\x00'
p2909
tp2910
Rp2911
sVmonsters
p2912
g2
(g6
S'\xc0\x04\x00\x00'
p2913
tp2914
Rp2915
sVavailable
p2916
g2
(g6
S'\x97\x00\x00\x00'
p2917
tp2918
Rp2919
sVfolding
p2920
g2
(g6
S'\xcc\x02\x00\x00'
p2921
tp2922
Rp2923
sVpdf
p2924
g2
(g6
S';\x05\x00\x00'
p2925
tp2926
Rp2927
sVload
p2928
g2
(g6
S'E\x04\x00\x00'
p2929
tp2930
Rp2931
sVpoint
p2932
g2
(g6
S'q\x05\x00\x00'
p2933
tp2934
Rp2935
sVsimple
p2936
g2
(g6
S'\x82\x06\x00\x00'
p2937
tp2938
Rp2939
sVlbs
p2940
g2
(g6
S'\x14\x04\x00\x00'
p2941
tp2942
Rp2943
sVcoincidence
p2944
g2
(g6
S'\x7f\x01\x00\x00'
p2945
tp2946
Rp2947
sVplatinum
p2948
g2
(g6
S'd\x05\x00\x00'
p2949
tp2950
Rp2951
sVraise
p2952
g2
(g6
S'\xc8\x05\x00\x00'
p2953
tp2954
Rp2955
sVcreate
p2956
g2
(g6
S'\xc4\x01\x00\x00'
p2957
tp2958
Rp2959
sVcreativity
p2960
g2
(g6
S'\xc9\x01\x00\x00'
p2961
tp2962
Rp2963
sVsecret
p2964
g2
(g6
S'N\x06\x00\x00'
p2965
tp2966
Rp2967
sVireland
p2968
g2
(g6
S'\xc8\x03\x00\x00'
p2969
tp2970
Rp2971
sVgreat
p2972
g2
(g6
S'-\x03\x00\x00'
p2973
tp2974
Rp2975
sVracer
p2976
g2
(g6
S'\xc2\x05\x00\x00'
p2977
tp2978
Rp2979
sVinsiders
p2980
g2
(g6
S'\xae\x03\x00\x00'
p2981
tp2982
Rp2983
sVscreens
p2984
g2
(g6
S'@\x06\x00\x00'
p2985
tp2986
Rp2987
sVstraight
p2988
g2
(g6
S'\xec\x06\x00\x00'
p2989
tp2990
Rp2991
sV33
p2992
g2
(g6
S'"\x00\x00\x00'
p2993
tp2994
Rp2995
sVfun
p2996
g2
(g6
S'\xed\x02\x00\x00'
p2997
tp2998
Rp2999
sVreal
p3000
g2
(g6
S'\xd2\x05\x00\x00'
p3001
tp3002
Rp3003
sVchase
p3004
g2
(g6
S'S\x01\x00\x00'
p3005
tp3006
Rp3007
sVread
p3008
g2
(g6
S'\xce\x05\x00\x00'
p3009
tp3010
Rp3011
sVproducts
p3012
g2
(g6
S'\x9d\x05\x00\x00'
p3013
tp3014
Rp3015
sVday
p3016
g2
(g6
S'\xf2\x01\x00\x00'
p3017
tp3018
Rp3019
sVyesterday
p3020
g2
(g6
S'+\x08\x00\x00'
p3021
tp3022
Rp3023
sValert
p3024
g2
(g6
S'e\x00\x00\x00'
p3025
tp3026
Rp3027
sVmoment
p3028
g2
(g6
S'\xb9\x04\x00\x00'
p3029
tp3030
Rp3031
sVlevels
p3032
g2
(g6
S'+\x04\x00\x00'
p3033
tp3034
Rp3035
sVnecessity
p3036
g2
(g6
S'\xe2\x04\x00\x00'
p3037
tp3038
Rp3039
sVspent
p3040
g2
(g6
S'\xbf\x06\x00\x00'
p3041
tp3042
Rp3043
sVcounty
p3044
g2
(g6
S'\xba\x01\x00\x00'
p3045
tp3046
Rp3047
sVpicks
p3048
g2
(g6
S'T\x05\x00\x00'
p3049
tp3050
Rp3051
sVperson
p3052
g2
(g6
S'F\x05\x00\x00'
p3053
tp3054
Rp3055
sVorganization
p3056
g2
(g6
S'\x18\x05\x00\x00'
p3057
tp3058
Rp3059
sVspend
p3060
g2
(g6
S'\xbe\x06\x00\x00'
p3061
tp3062
Rp3063
sVshape
p3064
g2
(g6
S'e\x06\x00\x00'
p3065
tp3066
Rp3067
sVworld
p3068
g2
(g6
S'\x17\x08\x00\x00'
p3069
tp3070
Rp3071
sVwearable
p3072
g2
(g6
S'\xe1\x07\x00\x00'
p3073
tp3074
Rp3075
sVcoppoletta
p3076
g2
(g6
S'\xae\x01\x00\x00'
p3077
tp3078
Rp3079
sVletting
p3080
g2
(g6
S')\x04\x00\x00'
p3081
tp3082
Rp3083
sVcut
p3084
g2
(g6
S'\xe0\x01\x00\x00'
p3085
tp3086
Rp3087
sVcus
p3088
g2
(g6
S'\xda\x01\x00\x00'
p3089
tp3090
Rp3091
sVdslr
p3092
g2
(g6
S'I\x02\x00\x00'
p3093
tp3094
Rp3095
sVcup
p3096
g2
(g6
S'\xd2\x01\x00\x00'
p3097
tp3098
Rp3099
sVtfw
p3100
g2
(g6
S'7\x07\x00\x00'
p3101
tp3102
Rp3103
sVsource
p3104
g2
(g6
S'\xb6\x06\x00\x00'
p3105
tp3106
Rp3107
sVparents
p3108
g2
(g6
S'-\x05\x00\x00'
p3109
tp3110
Rp3111
sVhomeland
p3112
g2
(g6
S'u\x03\x00\x00'
p3113
tp3114
Rp3115
sVsnap
p3116
g2
(g6
S'\xa3\x06\x00\x00'
p3117
tp3118
Rp3119
sVexcited
p3120
g2
(g6
S'~\x02\x00\x00'
p3121
tp3122
Rp3123
sVemergency
p3124
g2
(g6
S'b\x02\x00\x00'
p3125
tp3126
Rp3127
sVbig
p3128
g2
(g6
S'\xc3\x00\x00\x00'
p3129
tp3130
Rp3131
sVmatters
p3132
g2
(g6
S'\x7f\x04\x00\x00'
p3133
tp3134
Rp3135
sVquest
p3136
g2
(g6
S'\xb9\x05\x00\x00'
p3137
tp3138
Rp3139
sVcuteness
p3140
g2
(g6
S'\xe2\x01\x00\x00'
p3141
tp3142
Rp3143
sVbit
p3144
g2
(g6
S'\xcc\x00\x00\x00'
p3145
tp3146
Rp3147
sVcontinue
p3148
g2
(g6
S'\xa3\x01\x00\x00'
p3149
tp3150
Rp3151
sVgoogle
p3152
g2
(g6
S'%\x03\x00\x00'
p3153
tp3154
Rp3155
sVabsolutely
p3156
g2
(g6
S'>\x00\x00\x00'
p3157
tp3158
Rp3159
sVpricing
p3160
g2
(g6
S'\x8f\x05\x00\x00'
p3161
tp3162
Rp3163
sVcurious
p3164
g2
(g6
S'\xd5\x01\x00\x00'
p3165
tp3166
Rp3167
sVscale
p3168
g2
(g6
S'3\x06\x00\x00'
p3169
tp3170
Rp3171
sVjewelry
p3172
g2
(g6
S'\xdc\x03\x00\x00'
p3173
tp3174
Rp3175
sVpet
p3176
g2
(g6
S'I\x05\x00\x00'
p3177
tp3178
Rp3179
sVlara
p3180
g2
(g6
S'\x0c\x04\x00\x00'
p3181
tp3182
Rp3183
sVcloud
p3184
g2
(g6
S'y\x01\x00\x00'
p3185
tp3186
Rp3187
sVepic
p3188
g2
(g6
S's\x02\x00\x00'
p3189
tp3190
Rp3191
sVbb
p3192
g2
(g6
S'\xb3\x00\x00\x00'
p3193
tp3194
Rp3195
sVcostumes
p3196
g2
(g6
S'\xb4\x01\x00\x00'
p3197
tp3198
Rp3199
sVsanta
p3200
g2
(g6
S')\x06\x00\x00'
p3201
tp3202
Rp3203
sVmario
p3204
g2
(g6
S't\x04\x00\x00'
p3205
tp3206
Rp3207
sVdiwali
p3208
g2
(g6
S"'\x02\x00\x00"
p3209
tp3210
Rp3211
sVclick
p3212
g2
(g6
S'q\x01\x00\x00'
p3213
tp3214
Rp3215
sVarcade
p3216
g2
(g6
S'\x7f\x00\x00\x00'
p3217
tp3218
Rp3219
sVsubmit
p3220
g2
(g6
S'\xfc\x06\x00\x00'
p3221
tp3222
Rp3223
sVcustom
p3224
g2
(g6
S'\xdb\x01\x00\x00'
p3225
tp3226
Rp3227
sVforward
p3228
g2
(g6
S'\xdc\x02\x00\x00'
p3229
tp3230
Rp3231
sVtranslate
p3232
g2
(g6
S'q\x07\x00\x00'
p3233
tp3234
Rp3235
sVbuttery
p3236
g2
(g6
S'\x0f\x01\x00\x00'
p3237
tp3238
Rp3239
sVepisode
p3240
g2
(g6
S't\x02\x00\x00'
p3241
tp3242
Rp3243
sVline
p3244
g2
(g6
S'6\x04\x00\x00'
p3245
tp3246
Rp3247
sVoriginals
p3248
g2
(g6
S'\x1b\x05\x00\x00'
p3249
tp3250
Rp3251
sVplanet
p3252
g2
(g6
S'a\x05\x00\x00'
p3253
tp3254
Rp3255
sVplanes
p3256
g2
(g6
S'`\x05\x00\x00'
p3257
tp3258
Rp3259
sVshowtime
p3260
g2
(g6
S'\x7f\x06\x00\x00'
p3261
tp3262
Rp3263
sVsingle
p3264
g2
(g6
S'\x86\x06\x00\x00'
p3265
tp3266
Rp3267
sVchat
p3268
g2
(g6
S'T\x01\x00\x00'
p3269
tp3270
Rp3271
sVkombat
p3272
g2
(g6
S'\x03\x04\x00\x00'
p3273
tp3274
Rp3275
sVtheyll
p3276
g2
(g6
S'A\x07\x00\x00'
p3277
tp3278
Rp3279
sVlend
p3280
g2
(g6
S'%\x04\x00\x00'
p3281
tp3282
Rp3283
sVprepared
p3284
g2
(g6
S'\x86\x05\x00\x00'
p3285
tp3286
Rp3287
sVsmartthings
p3288
g2
(g6
S'\x9d\x06\x00\x00'
p3289
tp3290
Rp3291
sVstuffers
p3292
g2
(g6
S'\xf8\x06\x00\x00'
p3293
tp3294
Rp3295
sVcooker
p3296
g2
(g6
S'\xa8\x01\x00\x00'
p3297
tp3298
Rp3299
sVfresh
p3300
g2
(g6
S'\xe1\x02\x00\x00'
p3301
tp3302
Rp3303
sVhello
p3304
g2
(g6
S'[\x03\x00\x00'
p3305
tp3306
Rp3307
sVcode
p3308
g2
(g6
S'|\x01\x00\x00'
p3309
tp3310
Rp3311
sVyoung
p3312
g2
(g6
S'/\x08\x00\x00'
p3313
tp3314
Rp3315
sVsend
p3316
g2
(g6
S'W\x06\x00\x00'
p3317
tp3318
Rp3319
sVhelps
p3320
g2
(g6
S'_\x03\x00\x00'
p3321
tp3322
Rp3323
sVdislike
p3324
g2
(g6
S'#\x02\x00\x00'
p3325
tp3326
Rp3327
sVdessert
p3328
g2
(g6
S'\x11\x02\x00\x00'
p3329
tp3330
Rp3331
sVmagic
p3332
g2
(g6
S'c\x04\x00\x00'
p3333
tp3334
Rp3335
sVeve
p3336
g2
(g6
S'z\x02\x00\x00'
p3337
tp3338
Rp3339
sVtry
p3340
g2
(g6
S'\x88\x07\x00\x00'
p3341
tp3342
Rp3343
sVrace
p3344
g2
(g6
S'\xc1\x05\x00\x00'
p3345
tp3346
Rp3347
sVvideo
p3348
g2
(g6
S'\xc0\x07\x00\x00'
p3349
tp3350
Rp3351
sVchicago
p3352
g2
(g6
S'Z\x01\x00\x00'
p3353
tp3354
Rp3355
sVgiving
p3356
g2
(g6
S'\x10\x03\x00\x00'
p3357
tp3358
Rp3359
sVmultimedia
p3360
g2
(g6
S'\xd2\x04\x00\x00'
p3361
tp3362
Rp3363
sVbird
p3364
g2
(g6
S'\xc9\x00\x00\x00'
p3365
tp3366
Rp3367
sVexercise
p3368
g2
(g6
S'\x82\x02\x00\x00'
p3369
tp3370
Rp3371
sV3d
p3372
g2
(g6
S'&\x00\x00\x00'
p3373
tp3374
Rp3375
sVbody
p3376
g2
(g6
S'\xd9\x00\x00\x00'
p3377
tp3378
Rp3379
sVled
p3380
g2
(g6
S'\x1e\x04\x00\x00'
p3381
tp3382
Rp3383
sVlee
p3384
g2
(g6
S'\x1f\x04\x00\x00'
p3385
tp3386
Rp3387
sVdelivering
p3388
g2
(g6
S'\x04\x02\x00\x00'
p3389
tp3390
Rp3391
sVlet
p3392
g2
(g6
S'&\x04\x00\x00'
p3393
tp3394
Rp3395
sV38
p3396
g2
(g6
S'%\x00\x00\x00'
p3397
tp3398
Rp3399
sV32
p3400
g2
(g6
S'!\x00\x00\x00'
p3401
tp3402
Rp3403
sV31
p3404
g2
(g6
S' \x00\x00\x00'
p3405
tp3406
Rp3407
sV30
p3408
g2
(g6
S'\x1f\x00\x00\x00'
p3409
tp3410
Rp3411
sV35
p3412
g2
(g6
S'#\x00\x00\x00'
p3413
tp3414
Rp3415
sVfetch
p3416
g2
(g6
S'\xb3\x02\x00\x00'
p3417
tp3418
Rp3419
sVsweaters
p3420
g2
(g6
S'\x0f\x07\x00\x00'
p3421
tp3422
Rp3423
sVpopcorn
p3424
g2
(g6
S'u\x05\x00\x00'
p3425
tp3426
Rp3427
sVclimb
p3428
g2
(g6
S'r\x01\x00\x00'
p3429
tp3430
Rp3431
sVmakes
p3432
g2
(g6
S'j\x04\x00\x00'
p3433
tp3434
Rp3435
sVhonor
p3436
g2
(g6
S'x\x03\x00\x00'
p3437
tp3438
Rp3439
sVthats
p3440
g2
(g6
S'<\x07\x00\x00'
p3441
tp3442
Rp3443
sVnamed
p3444
g2
(g6
S'\xd6\x04\x00\x00'
p3445
tp3446
Rp3447
sVago
p3448
g2
(g6
S'\\\x00\x00\x00'
p3449
tp3450
Rp3451
sVsiri
p3452
g2
(g6
S'\x88\x06\x00\x00'
p3453
tp3454
Rp3455
sVprivate
p3456
g2
(g6
S'\x93\x05\x00\x00'
p3457
tp3458
Rp3459
sVresolutions
p3460
g2
(g6
S'\xf8\x05\x00\x00'
p3461
tp3462
Rp3463
sVsugar
p3464
g2
(g6
S'\xfd\x06\x00\x00'
p3465
tp3466
Rp3467
sVtools
p3468
g2
(g6
S'`\x07\x00\x00'
p3469
tp3470
Rp3471
sVsnacks
p3472
g2
(g6
S'\xa2\x06\x00\x00'
p3473
tp3474
Rp3475
sVseamless
p3476
g2
(g6
S'C\x06\x00\x00'
p3477
tp3478
Rp3479
sVpencil
p3480
g2
(g6
S'@\x05\x00\x00'
p3481
tp3482
Rp3483
sVhalloween
p3484
g2
(g6
S'A\x03\x00\x00'
p3485
tp3486
Rp3487
sVtrain
p3488
g2
(g6
S'm\x07\x00\x00'
p3489
tp3490
Rp3491
sVprizes
p3492
g2
(g6
S'\x94\x05\x00\x00'
p3493
tp3494
Rp3495
sVbaby
p3496
g2
(g6
S'\x9d\x00\x00\x00'
p3497
tp3498
Rp3499
sVcentral
p3500
g2
(g6
S'@\x01\x00\x00'
p3501
tp3502
Rp3503
sVminions
p3504
g2
(g6
S'\xa7\x04\x00\x00'
p3505
tp3506
Rp3507
sVcustomer
p3508
g2
(g6
S'\xdc\x01\x00\x00'
p3509
tp3510
Rp3511
sVaccount
p3512
g2
(g6
S'C\x00\x00\x00'
p3513
tp3514
Rp3515
sVanimals
p3516
g2
(g6
S'r\x00\x00\x00'
p3517
tp3518
Rp3519
sVathlete
p3520
g2
(g6
S'\x91\x00\x00\x00'
p3521
tp3522
Rp3523
sVpackage
p3524
g2
(g6
S'!\x05\x00\x00'
p3525
tp3526
Rp3527
sVdidnt
p3528
g2
(g6
S'\x16\x02\x00\x00'
p3529
tp3530
Rp3531
sVhigh
p3532
g2
(g6
S'i\x03\x00\x00'
p3533
tp3534
Rp3535
sVpaws
p3536
g2
(g6
S'7\x05\x00\x00'
p3537
tp3538
Rp3539
sVforest
p3540
g2
(g6
S'\xd4\x02\x00\x00'
p3541
tp3542
Rp3543
sVanimal
p3544
g2
(g6
S'q\x00\x00\x00'
p3545
tp3546
Rp3547
sVstock
p3548
g2
(g6
S'\xe3\x06\x00\x00'
p3549
tp3550
Rp3551
sVblocks
p3552
g2
(g6
S'\xd3\x00\x00\x00'
p3553
tp3554
Rp3555
sVquadcopters
p3556
g2
(g6
S'\xb6\x05\x00\x00'
p3557
tp3558
Rp3559
sVcollection
p3560
g2
(g6
S'\x81\x01\x00\x00'
p3561
tp3562
Rp3563
sVjumpstart
p3564
g2
(g6
S'\xe7\x03\x00\x00'
p3565
tp3566
Rp3567
sVlines
p3568
g2
(g6
S'7\x04\x00\x00'
p3569
tp3570
Rp3571
sVrobot
p3572
g2
(g6
S'\x07\x06\x00\x00'
p3573
tp3574
Rp3575
sV9am
p3576
g2
(g6
S'=\x00\x00\x00'
p3577
tp3578
Rp3579
sVallow
p3580
g2
(g6
S'g\x00\x00\x00'
p3581
tp3582
Rp3583
sVgalaxy
p3584
g2
(g6
S'\xf3\x02\x00\x00'
p3585
tp3586
Rp3587
sVperfect
p3588
g2
(g6
S'B\x05\x00\x00'
p3589
tp3590
Rp3591
sVle
p3592
g2
(g6
S'\x15\x04\x00\x00'
p3593
tp3594
Rp3595
sVla
p3596
g2
(g6
S'\x04\x04\x00\x00'
p3597
tp3598
Rp3599
sVll
p3600
g2
(g6
S'D\x04\x00\x00'
p3601
tp3602
Rp3603
sVwinning
p3604
g2
(g6
S'\xf8\x07\x00\x00'
p3605
tp3606
Rp3607
sV2015
p3608
g2
(g6
S'\x10\x00\x00\x00'
p3609
tp3610
Rp3611
sV2016
p3612
g2
(g6
S'\x11\x00\x00\x00'
p3613
tp3614
Rp3615
sV2011
p3616
g2
(g6
S'\x0f\x00\x00\x00'
p3617
tp3618
Rp3619
sVlx
p3620
g2
(g6
S'a\x04\x00\x00'
p3621
tp3622
Rp3623
sVdesigns
p3624
g2
(g6
S'\r\x02\x00\x00'
p3625
tp3626
Rp3627
sVgreater
p3628
g2
(g6
S'.\x03\x00\x00'
p3629
tp3630
Rp3631
sVquestions
p3632
g2
(g6
S'\xbb\x05\x00\x00'
p3633
tp3634
Rp3635
sVwithblack
p3636
g2
(g6
S'\x02\x08\x00\x00'
p3637
tp3638
Rp3639
sVdock
p3640
g2
(g6
S'*\x02\x00\x00'
p3641
tp3642
Rp3643
sVtransparent
p3644
g2
(g6
S'r\x07\x00\x00'
p3645
tp3646
Rp3647
sVcider
p3648
g2
(g6
S'f\x01\x00\x00'
p3649
tp3650
Rp3651
sVglasses
p3652
g2
(g6
S'\x12\x03\x00\x00'
p3653
tp3654
Rp3655
sVdoing
p3656
g2
(g6
S'1\x02\x00\x00'
p3657
tp3658
Rp3659
sVbooks
p3660
g2
(g6
S'\xe0\x00\x00\x00'
p3661
tp3662
Rp3663
sVpatch
p3664
g2
(g6
S'6\x05\x00\x00'
p3665
tp3666
Rp3667
sVmatt
p3668
g2
(g6
S'}\x04\x00\x00'
p3669
tp3670
Rp3671
sVboutique
p3672
g2
(g6
S'\xe7\x00\x00\x00'
p3673
tp3674
Rp3675
sVmonumental
p3676
g2
(g6
S'\xc3\x04\x00\x00'
p3677
tp3678
Rp3679
sVhilarious
p3680
g2
(g6
S'k\x03\x00\x00'
p3681
tp3682
Rp3683
sVelectronics
p3684
g2
(g6
S']\x02\x00\x00'
p3685
tp3686
Rp3687
sVannounced
p3688
g2
(g6
S't\x00\x00\x00'
p3689
tp3690
Rp3691
sVtiger
p3692
g2
(g6
S'N\x07\x00\x00'
p3693
tp3694
Rp3695
sVban
p3696
g2
(g6
S'\xa4\x00\x00\x00'
p3697
tp3698
Rp3699
sVbwi
p3700
g2
(g6
S'\x13\x01\x00\x00'
p3701
tp3702
Rp3703
sVmesmerized
p3704
g2
(g6
S'\x92\x04\x00\x00'
p3705
tp3706
Rp3707
sVrecipes
p3708
g2
(g6
S'\xda\x05\x00\x00'
p3709
tp3710
Rp3711
sVmortal
p3712
g2
(g6
S'\xc7\x04\x00\x00'
p3713
tp3714
Rp3715
sVblown
p3716
g2
(g6
S'\xd4\x00\x00\x00'
p3717
tp3718
Rp3719
sVscene
p3720
g2
(g6
S'5\x06\x00\x00'
p3721
tp3722
Rp3723
sVowner
p3724
g2
(g6
S'\x1f\x05\x00\x00'
p3725
tp3726
Rp3727
sVstart
p3728
g2
(g6
S'\xd5\x06\x00\x00'
p3729
tp3730
Rp3731
sVordering
p3732
g2
(g6
S'\x16\x05\x00\x00'
p3733
tp3734
Rp3735
sVwiththe
p3736
g2
(g6
S'\x05\x08\x00\x00'
p3737
tp3738
Rp3739
sVgear
p3740
g2
(g6
S'\xfc\x02\x00\x00'
p3741
tp3742
Rp3743
sVbulldog
p3744
g2
(g6
S'\x06\x01\x00\x00'
p3745
tp3746
Rp3747
sVwishlist
p3748
g2
(g6
S'\xff\x07\x00\x00'
p3749
tp3750
Rp3751
sVsteel
p3752
g2
(g6
S'\xde\x06\x00\x00'
p3753
tp3754
Rp3755
sVloved
p3756
g2
(g6
S'V\x04\x00\x00'
p3757
tp3758
Rp3759
sVroulette
p3760
g2
(g6
S'\x12\x06\x00\x00'
p3761
tp3762
Rp3763
sVgiphy
p3764
g2
(g6
S'\x0c\x03\x00\x00'
p3765
tp3766
Rp3767
sVloves
p3768
g2
(g6
S'X\x04\x00\x00'
p3769
tp3770
Rp3771
sVurrl
p3772
g2
(g6
S'\xb1\x07\x00\x00'
p3773
tp3774
Rp3775
sVoneweek
p3776
g2
(g6
S'\x0c\x05\x00\x00'
p3777
tp3778
Rp3779
sVgently
p3780
g2
(g6
S'\xff\x02\x00\x00'
p3781
tp3782
Rp3783
sVcurved
p3784
g2
(g6
S'\xd9\x01\x00\x00'
p3785
tp3786
Rp3787
sVsky
p3788
g2
(g6
S'\x94\x06\x00\x00'
p3789
tp3790
Rp3791
sVnecessities
p3792
g2
(g6
S'\xe1\x04\x00\x00'
p3793
tp3794
Rp3795
sVmin
p3796
g2
(g6
S'\xa2\x04\x00\x00'
p3797
tp3798
Rp3799
sVmic
p3800
g2
(g6
S'\x98\x04\x00\x00'
p3801
tp3802
Rp3803
sVmix
p3804
g2
(g6
S'\xb0\x04\x00\x00'
p3805
tp3806
Rp3807
sV01
p3808
g2
(g6
S'\x01\x00\x00\x00'
p3809
tp3810
Rp3811
sVdevice
p3812
g2
(g6
S'\x13\x02\x00\x00'
p3813
tp3814
Rp3815
sVpayment
p3816
g2
(g6
S'9\x05\x00\x00'
p3817
tp3818
Rp3819
sVthanksgiving
p3820
g2
(g6
S';\x07\x00\x00'
p3821
tp3822
Rp3823
sVface
p3824
g2
(g6
S'\x91\x02\x00\x00'
p3825
tp3826
Rp3827
sVoccasion
p3828
g2
(g6
S'\xfd\x04\x00\x00'
p3829
tp3830
Rp3831
sVfact
p3832
g2
(g6
S'\x92\x02\x00\x00'
p3833
tp3834
Rp3835
sVtext
p3836
g2
(g6
S'6\x07\x00\x00'
p3837
tp3838
Rp3839
sVbring
p3840
g2
(g6
S'\xf9\x00\x00\x00'
p3841
tp3842
Rp3843
sVrough
p3844
g2
(g6
S'\x11\x06\x00\x00'
p3845
tp3846
Rp3847
sVinspiring
p3848
g2
(g6
S'\xb3\x03\x00\x00'
p3849
tp3850
Rp3851
sVcoloring
p3852
g2
(g6
S'\x87\x01\x00\x00'
p3853
tp3854
Rp3855
sVjaw
p3856
g2
(g6
S'\xd9\x03\x00\x00'
p3857
tp3858
Rp3859
sVhope
p3860
g2
(g6
S'{\x03\x00\x00'
p3861
tp3862
Rp3863
sVhandle
p3864
g2
(g6
S'C\x03\x00\x00'
p3865
tp3866
Rp3867
sVmeans
p3868
g2
(g6
S'\x85\x04\x00\x00'
p3869
tp3870
Rp3871
sVbeat
p3872
g2
(g6
S'\xb6\x00\x00\x00'
p3873
tp3874
Rp3875
sVrush
p3876
g2
(g6
S'\x1f\x06\x00\x00'
p3877
tp3878
Rp3879
sVbear
p3880
g2
(g6
S'\xb4\x00\x00\x00'
p3881
tp3882
Rp3883
sVsmash
p3884
g2
(g6
S'\x9e\x06\x00\x00'
p3885
tp3886
Rp3887
sVcalling
p3888
g2
(g6
S'\x19\x01\x00\x00'
p3889
tp3890
Rp3891
sVstuff
p3892
g2
(g6
S'\xf7\x06\x00\x00'
p3893
tp3894
Rp3895
sVussernms
p3896
g2
(g6
S'\xba\x07\x00\x00'
p3897
tp3898
Rp3899
sVlooks
p3900
g2
(g6
S'N\x04\x00\x00'
p3901
tp3902
Rp3903
sVnational
p3904
g2
(g6
S'\xdc\x04\x00\x00'
p3905
tp3906
Rp3907
sVmakers
p3908
g2
(g6
S'i\x04\x00\x00'
p3909
tp3910
Rp3911
sVedition
p3912
g2
(g6
S'U\x02\x00\x00'
p3913
tp3914
Rp3915
sVenhanced
p3916
g2
(g6
S'j\x02\x00\x00'
p3917
tp3918
Rp3919
sVawaits
p3920
g2
(g6
S'\x98\x00\x00\x00'
p3921
tp3922
Rp3923
sVjurassic
p3924
g2
(g6
S'\xe8\x03\x00\x00'
p3925
tp3926
Rp3927
sVroutine
p3928
g2
(g6
S'\x16\x06\x00\x00'
p3929
tp3930
Rp3931
sVdeliver
p3932
g2
(g6
S'\x02\x02\x00\x00'
p3933
tp3934
Rp3935
sVinterchangeable
p3936
g2
(g6
S'\xbb\x03\x00\x00'
p3937
tp3938
Rp3939
sVlegit
p3940
g2
(g6
S'$\x04\x00\x00'
p3941
tp3942
Rp3943
sVetn
p3944
g2
(g6
S'y\x02\x00\x00'
p3945
tp3946
Rp3947
sVbose
p3948
g2
(g6
S'\xe5\x00\x00\x00'
p3949
tp3950
Rp3951
sVbatcave
p3952
g2
(g6
S'\xad\x00\x00\x00'
p3953
tp3954
Rp3955
sVcurtain
p3956
g2
(g6
S'\xd7\x01\x00\x00'
p3957
tp3958
Rp3959
sVimprove
p3960
g2
(g6
S'\x9c\x03\x00\x00'
p3961
tp3962
Rp3963
sVultra
p3964
g2
(g6
S'\x9f\x07\x00\x00'
p3965
tp3966
Rp3967
sVve
p3968
g2
(g6
S'\xbd\x07\x00\x00'
p3969
tp3970
Rp3971
sVpascoe
p3972
g2
(g6
S'2\x05\x00\x00'
p3973
tp3974
Rp3975
sVvr
p3976
g2
(g6
S'\xcb\x07\x00\x00'
p3977
tp3978
Rp3979
sVvs
p3980
g2
(g6
S'\xcc\x07\x00\x00'
p3981
tp3982
Rp3983
sVarabic
p3984
g2
(g6
S'~\x00\x00\x00'
p3985
tp3986
Rp3987
sVproductivity
p3988
g2
(g6
S'\x9c\x05\x00\x00'
p3989
tp3990
Rp3991
sVandroid
p3992
g2
(g6
S'm\x00\x00\x00'
p3993
tp3994
Rp3995
sVball
p3996
g2
(g6
S'\xa2\x00\x00\x00'
p3997
tp3998
Rp3999
sVios
p4000
g2
(g6
S'\xc2\x03\x00\x00'
p4001
tp4002
Rp4003
sVcenter
p4004
g2
(g6
S'?\x01\x00\x00'
p4005
tp4006
Rp4007
sVbuilder
p4008
g2
(g6
S'\x03\x01\x00\x00'
p4009
tp4010
Rp4011
sVthought
p4012
g2
(g6
S'I\x07\x00\x00'
p4013
tp4014
Rp4015
sVsets
p4016
g2
(g6
S'`\x06\x00\x00'
p4017
tp4018
Rp4019
sVcreators
p4020
g2
(g6
S'\xca\x01\x00\x00'
p4021
tp4022
Rp4023
sVlatest
p4024
g2
(g6
S'\x0e\x04\x00\x00'
p4025
tp4026
Rp4027
sVbananas
p4028
g2
(g6
S'\xa6\x00\x00\x00'
p4029
tp4030
Rp4031
sVmoments
p4032
g2
(g6
S'\xba\x04\x00\x00'
p4033
tp4034
Rp4035
sVseats
p4036
g2
(g6
S'J\x06\x00\x00'
p4037
tp4038
Rp4039
sVweb
p4040
g2
(g6
S'\xe3\x07\x00\x00'
p4041
tp4042
Rp4043
sVads
p4044
g2
(g6
S'T\x00\x00\x00'
p4045
tp4046
Rp4047
sVpodcast
p4048
g2
(g6
S'p\x05\x00\x00'
p4049
tp4050
Rp4051
sVadd
p4052
g2
(g6
S'L\x00\x00\x00'
p4053
tp4054
Rp4055
sVadvanced
p4056
g2
(g6
S'V\x00\x00\x00'
p4057
tp4058
Rp4059
sVminimalist
p4060
g2
(g6
S'\xa6\x04\x00\x00'
p4061
tp4062
Rp4063
sVdesk
p4064
g2
(g6
S'\x0e\x02\x00\x00'
p4065
tp4066
Rp4067
sVmodems
p4068
g2
(g6
S'\xb7\x04\x00\x00'
p4069
tp4070
Rp4071
sVcrisp
p4072
g2
(g6
S'\xcc\x01\x00\x00'
p4073
tp4074
Rp4075
sVlike
p4076
g2
(g6
S'2\x04\x00\x00'
p4077
tp4078
Rp4079
sVgarage
p4080
g2
(g6
S'\xfa\x02\x00\x00'
p4081
tp4082
Rp4083
sVworks
p4084
g2
(g6
S'\x16\x08\x00\x00'
p4085
tp4086
Rp4087
sVchoosing
p4088
g2
(g6
S'c\x01\x00\x00'
p4089
tp4090
Rp4091
sVhappens
p4092
g2
(g6
S'H\x03\x00\x00'
p4093
tp4094
Rp4095
sVliterally
p4096
g2
(g6
S'=\x04\x00\x00'
p4097
tp4098
Rp4099
sVsketching
p4100
g2
(g6
S'\x8e\x06\x00\x00'
p4101
tp4102
Rp4103
sVdoes
p4104
g2
(g6
S',\x02\x00\x00'
p4105
tp4106
Rp4107
sVpassion
p4108
g2
(g6
S'3\x05\x00\x00'
p4109
tp4110
Rp4111
sVmode
p4112
g2
(g6
S'\xb6\x04\x00\x00'
p4113
tp4114
Rp4115
sVnoise
p4116
g2
(g6
S'\xf3\x04\x00\x00'
p4117
tp4118
Rp4119
sVselecting
p4120
g2
(g6
S'S\x06\x00\x00'
p4121
tp4122
Rp4123
sVpressure
p4124
g2
(g6
S'\x8c\x05\x00\x00'
p4125
tp4126
Rp4127
sVhost
p4128
g2
(g6
S'}\x03\x00\x00'
p4129
tp4130
Rp4131
sVputs
p4132
g2
(g6
S'\xb2\x05\x00\x00'
p4133
tp4134
Rp4135
sVshazam
p4136
g2
(g6
S'm\x06\x00\x00'
p4137
tp4138
Rp4139
sVsocks
p4140
g2
(g6
S'\xa9\x06\x00\x00'
p4141
tp4142
Rp4143
sVguard
p4144
g2
(g6
S'8\x03\x00\x00'
p4145
tp4146
Rp4147
sV1983
p4148
g2
(g6
S'\x0c\x00\x00\x00'
p4149
tp4150
Rp4151
sVbazaar
p4152
g2
(g6
S'\xb2\x00\x00\x00'
p4153
tp4154
Rp4155
sVstainless
p4156
g2
(g6
S'\xcf\x06\x00\x00'
p4157
tp4158
Rp4159
sVpairing
p4160
g2
(g6
S"'\x05\x00\x00"
p4161
tp4162
Rp4163
sVbiggest
p4164
g2
(g6
S'\xc5\x00\x00\x00'
p4165
tp4166
Rp4167
sVivory
p4168
g2
(g6
S'\xd3\x03\x00\x00'
p4169
tp4170
Rp4171
sVbuy
p4172
g2
(g6
S'\x12\x01\x00\x00'
p4173
tp4174
Rp4175
sVbrand
p4176
g2
(g6
S'\xeb\x00\x00\x00'
p4177
tp4178
Rp4179
sVsequel
p4180
g2
(g6
S'[\x06\x00\x00'
p4181
tp4182
Rp4183
sVbooked
p4184
g2
(g6
S'\xde\x00\x00\x00'
p4185
tp4186
Rp4187
sVdelivery
p4188
g2
(g6
S'\x06\x02\x00\x00'
p4189
tp4190
Rp4191
sVpantry
p4192
g2
(g6
S'+\x05\x00\x00'
p4193
tp4194
Rp4195
sVdelivers
p4196
g2
(g6
S'\x05\x02\x00\x00'
p4197
tp4198
Rp4199
sVcount
p4200
g2
(g6
S'\xb6\x01\x00\x00'
p4201
tp4202
Rp4203
sVwise
p4204
g2
(g6
S'\xfc\x07\x00\x00'
p4205
tp4206
Rp4207
sVplaces
p4208
g2
(g6
S'^\x05\x00\x00'
p4209
tp4210
Rp4211
sVofficial
p4212
g2
(g6
S'\x03\x05\x00\x00'
p4213
tp4214
Rp4215
sVflip
p4216
g2
(g6
S'\xca\x02\x00\x00'
p4217
tp4218
Rp4219
sVproblem
p4220
g2
(g6
S'\x97\x05\x00\x00'
p4221
tp4222
Rp4223
sVminutes
p4224
g2
(g6
S'\xaa\x04\x00\x00'
p4225
tp4226
Rp4227
sVirish
p4228
g2
(g6
S'\xc9\x03\x00\x00'
p4229
tp4230
Rp4231
sVnarwal
p4232
g2
(g6
S'\xd9\x04\x00\x00'
p4233
tp4234
Rp4235
sVrecognize
p4236
g2
(g6
S'\xdb\x05\x00\x00'
p4237
tp4238
Rp4239
sVsmartphones
p4240
g2
(g6
S'\x9c\x06\x00\x00'
p4241
tp4242
Rp4243
sVpie
p4244
g2
(g6
S'W\x05\x00\x00'
p4245
tp4246
Rp4247
sVreplica
p4248
g2
(g6
S'\xf0\x05\x00\x00'
p4249
tp4250
Rp4251
sVdawson
p4252
g2
(g6
S'\xf1\x01\x00\x00'
p4253
tp4254
Rp4255
sVing
p4256
g2
(g6
S'\xa8\x03\x00\x00'
p4257
tp4258
Rp4259
sV48
p4260
g2
(g6
S'*\x00\x00\x00'
p4261
tp4262
Rp4263
sV49
p4264
g2
(g6
S'+\x00\x00\x00'
p4265
tp4266
Rp4267
sV45
p4268
g2
(g6
S')\x00\x00\x00'
p4269
tp4270
Rp4271
sV40
p4272
g2
(g6
S"'\x00\x00\x00"
p4273
tp4274
Rp4275
sV41
p4276
g2
(g6
S'(\x00\x00\x00'
p4277
tp4278
Rp4279
sVdetails
p4280
g2
(g6
S'\x12\x02\x00\x00'
p4281
tp4282
Rp4283
sVebooks
p4284
g2
(g6
S'S\x02\x00\x00'
p4285
tp4286
Rp4287
sVrepeat
p4288
g2
(g6
S'\xef\x05\x00\x00'
p4289
tp4290
Rp4291
sVmonday
p4292
g2
(g6
S'\xbb\x04\x00\x00'
p4293
tp4294
Rp4295
sVclass
p4296
g2
(g6
S'k\x01\x00\x00'
p4297
tp4298
Rp4299
sVbundle
p4300
g2
(g6
S'\x07\x01\x00\x00'
p4301
tp4302
Rp4303
sVchance
p4304
g2
(g6
S'H\x01\x00\x00'
p4305
tp4306
Rp4307
sVgoin
p4308
g2
(g6
S'\x1b\x03\x00\x00'
p4309
tp4310
Rp4311
sVsearches
p4312
g2
(g6
S'F\x06\x00\x00'
p4313
tp4314
Rp4315
sVrule
p4316
g2
(g6
S'\x1a\x06\x00\x00'
p4317
tp4318
Rp4319
sV4k
p4320
g2
(g6
S',\x00\x00\x00'
p4321
tp4322
Rp4323
sVsearched
p4324
g2
(g6
S'E\x06\x00\x00'
p4325
tp4326
Rp4327
sVrural
p4328
g2
(g6
S'\x1e\x06\x00\x00'
p4329
tp4330
Rp4331
sVlimited
p4332
g2
(g6
S'4\x04\x00\x00'
p4333
tp4334
Rp4335
sVkickstart
p4336
g2
(g6
S'\xf4\x03\x00\x00'
p4337
tp4338
Rp4339
sVimmersive
p4340
g2
(g6
S'\x98\x03\x00\x00'
p4341
tp4342
Rp4343
sVnursery
p4344
g2
(g6
S'\xfa\x04\x00\x00'
p4345
tp4346
Rp4347
sVsleep
p4348
g2
(g6
S'\x95\x06\x00\x00'
p4349
tp4350
Rp4351
sVappetite
p4352
g2
(g6
S'z\x00\x00\x00'
p4353
tp4354
Rp4355
sVforget
p4356
g2
(g6
S'\xd6\x02\x00\x00'
p4357
tp4358
Rp4359
sVvotes
p4360
g2
(g6
S'\xca\x07\x00\x00'
p4361
tp4362
Rp4363
sVparis
p4364
g2
(g6
S'.\x05\x00\x00'
p4365
tp4366
Rp4367
sVtweet
p4368
g2
(g6
S'\x99\x07\x00\x00'
p4369
tp4370
Rp4371
sVbike
p4372
g2
(g6
S'\xc6\x00\x00\x00'
p4373
tp4374
Rp4375
sVworth
p4376
g2
(g6
S'\x1b\x08\x00\x00'
p4377
tp4378
Rp4379
sVblanket
p4380
g2
(g6
S'\xd1\x00\x00\x00'
p4381
tp4382
Rp4383
sVrise
p4384
g2
(g6
S'\x05\x06\x00\x00'
p4385
tp4386
Rp4387
sVjack
p4388
g2
(g6
S'\xd4\x03\x00\x00'
p4389
tp4390
Rp4391
sVschool
p4392
g2
(g6
S'7\x06\x00\x00'
p4393
tp4394
Rp4395
sVartist
p4396
g2
(g6
S'\x8c\x00\x00\x00'
p4397
tp4398
Rp4399
sVenjoy
p4400
g2
(g6
S'k\x02\x00\x00'
p4401
tp4402
Rp4403
sVphones
p4404
g2
(g6
S'L\x05\x00\x00'
p4405
tp4406
Rp4407
sVchef
p4408
g2
(g6
S'Y\x01\x00\x00'
p4409
tp4410
Rp4411
sVstreet
p4412
g2
(g6
S'\xf1\x06\x00\x00'
p4413
tp4414
Rp4415
sVsupplies
p4416
g2
(g6
S'\x05\x07\x00\x00'
p4417
tp4418
Rp4419
sVofficially
p4420
g2
(g6
S'\x04\x05\x00\x00'
p4421
tp4422
Rp4423
sVdisney
p4424
g2
(g6
S'$\x02\x00\x00'
p4425
tp4426
Rp4427
sVpluto
p4428
g2
(g6
S'm\x05\x00\x00'
p4429
tp4430
Rp4431
sVpursuit
p4432
g2
(g6
S'\xb0\x05\x00\x00'
p4433
tp4434
Rp4435
sVcelebration
p4436
g2
(g6
S'>\x01\x00\x00'
p4437
tp4438
Rp4439
sVitems
p4440
g2
(g6
S'\xd0\x03\x00\x00'
p4441
tp4442
Rp4443
sVakc
p4444
g2
(g6
S'a\x00\x00\x00'
p4445
tp4446
Rp4447
sVwalkie
p4448
g2
(g6
S'\xd1\x07\x00\x00'
p4449
tp4450
Rp4451
sVsecure
p4452
g2
(g6
S'O\x06\x00\x00'
p4453
tp4454
Rp4455
sVspooky
p4456
g2
(g6
S'\xc6\x06\x00\x00'
p4457
tp4458
Rp4459
sVbrb
p4460
g2
(g6
S'\xee\x00\x00\x00'
p4461
tp4462
Rp4463
sVsweater
p4464
g2
(g6
S'\x0e\x07\x00\x00'
p4465
tp4466
Rp4467
sVfoster
p4468
g2
(g6
S'\xdd\x02\x00\x00'
p4469
tp4470
Rp4471
sVbreathe
p4472
g2
(g6
S'\xf3\x00\x00\x00'
p4473
tp4474
Rp4475
sVpic
p4476
g2
(g6
S'R\x05\x00\x00'
p4477
tp4478
Rp4479
sVaward
p4480
g2
(g6
S'\x99\x00\x00\x00'
p4481
tp4482
Rp4483
sVphone
p4484
g2
(g6
S'K\x05\x00\x00'
p4485
tp4486
Rp4487
sVjoin
p4488
g2
(g6
S'\xdf\x03\x00\x00'
p4489
tp4490
Rp4491
sVmo
p4492
g2
(g6
S'\xb4\x04\x00\x00'
p4493
tp4494
Rp4495
sVwork
p4496
g2
(g6
S'\x13\x08\x00\x00'
p4497
tp4498
Rp4499
sVgadgets
p4500
g2
(g6
S'\xf2\x02\x00\x00'
p4501
tp4502
Rp4503
sVguarantee
p4504
g2
(g6
S'7\x03\x00\x00'
p4505
tp4506
Rp4507
sVend
p4508
g2
(g6
S'f\x02\x00\x00'
p4509
tp4510
Rp4511
sVfinalist
p4512
g2
(g6
S'\xbd\x02\x00\x00'
p4513
tp4514
Rp4515
sVent
p4516
g2
(g6
S'm\x02\x00\x00'
p4517
tp4518
Rp4519
sVinterview
p4520
g2
(g6
S'\xbf\x03\x00\x00'
p4521
tp4522
Rp4523
sVcharging
p4524
g2
(g6
S'P\x01\x00\x00'
p4525
tp4526
Rp4527
sVpizza
p4528
g2
(g6
S'\\\x05\x00\x00'
p4529
tp4530
Rp4531
sVtransforming
p4532
g2
(g6
S'p\x07\x00\x00'
p4533
tp4534
Rp4535
sVlax
p4536
g2
(g6
S'\x13\x04\x00\x00'
p4537
tp4538
Rp4539
sVmeaningful
p4540
g2
(g6
S'\x84\x04\x00\x00'
p4541
tp4542
Rp4543
sVselfies
p4544
g2
(g6
S'V\x06\x00\x00'
p4545
tp4546
Rp4547
sVdaredevil
p4548
g2
(g6
S'\xed\x01\x00\x00'
p4549
tp4550
Rp4551
sVultimate
p4552
g2
(g6
S'\x9e\x07\x00\x00'
p4553
tp4554
Rp4555
sVnarcos
p4556
g2
(g6
S'\xd8\x04\x00\x00'
p4557
tp4558
Rp4559
sVenter
p4560
g2
(g6
S'n\x02\x00\x00'
p4561
tp4562
Rp4563
sVfan
p4564
g2
(g6
S'\x98\x02\x00\x00'
p4565
tp4566
Rp4567
sVorder
p4568
g2
(g6
S'\x14\x05\x00\x00'
p4569
tp4570
Rp4571
sVoffice
p4572
g2
(g6
S'\x02\x05\x00\x00'
p4573
tp4574
Rp4575
sVlondon
p4576
g2
(g6
S'H\x04\x00\x00'
p4577
tp4578
Rp4579
sVonesies
p4580
g2
(g6
S'\x0b\x05\x00\x00'
p4581
tp4582
Rp4583
sVhighlights
p4584
g2
(g6
S'j\x03\x00\x00'
p4585
tp4586
Rp4587
sVexpectations
p4588
g2
(g6
S'\x83\x02\x00\x00'
p4589
tp4590
Rp4591
sVwriting
p4592
g2
(g6
S'!\x08\x00\x00'
p4593
tp4594
Rp4595
sVpowerful
p4596
g2
(g6
S'\x82\x05\x00\x00'
p4597
tp4598
Rp4599
sVsafe
p4600
g2
(g6
S' \x06\x00\x00'
p4601
tp4602
Rp4603
sVcollide
p4604
g2
(g6
S'\x84\x01\x00\x00'
p4605
tp4606
Rp4607
sVbreak
p4608
g2
(g6
S'\xef\x00\x00\x00'
p4609
tp4610
Rp4611
sVband
p4612
g2
(g6
S'\xa7\x00\x00\x00'
p4613
tp4614
Rp4615
sVrocks
p4616
g2
(g6
S'\x0b\x06\x00\x00'
p4617
tp4618
Rp4619
sVfitness
p4620
g2
(g6
S'\xc5\x02\x00\x00'
p4621
tp4622
Rp4623
sVlogs
p4624
g2
(g6
S'G\x04\x00\x00'
p4625
tp4626
Rp4627
sVmeets
p4628
g2
(g6
S'\x88\x04\x00\x00'
p4629
tp4630
Rp4631
sVcelebrating
p4632
g2
(g6
S'=\x01\x00\x00'
p4633
tp4634
Rp4635
sVsaturday
p4636
g2
(g6
S'+\x06\x00\x00'
p4637
tp4638
Rp4639
sVforts
p4640
g2
(g6
S'\xdb\x02\x00\x00'
p4641
tp4642
Rp4643
sVcameras
p4644
g2
(g6
S'\x1f\x01\x00\x00'
p4645
tp4646
Rp4647
sVmonitor
p4648
g2
(g6
S'\xbe\x04\x00\x00'
p4649
tp4650
Rp4651
sVdaniel
p4652
g2
(g6
S'\xeb\x01\x00\x00'
p4653
tp4654
Rp4655
sVgot
p4656
g2
(g6
S"'\x03\x00\x00"
p4657
tp4658
Rp4659
sVleftovers
p4660
g2
(g6
S'!\x04\x00\x00'
p4661
tp4662
Rp4663
sVfree
p4664
g2
(g6
S'\xde\x02\x00\x00'
p4665
tp4666
Rp4667
sVstandard
p4668
g2
(g6
S'\xd1\x06\x00\x00'
p4669
tp4670
Rp4671
sVmasterpiece
p4672
g2
(g6
S'{\x04\x00\x00'
p4673
tp4674
Rp4675
sVwanted
p4676
g2
(g6
S'\xd6\x07\x00\x00'
p4677
tp4678
Rp4679
sVcertified
p4680
g2
(g6
S'C\x01\x00\x00'
p4681
tp4682
Rp4683
sVcreated
p4684
g2
(g6
S'\xc5\x01\x00\x00'
p4685
tp4686
Rp4687
sVdays
p4688
g2
(g6
S'\xf3\x01\x00\x00'
p4689
tp4690
Rp4691
sVcoding
p4692
g2
(g6
S'}\x01\x00\x00'
p4693
tp4694
Rp4695
sVfantasy
p4696
g2
(g6
S'\x9d\x02\x00\x00'
p4697
tp4698
Rp4699
sVdelicious
p4700
g2
(g6
S'\x01\x02\x00\x00'
p4701
tp4702
Rp4703
sVdrones
p4704
g2
(g6
S'G\x02\x00\x00'
p4705
tp4706
Rp4707
sVcomic
p4708
g2
(g6
S'\x8c\x01\x00\x00'
p4709
tp4710
Rp4711
sVtoy
p4712
g2
(g6
S'e\x07\x00\x00'
p4713
tp4714
Rp4715
sVbitcoin
p4716
g2
(g6
S'\xcd\x00\x00\x00'
p4717
tp4718
Rp4719
sVtune
p4720
g2
(g6
S'\x8d\x07\x00\x00'
p4721
tp4722
Rp4723
sVdogs
p4724
g2
(g6
S'0\x02\x00\x00'
p4725
tp4726
Rp4727
sVurban
p4728
g2
(g6
S'\xb0\x07\x00\x00'
p4729
tp4730
Rp4731
sVonhub
p4732
g2
(g6
S'\r\x05\x00\x00'
p4733
tp4734
Rp4735
sVtook
p4736
g2
(g6
S'_\x07\x00\x00'
p4737
tp4738
Rp4739
sVburger
p4740
g2
(g6
S'\x08\x01\x00\x00'
p4741
tp4742
Rp4743
sVscenes
p4744
g2
(g6
S'6\x06\x00\x00'
p4745
tp4746
Rp4747
sViron
p4748
g2
(g6
S'\xca\x03\x00\x00'
p4749
tp4750
Rp4751
sVwith42
p4752
g2
(g6
S'\x00\x08\x00\x00'
p4753
tp4754
Rp4755
sVbridge
p4756
g2
(g6
S'\xf5\x00\x00\x00'
p4757
tp4758
Rp4759
sVfashion
p4760
g2
(g6
S'\x9f\x02\x00\x00'
p4761
tp4762
Rp4763
sVnavigate
p4764
g2
(g6
S'\xdf\x04\x00\x00'
p4765
tp4766
Rp4767
sVspade
p4768
g2
(g6
S'\xb8\x06\x00\x00'
p4769
tp4770
Rp4771
sVray
p4772
g2
(g6
S'\xcc\x05\x00\x00'
p4773
tp4774
Rp4775
sVgenuine
p4776
g2
(g6
S'\x00\x03\x00\x00'
p4777
tp4778
Rp4779
sVsnow
p4780
g2
(g6
S'\xa7\x06\x00\x00'
p4781
tp4782
Rp4783
sVluxury
p4784
g2
(g6
S'`\x04\x00\x00'
p4785
tp4786
Rp4787
sVforces
p4788
g2
(g6
S'\xd3\x02\x00\x00'
p4789
tp4790
Rp4791
sVbruce
p4792
g2
(g6
S'\x00\x01\x00\x00'
p4793
tp4794
Rp4795
sVglow
p4796
g2
(g6
S'\x15\x03\x00\x00'
p4797
tp4798
Rp4799
sVtreats
p4800
g2
(g6
S'z\x07\x00\x00'
p4801
tp4802
Rp4803
sVmetal
p4804
g2
(g6
S'\x96\x04\x00\x00'
p4805
tp4806
Rp4807
sVyang
p4808
g2
(g6
S'&\x08\x00\x00'
p4809
tp4810
Rp4811
sVregistrants
p4812
g2
(g6
S'\xe3\x05\x00\x00'
p4813
tp4814
Rp4815
sVdesktops
p4816
g2
(g6
S'\x10\x02\x00\x00'
p4817
tp4818
Rp4819
sVinspire
p4820
g2
(g6
S'\xb1\x03\x00\x00'
p4821
tp4822
Rp4823
sVrandom
p4824
g2
(g6
S'\xc9\x05\x00\x00'
p4825
tp4826
Rp4827
sVpops
p4828
g2
(g6
S'v\x05\x00\x00'
p4829
tp4830
Rp4831
sVcolors
p4832
g2
(g6
S'\x88\x01\x00\x00'
p4833
tp4834
Rp4835
sVradio
p4836
g2
(g6
S'\xc6\x05\x00\x00'
p4837
tp4838
Rp4839
sVearth
p4840
g2
(g6
S'N\x02\x00\x00'
p4841
tp4842
Rp4843
sVd2
p4844
g2
(g6
S'\xe5\x01\x00\x00'
p4845
tp4846
Rp4847
sVhaven
p4848
g2
(g6
S'O\x03\x00\x00'
p4849
tp4850
Rp4851
sVipad
p4852
g2
(g6
S'\xc3\x03\x00\x00'
p4853
tp4854
Rp4855
sVdm
p4856
g2
(g6
S')\x02\x00\x00'
p4857
tp4858
Rp4859
sVwatch
p4860
g2
(g6
S'\xda\x07\x00\x00'
p4861
tp4862
Rp4863
sVda
p4864
g2
(g6
S'\xe6\x01\x00\x00'
p4865
tp4866
Rp4867
sVamazon
p4868
g2
(g6
S'i\x00\x00\x00'
p4869
tp4870
Rp4871
sVhaunted
p4872
g2
(g6
S'N\x03\x00\x00'
p4873
tp4874
Rp4875
sVaway
p4876
g2
(g6
S'\x9a\x00\x00\x00'
p4877
tp4878
Rp4879
sVarshads
p4880
g2
(g6
S'\x89\x00\x00\x00'
p4881
tp4882
Rp4883
sV360
p4884
g2
(g6
S'$\x00\x00\x00'
p4885
tp4886
Rp4887
sVterms
p4888
g2
(g6
S'2\x07\x00\x00'
p4889
tp4890
Rp4891
sVwi
p4892
g2
(g6
S'\xf1\x07\x00\x00'
p4893
tp4894
Rp4895
sVboss
p4896
g2
(g6
S'\xe6\x00\x00\x00'
p4897
tp4898
Rp4899
sVwear
p4900
g2
(g6
S'\xe0\x07\x00\x00'
p4901
tp4902
Rp4903
sVnews
p4904
g2
(g6
S'\xe9\x04\x00\x00'
p4905
tp4906
Rp4907
sVconvertible
p4908
g2
(g6
S'\xa7\x01\x00\x00'
p4909
tp4910
Rp4911
sVpackages
p4912
g2
(g6
S'"\x05\x00\x00'
p4913
tp4914
Rp4915
sVkitchen
p4916
g2
(g6
S'\xfe\x03\x00\x00'
p4917
tp4918
Rp4919
sVplayers
p4920
g2
(g6
S'g\x05\x00\x00'
p4921
tp4922
Rp4923
sVgames
p4924
g2
(g6
S'\xf7\x02\x00\x00'
p4925
tp4926
Rp4927
sVtrust
p4928
g2
(g6
S'\x87\x07\x00\x00'
p4929
tp4930
Rp4931
sVspeak
p4932
g2
(g6
S'\xb9\x06\x00\x00'
p4933
tp4934
Rp4935
sVbinge
p4936
g2
(g6
S'\xc8\x00\x00\x00'
p4937
tp4938
Rp4939
sVquickly
p4940
g2
(g6
S'\xbd\x05\x00\x00'
p4941
tp4942
Rp4943
sVspread
p4944
g2
(g6
S'\xcb\x06\x00\x00'
p4945
tp4946
Rp4947
sVrefurbished
p4948
g2
(g6
S'\xe1\x05\x00\x00'
p4949
tp4950
Rp4951
sVcatch
p4952
g2
(g6
S'4\x01\x00\x00'
p4953
tp4954
Rp4955
sVspritz
p4956
g2
(g6
S'\xcd\x06\x00\x00'
p4957
tp4958
Rp4959
sVtonight
p4960
g2
(g6
S'^\x07\x00\x00'
p4961
tp4962
Rp4963
sVsave
p4964
g2
(g6
S',\x06\x00\x00'
p4965
tp4966
Rp4967
sVair
p4968
g2
(g6
S'_\x00\x00\x00'
p4969
tp4970
Rp4971
sVteachers
p4972
g2
(g6
S')\x07\x00\x00'
p4973
tp4974
Rp4975
sVstopping
p4976
g2
(g6
S'\xe7\x06\x00\x00'
p4977
tp4978
Rp4979
sVvoice
p4980
g2
(g6
S'\xc7\x07\x00\x00'
p4981
tp4982
Rp4983
sVlaunched
p4984
g2
(g6
S'\x12\x04\x00\x00'
p4985
tp4986
Rp4987
sVaccessories
p4988
g2
(g6
S'A\x00\x00\x00'
p4989
tp4990
Rp4991
sVexperts
p4992
g2
(g6
S'\x87\x02\x00\x00'
p4993
tp4994
Rp4995
sVwheel
p4996
g2
(g6
S'\xed\x07\x00\x00'
p4997
tp4998
Rp4999
sVpick
p5000
g2
(g6
S'S\x05\x00\x00'
p5001
tp5002
Rp5003
sVevil
p5004
g2
(g6
S'}\x02\x00\x00'
p5005
tp5006
Rp5007
sVhand
p5008
g2
(g6
S'B\x03\x00\x00'
p5009
tp5010
Rp5011
sVcharacters
p5012
g2
(g6
S'L\x01\x00\x00'
p5013
tp5014
Rp5015
sVcharlie
p5016
g2
(g6
S'Q\x01\x00\x00'
p5017
tp5018
Rp5019
sVcongrats
p5020
g2
(g6
S'\x97\x01\x00\x00'
p5021
tp5022
Rp5023
sVsavings
p5024
g2
(g6
S'/\x06\x00\x00'
p5025
tp5026
Rp5027
sVgreatest
p5028
g2
(g6
S'/\x03\x00\x00'
p5029
tp5030
Rp5031
sValarms
p5032
g2
(g6
S'b\x00\x00\x00'
p5033
tp5034
Rp5035
sVphoto
p5036
g2
(g6
S'M\x05\x00\x00'
p5037
tp5038
Rp5039
sVthanks
p5040
g2
(g6
S':\x07\x00\x00'
p5041
tp5042
Rp5043
sVadding
p5044
g2
(g6
S'N\x00\x00\x00'
p5045
tp5046
Rp5047
sVphotographer
p5048
g2
(g6
S'N\x05\x00\x00'
p5049
tp5050
Rp5051
sVboard
p5052
g2
(g6
S'\xd6\x00\x00\x00'
p5053
tp5054
Rp5055
sVbubbly
p5056
g2
(g6
S'\x01\x01\x00\x00'
p5057
tp5058
Rp5059
sVgifs
p5060
g2
(g6
S'\t\x03\x00\x00'
p5061
tp5062
Rp5063
sVbands
p5064
g2
(g6
S'\xa8\x00\x00\x00'
p5065
tp5066
Rp5067
sVbreaks
p5068
g2
(g6
S'\xf2\x00\x00\x00'
p5069
tp5070
Rp5071
sVxs
p5072
g2
(g6
S'%\x08\x00\x00'
p5073
tp5074
Rp5075
sVboxes
p5076
g2
(g6
S'\xe9\x00\x00\x00'
p5077
tp5078
Rp5079
sVdesigners
p5080
g2
(g6
S'\x0c\x02\x00\x00'
p5081
tp5082
Rp5083
sVninjas
p5084
g2
(g6
S'\xf2\x04\x00\x00'
p5085
tp5086
Rp5087
sVtrivia
p5088
g2
(g6
S'\x84\x07\x00\x00'
p5089
tp5090
Rp5091
sV59
p5092
g2
(g6
S'0\x00\x00\x00'
p5093
tp5094
Rp5095
sVgift
p5096
g2
(g6
S'\n\x03\x00\x00'
p5097
tp5098
Rp5099
sV55
p5100
g2
(g6
S'/\x00\x00\x00'
p5101
tp5102
Rp5103
sVhunt
p5104
g2
(g6
S'\x8d\x03\x00\x00'
p5105
tp5106
Rp5107
sV50
p5108
g2
(g6
S'-\x00\x00\x00'
p5109
tp5110
Rp5111
sV53
p5112
g2
(g6
S'.\x00\x00\x00'
p5113
tp5114
Rp5115
sVxbox
p5116
g2
(g6
S'#\x08\x00\x00'
p5117
tp5118
Rp5119
sVnight
p5120
g2
(g6
S'\xef\x04\x00\x00'
p5121
tp5122
Rp5123
sVsecurity
p5124
g2
(g6
S'P\x06\x00\x00'
p5125
tp5126
Rp5127
sVmazes
p5128
g2
(g6
S'\x81\x04\x00\x00'
p5129
tp5130
Rp5131
sVenvision
p5132
g2
(g6
S'r\x02\x00\x00'
p5133
tp5134
Rp5135
sVborn
p5136
g2
(g6
S'\xe4\x00\x00\x00'
p5137
tp5138
Rp5139
sVdonald
p5140
g2
(g6
S'3\x02\x00\x00'
p5141
tp5142
Rp5143
sVtheyre
p5144
g2
(g6
S'B\x07\x00\x00'
p5145
tp5146
Rp5147
sVdoorstep
p5148
g2
(g6
S'7\x02\x00\x00'
p5149
tp5150
Rp5151
sVwithussernm
p5152
g2
(g6
S'\x07\x08\x00\x00'
p5153
tp5154
Rp5155
sVice
p5156
g2
(g6
S'\x8f\x03\x00\x00'
p5157
tp5158
Rp5159
sVadorable
p5160
g2
(g6
S'R\x00\x00\x00'
p5161
tp5162
Rp5163
sVchristmas
p5164
g2
(g6
S'd\x01\x00\x00'
p5165
tp5166
Rp5167
sVcord
p5168
g2
(g6
S'\xb0\x01\x00\x00'
p5169
tp5170
Rp5171
sVpeek
p5172
g2
(g6
S'>\x05\x00\x00'
p5173
tp5174
Rp5175
sVcorn
p5176
g2
(g6
S'\xb1\x01\x00\x00'
p5177
tp5178
Rp5179
sVpost
p5180
g2
(g6
S'{\x05\x00\x00'
p5181
tp5182
Rp5183
sVplug
p5184
g2
(g6
S'k\x05\x00\x00'
p5185
tp5186
Rp5187
sVmonths
p5188
g2
(g6
S'\xc2\x04\x00\x00'
p5189
tp5190
Rp5191
sVdinner
p5192
g2
(g6
S'\x1c\x02\x00\x00'
p5193
tp5194
Rp5195
sVensure
p5196
g2
(g6
S'l\x02\x00\x00'
p5197
tp5198
Rp5199
sVpuzzle
p5200
g2
(g6
S'\xb3\x05\x00\x00'
p5201
tp5202
Rp5203
sVtransform
p5204
g2
(g6
S'o\x07\x00\x00'
p5205
tp5206
Rp5207
sVfight
p5208
g2
(g6
S'\xb6\x02\x00\x00'
p5209
tp5210
Rp5211
sVgif
p5212
g2
(g6
S'\x08\x03\x00\x00'
p5213
tp5214
Rp5215
sVway
p5216
g2
(g6
S'\xde\x07\x00\x00'
p5217
tp5218
Rp5219
sVeditions
p5220
g2
(g6
S'V\x02\x00\x00'
p5221
tp5222
Rp5223
sVwar
p5224
g2
(g6
S'\xd7\x07\x00\x00'
p5225
tp5226
Rp5227
sVhead
p5228
g2
(g6
S'R\x03\x00\x00'
p5229
tp5230
Rp5231
sVwireless
p5232
g2
(g6
S'\xfb\x07\x00\x00'
p5233
tp5234
Rp5235
sVhear
p5236
g2
(g6
S'W\x03\x00\x00'
p5237
tp5238
Rp5239
sVsolar
p5240
g2
(g6
S'\xaa\x06\x00\x00'
p5241
tp5242
Rp5243
sVtrue
p5244
g2
(g6
S'\x86\x07\x00\x00'
p5245
tp5246
Rp5247
sVreset
p5248
g2
(g6
S'\xf6\x05\x00\x00'
p5249
tp5250
Rp5251
sVunboxing
p5252
g2
(g6
S'\xa0\x07\x00\x00'
p5253
tp5254
Rp5255
sVcomputing
p5256
g2
(g6
S'\x96\x01\x00\x00'
p5257
tp5258
Rp5259
sVhhttg
p5260
g2
(g6
S'd\x03\x00\x00'
p5261
tp5262
Rp5263
sVkaufman
p5264
g2
(g6
S'\xeb\x03\x00\x00'
p5265
tp5266
Rp5267
sVkingdom
p5268
g2
(g6
S'\xfd\x03\x00\x00'
p5269
tp5270
Rp5271
sVshines
p5272
g2
(g6
S'r\x06\x00\x00'
p5273
tp5274
Rp5275
sVtrip
p5276
g2
(g6
S'\x83\x07\x00\x00'
p5277
tp5278
Rp5279
sVskullcandy
p5280
g2
(g6
S'\x93\x06\x00\x00'
p5281
tp5282
Rp5283
sVtip
p5284
g2
(g6
S'T\x07\x00\x00'
p5285
tp5286
Rp5287
sVtis
p5288
g2
(g6
S'V\x07\x00\x00'
p5289
tp5290
Rp5291
sVtil
p5292
g2
(g6
S'O\x07\x00\x00'
p5293
tp5294
Rp5295
sVwhey
p5296
g2
(g6
S'\xee\x07\x00\x00'
p5297
tp5298
Rp5299
sVrealize
p5300
g2
(g6
S'\xd4\x05\x00\x00'
p5301
tp5302
Rp5303
sVpicture
p5304
g2
(g6
S'V\x05\x00\x00'
p5305
tp5306
Rp5307
sVwelcome
p5308
g2
(g6
S'\xe9\x07\x00\x00'
p5309
tp5310
Rp5311
sVupdate
p5312
g2
(g6
S'\xab\x07\x00\x00'
p5313
tp5314
Rp5315
sVfaster
p5316
g2
(g6
S'\xa1\x02\x00\x00'
p5317
tp5318
Rp5319
sVlineup
p5320
g2
(g6
S'8\x04\x00\x00'
p5321
tp5322
Rp5323
sVsongs
p5324
g2
(g6
S'\xad\x06\x00\x00'
p5325
tp5326
Rp5327
sVdance
p5328
g2
(g6
S'\xe9\x01\x00\x00'
p5329
tp5330
Rp5331
sVleads
p5332
g2
(g6
S'\x17\x04\x00\x00'
p5333
tp5334
Rp5335
sVbattle
p5336
g2
(g6
S'\xaf\x00\x00\x00'
p5337
tp5338
Rp5339
sVrecharge
p5340
g2
(g6
S'\xd8\x05\x00\x00'
p5341
tp5342
Rp5343
sVessentials
p5344
g2
(g6
S'w\x02\x00\x00'
p5345
tp5346
Rp5347
sVzone
p5348
g2
(g6
S'4\x08\x00\x00'
p5349
tp5350
Rp5351
sVcharge
p5352
g2
(g6
S'M\x01\x00\x00'
p5353
tp5354
Rp5355
sVbrown
p5356
g2
(g6
S'\xfe\x00\x00\x00'
p5357
tp5358
Rp5359
sVadvantage
p5360
g2
(g6
S'W\x00\x00\x00'
p5361
tp5362
Rp5363
sVvegas
p5364
g2
(g6
S'\xbe\x07\x00\x00'
p5365
tp5366
Rp5367
sVkitchenaid
p5368
g2
(g6
S'\xff\x03\x00\x00'
p5369
tp5370
Rp5371
sVblast
p5372
g2
(g6
S'\xd2\x00\x00\x00'
p5373
tp5374
Rp5375
sVcool
p5376
g2
(g6
S'\xac\x01\x00\x00'
p5377
tp5378
Rp5379
sVlooney
p5380
g2
(g6
S'P\x04\x00\x00'
p5381
tp5382
Rp5383
sVlevel
p5384
g2
(g6
S'*\x04\x00\x00'
p5385
tp5386
Rp5387
sVturns
p5388
g2
(g6
S'\x96\x07\x00\x00'
p5389
tp5390
Rp5391
sVpuppy
p5392
g2
(g6
S'\xaa\x05\x00\x00'
p5393
tp5394
Rp5395
sVgrilled
p5396
g2
(g6
S'1\x03\x00\x00'
p5397
tp5398
Rp5399
sVquick
p5400
g2
(g6
S'\xbc\x05\x00\x00'
p5401
tp5402
Rp5403
sVguy
p5404
g2
(g6
S'=\x03\x00\x00'
p5405
tp5406
Rp5407
sVrevolution
p5408
g2
(g6
S'\xfe\x05\x00\x00'
p5409
tp5410
Rp5411
sVsays
p5412
g2
(g6
S'2\x06\x00\x00'
p5413
tp5414
Rp5415
sVtrend
p5416
g2
(g6
S'~\x07\x00\x00'
p5417
tp5418
Rp5419
sVdiscover
p5420
g2
(g6
S'"\x02\x00\x00'
p5421
tp5422
Rp5423
sVcyber
p5424
g2
(g6
S'\xe4\x01\x00\x00'
p5425
tp5426
Rp5427
sVdried
p5428
g2
(g6
S'A\x02\x00\x00'
p5429
tp5430
Rp5431
sVfear
p5432
g2
(g6
S'\xa6\x02\x00\x00'
p5433
tp5434
Rp5435
sVdrinks
p5436
g2
(g6
S'C\x02\x00\x00'
p5437
tp5438
Rp5439
sVcroft
p5440
g2
(g6
S'\xce\x01\x00\x00'
p5441
tp5442
Rp5443
sVbarbie
p5444
g2
(g6
S'\xa9\x00\x00\x00'
p5445
tp5446
Rp5447
sVwolff
p5448
g2
(g6
S'\t\x08\x00\x00'
p5449
tp5450
Rp5451
sVgoes
p5452
g2
(g6
S'\x1a\x03\x00\x00'
p5453
tp5454
Rp5455
sVreply
p5456
g2
(g6
S'\xf1\x05\x00\x00'
p5457
tp5458
Rp5459
sVwater
p5460
g2
(g6
S'\xdd\x07\x00\x00'
p5461
tp5462
Rp5463
sVchange
p5464
g2
(g6
S'I\x01\x00\x00'
p5465
tp5466
Rp5467
sVhealthy
p5468
g2
(g6
S'V\x03\x00\x00'
p5469
tp5470
Rp5471
sVcinnamon
p5472
g2
(g6
S'g\x01\x00\x00'
p5473
tp5474
Rp5475
sVextra
p5476
g2
(g6
S'\x8f\x02\x00\x00'
p5477
tp5478
Rp5479
sV1st
p5480
g2
(g6
S'\r\x00\x00\x00'
p5481
tp5482
Rp5483
sVmarket
p5484
g2
(g6
S'v\x04\x00\x00'
p5485
tp5486
Rp5487
sVbuttons
p5488
g2
(g6
S'\x11\x01\x00\x00'
p5489
tp5490
Rp5491
sVlive
p5492
g2
(g6
S'?\x04\x00\x00'
p5493
tp5494
Rp5495
sVandy
p5496
g2
(g6
S'n\x00\x00\x00'
p5497
tp5498
Rp5499
sViphone
p5500
g2
(g6
S'\xc5\x03\x00\x00'
p5501
tp5502
Rp5503
sVmemory
p5504
g2
(g6
S'\x8d\x04\x00\x00'
p5505
tp5506
Rp5507
sVprep
p5508
g2
(g6
S'\x84\x05\x00\x00'
p5509
tp5510
Rp5511
sVtoday
p5512
g2
(g6
S'Z\x07\x00\x00'
p5513
tp5514
Rp5515
sVriding
p5516
g2
(g6
S'\x02\x06\x00\x00'
p5517
tp5518
Rp5519
sVcases
p5520
g2
(g6
S'0\x01\x00\x00'
p5521
tp5522
Rp5523
sVchions
p5524
g2
(g6
S']\x01\x00\x00'
p5525
tp5526
Rp5527
sVmigrants
p5528
g2
(g6
S'\x9e\x04\x00\x00'
p5529
tp5530
Rp5531
sVipads
p5532
g2
(g6
S'\xc4\x03\x00\x00'
p5533
tp5534
Rp5535
sVcat
p5536
g2
(g6
S'3\x01\x00\x00'
p5537
tp5538
Rp5539
sVcam
p5540
g2
(g6
S'\x1b\x01\x00\x00'
p5541
tp5542
Rp5543
sVprocrastinators
p5544
g2
(g6
S'\x98\x05\x00\x00'
p5545
tp5546
Rp5547
sVheart
p5548
g2
(g6
S'Y\x03\x00\x00'
p5549
tp5550
Rp5551
sVstream
p5552
g2
(g6
S'\xef\x06\x00\x00'
p5553
tp5554
Rp5555
sVnexus
p5556
g2
(g6
S'\xeb\x04\x00\x00'
p5557
tp5558
Rp5559
sVdecember
p5560
g2
(g6
S'\xfb\x01\x00\x00'
p5561
tp5562
Rp5563
sVgeous
p5564
g2
(g6
S'\x01\x03\x00\x00'
p5565
tp5566
Rp5567
sVheard
p5568
g2
(g6
S'X\x03\x00\x00'
p5569
tp5570
Rp5571
sVclothing
p5572
g2
(g6
S'x\x01\x00\x00'
p5573
tp5574
Rp5575
sVproductive
p5576
g2
(g6
S'\x9b\x05\x00\x00'
p5577
tp5578
Rp5579
sVgiveaways
p5580
g2
(g6
S'\x0e\x03\x00\x00'
p5581
tp5582
Rp5583
sVwrite
p5584
g2
(g6
S' \x08\x00\x00'
p5585
tp5586
Rp5587
sVplus
p5588
g2
(g6
S'l\x05\x00\x00'
p5589
tp5590
Rp5591
sVphotography
p5592
g2
(g6
S'O\x05\x00\x00'
p5593
tp5594
Rp5595
sVspringfield
p5596
g2
(g6
S'\xcc\x06\x00\x00'
p5597
tp5598
Rp5599
sVproduct
p5600
g2
(g6
S'\x9a\x05\x00\x00'
p5601
tp5602
Rp5603
sVhuge
p5604
g2
(g6
S'\x88\x03\x00\x00'
p5605
tp5606
Rp5607
sVlucky
p5608
g2
(g6
S'\\\x04\x00\x00'
p5609
tp5610
Rp5611
sVbirthday
p5612
g2
(g6
S'\xcb\x00\x00\x00'
p5613
tp5614
Rp5615
sVheroes
p5616
g2
(g6
S'b\x03\x00\x00'
p5617
tp5618
Rp5619
sVlifting
p5620
g2
(g6
S'.\x04\x00\x00'
p5621
tp5622
Rp5623
sVclassroom
p5624
g2
(g6
S'n\x01\x00\x00'
p5625
tp5626
Rp5627
sVremember
p5628
g2
(g6
S'\xed\x05\x00\x00'
p5629
tp5630
Rp5631
sVfutures
p5632
g2
(g6
S'\xf0\x02\x00\x00'
p5633
tp5634
Rp5635
sVnosed
p5636
g2
(g6
S'\xf7\x04\x00\x00'
p5637
tp5638
Rp5639
sVexclusive
p5640
g2
(g6
S'\x80\x02\x00\x00'
p5641
tp5642
Rp5643
sVjoins
p5644
g2
(g6
S'\xe2\x03\x00\x00'
p5645
tp5646
Rp5647
sVmidnight
p5648
g2
(g6
S'\x9d\x04\x00\x00'
p5649
tp5650
Rp5651
sVbrain
p5652
g2
(g6
S'\xea\x00\x00\x00'
p5653
tp5654
Rp5655
sVtablets
p5656
g2
(g6
S'\x17\x07\x00\x00'
p5657
tp5658
Rp5659
sVbirds
p5660
g2
(g6
S'\xca\x00\x00\x00'
p5661
tp5662
Rp5663
sVforms
p5664
g2
(g6
S'\xd9\x02\x00\x00'
p5665
tp5666
Rp5667
sVclippin
p5668
g2
(g6
S't\x01\x00\x00'
p5669
tp5670
Rp5671
sVoffers
p5672
g2
(g6
S'\x01\x05\x00\x00'
p5673
tp5674
Rp5675
sVartisan
p5676
g2
(g6
S'\x8b\x00\x00\x00'
p5677
tp5678
Rp5679
sVdyson
p5680
g2
(g6
S'L\x02\x00\x00'
p5681
tp5682
Rp5683
sVbay
p5684
g2
(g6
S'\xb1\x00\x00\x00'
p5685
tp5686
Rp5687
sVhalf
p5688
g2
(g6
S'?\x03\x00\x00'
p5689
tp5690
Rp5691
sVhall
p5692
g2
(g6
S'@\x03\x00\x00'
p5693
tp5694
Rp5695
sVwont
p5696
g2
(g6
S'\x0f\x08\x00\x00'
p5697
tp5698
Rp5699
sVjanuary
p5700
g2
(g6
S'\xd8\x03\x00\x00'
p5701
tp5702
Rp5703
sVdrop
p5704
g2
(g6
S'H\x02\x00\x00'
p5705
tp5706
Rp5707
sVem
p5708
g2
(g6
S'a\x02\x00\x00'
p5709
tp5710
Rp5711
sVchallenged
p5712
g2
(g6
S'F\x01\x00\x00'
p5713
tp5714
Rp5715
sVyear
p5716
g2
(g6
S"'\x08\x00\x00"
p5717
tp5718
Rp5719
sVet
p5720
g2
(g6
S'x\x02\x00\x00'
p5721
tp5722
Rp5723
sVhappen
p5724
g2
(g6
S'F\x03\x00\x00'
p5725
tp5726
Rp5727
sVtried
p5728
g2
(g6
S'\x82\x07\x00\x00'
p5729
tp5730
Rp5731
sVspace
p5732
g2
(g6
S'\xb7\x06\x00\x00'
p5733
tp5734
Rp5735
sVincrease
p5736
g2
(g6
S'\xa3\x03\x00\x00'
p5737
tp5738
Rp5739
sVshows
p5740
g2
(g6
S'~\x06\x00\x00'
p5741
tp5742
Rp5743
sVexperienced
p5744
g2
(g6
S'\x85\x02\x00\x00'
p5745
tp5746
Rp5747
sVburpy
p5748
g2
(g6
S'\n\x01\x00\x00'
p5749
tp5750
Rp5751
sVtunes
p5752
g2
(g6
S'\x8f\x07\x00\x00'
p5753
tp5754
Rp5755
sVexplorers
p5756
g2
(g6
S'\x8a\x02\x00\x00'
p5757
tp5758
Rp5759
sVcard
p5760
g2
(g6
S"'\x01\x00\x00"
p5761
tp5762
Rp5763
sVcare
p5764
g2
(g6
S'*\x01\x00\x00'
p5765
tp5766
Rp5767
sVcalories
p5768
g2
(g6
S'\x1a\x01\x00\x00'
p5769
tp5770
Rp5771
sVhonest
p5772
g2
(g6
S'w\x03\x00\x00'
p5773
tp5774
Rp5775
sVturn
p5776
g2
(g6
S'\x93\x07\x00\x00'
p5777
tp5778
Rp5779
sVplace
p5780
g2
(g6
S']\x05\x00\x00'
p5781
tp5782
Rp5783
sVchildhood
p5784
g2
(g6
S'\\\x01\x00\x00'
p5785
tp5786
Rp5787
sV1000
p5788
g2
(g6
S'\x04\x00\x00\x00'
p5789
tp5790
Rp5791
sVsurviving
p5792
g2
(g6
S'\x0c\x07\x00\x00'
p5793
tp5794
Rp5795
sVstriking
p5796
g2
(g6
S'\xf3\x06\x00\x00'
p5797
tp5798
Rp5799
sVcoming
p5800
g2
(g6
S'\x8f\x01\x00\x00'
p5801
tp5802
Rp5803
sVclumsy
p5804
g2
(g6
S'z\x01\x00\x00'
p5805
tp5806
Rp5807
sVdirectly
p5808
g2
(g6
S'\x1f\x02\x00\x00'
p5809
tp5810
Rp5811
sVimpossible
p5812
g2
(g6
S'\x9b\x03\x00\x00'
p5813
tp5814
Rp5815
sVring
p5816
g2
(g6
S'\x04\x06\x00\x00'
p5817
tp5818
Rp5819
sVtomorrow
p5820
g2
(g6
S'\\\x07\x00\x00'
p5821
tp5822
Rp5823
sVmillions
p5824
g2
(g6
S'\xa1\x04\x00\x00'
p5825
tp5826
Rp5827
sVbookmark
p5828
g2
(g6
S'\xdf\x00\x00\x00'
p5829
tp5830
Rp5831
sVcaught
p5832
g2
(g6
S'8\x01\x00\x00'
p5833
tp5834
Rp5835
sVdressed
p5836
g2
(g6
S'@\x02\x00\x00'
p5837
tp5838
Rp5839
sVwhite
p5840
g2
(g6
S'\xf0\x07\x00\x00'
p5841
tp5842
Rp5843
sVfriend
p5844
g2
(g6
S'\xe4\x02\x00\x00'
p5845
tp5846
Rp5847
sVgives
p5848
g2
(g6
S'\x0f\x03\x00\x00'
p5849
tp5850
Rp5851
sVseason
p5852
g2
(g6
S'G\x06\x00\x00'
p5853
tp5854
Rp5855
sVreleased
p5856
g2
(g6
S'\xeb\x05\x00\x00'
p5857
tp5858
Rp5859
sVcopy
p5860
g2
(g6
S'\xaf\x01\x00\x00'
p5861
tp5862
Rp5863
sVholder
p5864
g2
(g6
S'q\x03\x00\x00'
p5865
tp5866
Rp5867
sVcomputer
p5868
g2
(g6
S'\x95\x01\x00\x00'
p5869
tp5870
Rp5871
sVfruits
p5872
g2
(g6
S'\xe9\x02\x00\x00'
p5873
tp5874
Rp5875
sVcards
p5876
g2
(g6
S')\x01\x00\x00'
p5877
tp5878
Rp5879
sVbrowser
p5880
g2
(g6
S'\xff\x00\x00\x00'
p5881
tp5882
Rp5883
sVpre
p5884
g2
(g6
S'\x83\x05\x00\x00'
p5885
tp5886
Rp5887
sVpro
p5888
g2
(g6
S'\x95\x05\x00\x00'
p5889
tp5890
Rp5891
sVbreakfast
p5892
g2
(g6
S'\xf0\x00\x00\x00'
p5893
tp5894
Rp5895
sVideas
p5896
g2
(g6
S'\x93\x03\x00\x00'
p5897
tp5898
Rp5899
sVonline
p5900
g2
(g6
S'\x0e\x05\x00\x00'
p5901
tp5902
Rp5903
sVbegin
p5904
g2
(g6
S'\xbc\x00\x00\x00'
p5905
tp5906
Rp5907
sVsure
p5908
g2
(g6
S'\x07\x07\x00\x00'
p5909
tp5910
Rp5911
sVprice
p5912
g2
(g6
S'\x8e\x05\x00\x00'
p5913
tp5914
Rp5915
sVamerica
p5916
g2
(g6
S'j\x00\x00\x00'
p5917
tp5918
Rp5919
sVforever
p5920
g2
(g6
S'\xd5\x02\x00\x00'
p5921
tp5922
Rp5923
sVflawlessly
p5924
g2
(g6
S'\xc8\x02\x00\x00'
p5925
tp5926
Rp5927
sVegg
p5928
g2
(g6
S'[\x02\x00\x00'
p5929
tp5930
Rp5931
sVhungry
p5932
g2
(g6
S'\x8c\x03\x00\x00'
p5933
tp5934
Rp5935
sVprofessional
p5936
g2
(g6
S'\x9e\x05\x00\x00'
p5937
tp5938
Rp5939
sVgerman
p5940
g2
(g6
S'\x02\x03\x00\x00'
p5941
tp5942
Rp5943
sVrecipe
p5944
g2
(g6
S'\xd9\x05\x00\x00'
p5945
tp5946
Rp5947
sVground
p5948
g2
(g6
S'4\x03\x00\x00'
p5949
tp5950
Rp5951
sVsnack
p5952
g2
(g6
S'\xa1\x06\x00\x00'
p5953
tp5954
Rp5955
sVwood
p5956
g2
(g6
S'\x10\x08\x00\x00'
p5957
tp5958
Rp5959
sVpumpkin
p5960
g2
(g6
S'\xa7\x05\x00\x00'
p5961
tp5962
Rp5963
sVcelebrate
p5964
g2
(g6
S';\x01\x00\x00'
p5965
tp5966
Rp5967
sVleather
p5968
g2
(g6
S'\x1b\x04\x00\x00'
p5969
tp5970
Rp5971
sVsupercar
p5972
g2
(g6
S'\x04\x07\x00\x00'
p5973
tp5974
Rp5975
sVends
p5976
g2
(g6
S'h\x02\x00\x00'
p5977
tp5978
Rp5979
sVturntable
p5980
g2
(g6
S'\x97\x07\x00\x00'
p5981
tp5982
Rp5983
sVasleep
p5984
g2
(g6
S'\x90\x00\x00\x00'
p5985
tp5986
Rp5987
sVhell
p5988
g2
(g6
S'Z\x03\x00\x00'
p5989
tp5990
Rp5991
sVsport
p5992
g2
(g6
S'\xc7\x06\x00\x00'
p5993
tp5994
Rp5995
sVfails
p5996
g2
(g6
S'\x94\x02\x00\x00'
p5997
tp5998
Rp5999
sVmanaging
p6000
g2
(g6
S'p\x04\x00\x00'
p6001
tp6002
Rp6003
sVreview
p6004
g2
(g6
S'\xfd\x05\x00\x00'
p6005
tp6006
Rp6007
sVoutside
p6008
g2
(g6
S'\x1d\x05\x00\x00'
p6009
tp6010
Rp6011
sVarrival
p6012
g2
(g6
S'\x84\x00\x00\x00'
p6013
tp6014
Rp6015
sV25
p6016
g2
(g6
S'\x16\x00\x00\x00'
p6017
tp6018
Rp6019
sVguitar
p6020
g2
(g6
S'<\x03\x00\x00'
p6021
tp6022
Rp6023
sVcome
p6024
g2
(g6
S'\x8a\x01\x00\x00'
p6025
tp6026
Rp6027
sVlookbook
p6028
g2
(g6
S'K\x04\x00\x00'
p6029
tp6030
Rp6031
sVcomes
p6032
g2
(g6
S'\x8b\x01\x00\x00'
p6033
tp6034
Rp6035
sVcolor
p6036
g2
(g6
S'\x85\x01\x00\x00'
p6037
tp6038
Rp6039
sVjeans
p6040
g2
(g6
S'\xda\x03\x00\x00'
p6041
tp6042
Rp6043
sVpop
p6044
g2
(g6
S't\x05\x00\x00'
p6045
tp6046
Rp6047
sV60
p6048
g2
(g6
S'1\x00\x00\x00'
p6049
tp6050
Rp6051
sVpole
p6052
g2
(g6
S'r\x05\x00\x00'
p6053
tp6054
Rp6055
sV64
p6056
g2
(g6
S'3\x00\x00\x00'
p6057
tp6058
Rp6059
sV65
p6060
g2
(g6
S'4\x00\x00\x00'
p6061
tp6062
Rp6063
sVlearning
p6064
g2
(g6
S'\x1a\x04\x00\x00'
p6065
tp6066
Rp6067
sVturkey
p6068
g2
(g6
S'\x92\x07\x00\x00'
p6069
tp6070
Rp6071
sVfeaturing
p6072
g2
(g6
S'\xac\x02\x00\x00'
p6073
tp6074
Rp6075
sV6s
p6076
g2
(g6
S'5\x00\x00\x00'
p6077
tp6078
Rp6079
sVinstant
p6080
g2
(g6
S'\xb5\x03\x00\x00'
p6081
tp6082
Rp6083
sVspirit
p6084
g2
(g6
S'\xc2\x06\x00\x00'
p6085
tp6086
Rp6087
sVcase
p6088
g2
(g6
S'/\x01\x00\x00'
p6089
tp6090
Rp6091
sVtrick
p6092
g2
(g6
S'\x80\x07\x00\x00'
p6093
tp6094
Rp6095
sVcast
p6096
g2
(g6
S'1\x01\x00\x00'
p6097
tp6098
Rp6099
sVtaking
p6100
g2
(g6
S'\x1e\x07\x00\x00'
p6101
tp6102
Rp6103
sVcoolest
p6104
g2
(g6
S'\xad\x01\x00\x00'
p6105
tp6106
Rp6107
sVcandies
p6108
g2
(g6
S'!\x01\x00\x00'
p6109
tp6110
Rp6111
sVkenya
p6112
g2
(g6
S'\xed\x03\x00\x00'
p6113
tp6114
Rp6115
sVworry
p6116
g2
(g6
S'\x19\x08\x00\x00'
p6117
tp6118
Rp6119
sVinquire
p6120
g2
(g6
S'\xab\x03\x00\x00'
p6121
tp6122
Rp6123
sVcheck
p6124
g2
(g6
S'U\x01\x00\x00'
p6125
tp6126
Rp6127
sVfood
p6128
g2
(g6
S'\xd0\x02\x00\x00'
p6129
tp6130
Rp6131
sVstatus
p6132
g2
(g6
S'\xdc\x06\x00\x00'
p6133
tp6134
Rp6135
sVpersons
p6136
g2
(g6
S'H\x05\x00\x00'
p6137
tp6138
Rp6139
sVfruit
p6140
g2
(g6
S'\xe8\x02\x00\x00'
p6141
tp6142
Rp6143
sVfavorites
p6144
g2
(g6
S'\xa5\x02\x00\x00'
p6145
tp6146
Rp6147
sVchanging
p6148
g2
(g6
S'J\x01\x00\x00'
p6149
tp6150
Rp6151
sVcartoon
p6152
g2
(g6
S'-\x01\x00\x00'
p6153
tp6154
Rp6155
sVtraps
p6156
g2
(g6
S's\x07\x00\x00'
p6157
tp6158
Rp6159
sVcharges
p6160
g2
(g6
S'O\x01\x00\x00'
p6161
tp6162
Rp6163
sVmagical
p6164
g2
(g6
S'd\x04\x00\x00'
p6165
tp6166
Rp6167
sVbreeze
p6168
g2
(g6
S'\xf4\x00\x00\x00'
p6169
tp6170
Rp6171
sVwithour
p6172
g2
(g6
S'\x04\x08\x00\x00'
p6173
tp6174
Rp6175
sVpuree
p6176
g2
(g6
S'\xaf\x05\x00\x00'
p6177
tp6178
Rp6179
sVcharged
p6180
g2
(g6
S'N\x01\x00\x00'
p6181
tp6182
Rp6183
sVtouch
p6184
g2
(g6
S'd\x07\x00\x00'
p6185
tp6186
Rp6187
sVreality
p6188
g2
(g6
S'\xd3\x05\x00\x00'
p6189
tp6190
Rp6191
sVspeed
p6192
g2
(g6
S'\xbc\x06\x00\x00'
p6193
tp6194
Rp6195
sVcaptured
p6196
g2
(g6
S'%\x01\x00\x00'
p6197
tp6198
Rp6199
sVhint
p6200
g2
(g6
S'm\x03\x00\x00'
p6201
tp6202
Rp6203
sVthinking
p6204
g2
(g6
S'F\x07\x00\x00'
p6205
tp6206
Rp6207
sVrose
p6208
g2
(g6
S'\x10\x06\x00\x00'
p6209
tp6210
Rp6211
sViphones
p6212
g2
(g6
S'\xc6\x03\x00\x00'
p6213
tp6214
Rp6215
sVdesktop
p6216
g2
(g6
S'\x0f\x02\x00\x00'
p6217
tp6218
Rp6219
sVlets
p6220
g2
(g6
S'(\x04\x00\x00'
p6221
tp6222
Rp6223
sVstyles
p6224
g2
(g6
S'\xfb\x06\x00\x00'
p6225
tp6226
Rp6227
sVrules
p6228
g2
(g6
S'\x1b\x06\x00\x00'
p6229
tp6230
Rp6231
sVenchiladasexploding
p6232
g2
(g6
S'e\x02\x00\x00'
p6233
tp6234
Rp6235
sVfridge
p6236
g2
(g6
S'\xe3\x02\x00\x00'
p6237
tp6238
Rp6239
sVgonna
p6240
g2
(g6
S' \x03\x00\x00'
p6241
tp6242
Rp6243
sVearly
p6244
g2
(g6
S'M\x02\x00\x00'
p6245
tp6246
Rp6247
sVtest
p6248
g2
(g6
S'4\x07\x00\x00'
p6249
tp6250
Rp6251
sVusing
p6252
g2
(g6
S'\xb8\x07\x00\x00'
p6253
tp6254
Rp6255
sVaccepted
p6256
g2
(g6
S'?\x00\x00\x00'
p6257
tp6258
Rp6259
sVpst
p6260
g2
(g6
S'\xa4\x05\x00\x00'
p6261
tp6262
Rp6263
sVpounds
p6264
g2
(g6
S'\x7f\x05\x00\x00'
p6265
tp6266
Rp6267
sVmaker
p6268
g2
(g6
S'h\x04\x00\x00'
p6269
tp6270
Rp6271
sVexposed
p6272
g2
(g6
S'\x8c\x02\x00\x00'
p6273
tp6274
Rp6275
sVtable
p6276
g2
(g6
S'\x15\x07\x00\x00'
p6277
tp6278
Rp6279
sVxing
p6280
g2
(g6
S'$\x08\x00\x00'
p6281
tp6282
Rp6283
sVprovides
p6284
g2
(g6
S'\xa3\x05\x00\x00'
p6285
tp6286
Rp6287
sVfootball
p6288
g2
(g6
S'\xd1\x02\x00\x00'
p6289
tp6290
Rp6291
sVbusiness
p6292
g2
(g6
S'\x0b\x01\x00\x00'
p6293
tp6294
Rp6295
sVexciting
p6296
g2
(g6
S'\x7f\x02\x00\x00'
p6297
tp6298
Rp6299
sVthrow
p6300
g2
(g6
S'L\x07\x00\x00'
p6301
tp6302
Rp6303
sVok
p6304
g2
(g6
S'\x06\x05\x00\x00'
p6305
tp6306
Rp6307
sVoh
p6308
g2
(g6
S'\x05\x05\x00\x00'
p6309
tp6310
Rp6311
sVpowered
p6312
g2
(g6
S'\x81\x05\x00\x00'
p6313
tp6314
Rp6315
sVthousands
p6316
g2
(g6
S'K\x07\x00\x00'
p6317
tp6318
Rp6319
sVaddition
p6320
g2
(g6
S'O\x00\x00\x00'
p6321
tp6322
Rp6323
sVstand
p6324
g2
(g6
S'\xd0\x06\x00\x00'
p6325
tp6326
Rp6327
sV2k
p6328
g2
(g6
S'\x1d\x00\x00\x00'
p6329
tp6330
Rp6331
sVtrekker
p6332
g2
(g6
S'}\x07\x00\x00'
p6333
tp6334
Rp6335
sVladies
p6336
g2
(g6
S'\x05\x04\x00\x00'
p6337
tp6338
Rp6339
sVcommunication
p6340
g2
(g6
S'\x91\x01\x00\x00'
p6341
tp6342
Rp6343
sVsnapchat
p6344
g2
(g6
S'\xa4\x06\x00\x00'
p6345
tp6346
Rp6347
sVaccounts
p6348
g2
(g6
S'D\x00\x00\x00'
p6349
tp6350
Rp6351
sVprepare
p6352
g2
(g6
S'\x85\x05\x00\x00'
p6353
tp6354
Rp6355
sVaren
p6356
g2
(g6
S'\x81\x00\x00\x00'
p6357
tp6358
Rp6359
sVqualifying
p6360
g2
(g6
S'\xb7\x05\x00\x00'
p6361
tp6362
Rp6363
sVcats
p6364
g2
(g6
S'6\x01\x00\x00'
p6365
tp6366
Rp6367
sVlow
p6368
g2
(g6
S'Z\x04\x00\x00'
p6369
tp6370
Rp6371
sVstars
p6372
g2
(g6
S'\xd4\x06\x00\x00'
p6373
tp6374
Rp6375
sVallergic
p6376
g2
(g6
S'f\x00\x00\x00'
p6377
tp6378
Rp6379
sVhard
p6380
g2
(g6
S'J\x03\x00\x00'
p6381
tp6382
Rp6383
sVmischief
p6384
g2
(g6
S'\xab\x04\x00\x00'
p6385
tp6386
Rp6387
sVkittens
p6388
g2
(g6
S'\x00\x04\x00\x00'
p6389
tp6390
Rp6391
sVidea
p6392
g2
(g6
S'\x92\x03\x00\x00'
p6393
tp6394
Rp6395
sVmultitasking
p6396
g2
(g6
S'\xd3\x04\x00\x00'
p6397
tp6398
Rp6399
sVtrying
p6400
g2
(g6
S'\x89\x07\x00\x00'
p6401
tp6402
Rp6403
sVcomics
p6404
g2
(g6
S'\x8d\x01\x00\x00'
p6405
tp6406
Rp6407
sVtaste
p6408
g2
(g6
S'$\x07\x00\x00'
p6409
tp6410
Rp6411
sVsunroof
p6412
g2
(g6
S'\x02\x07\x00\x00'
p6413
tp6414
Rp6415
sVtasty
p6416
g2
(g6
S'&\x07\x00\x00'
p6417
tp6418
Rp6419
sVpen
p6420
g2
(g6
S'?\x05\x00\x00'
p6421
tp6422
Rp6423
sVacer
p6424
g2
(g6
S'E\x00\x00\x00'
p6425
tp6426
Rp6427
sVmoves
p6428
g2
(g6
S'\xcc\x04\x00\x00'
p6429
tp6430
Rp6431
sVreceive
p6432
g2
(g6
S'\xd7\x05\x00\x00'
p6433
tp6434
Rp6435
sVdeserve
p6436
g2
(g6
S'\x07\x02\x00\x00'
p6437
tp6438
Rp6439
sVstorage
p6440
g2
(g6
S'\xe8\x06\x00\x00'
p6441
tp6442
Rp6443
sVtrash
p6444
g2
(g6
S't\x07\x00\x00'
p6445
tp6446
Rp6447
sVamoled
p6448
g2
(g6
S'l\x00\x00\x00'
p6449
tp6450
Rp6451
sVincludes
p6452
g2
(g6
S'\xa1\x03\x00\x00'
p6453
tp6454
Rp6455
sVlovers
p6456
g2
(g6
S'W\x04\x00\x00'
p6457
tp6458
Rp6459
sVregistry
p6460
g2
(g6
S'\xe4\x05\x00\x00'
p6461
tp6462
Rp6463
sVincluded
p6464
g2
(g6
S'\xa0\x03\x00\x00'
p6465
tp6466
Rp6467
sVmissed
p6468
g2
(g6
S'\xad\x04\x00\x00'
p6469
tp6470
Rp6471
sVbuilding
p6472
g2
(g6
S'\x04\x01\x00\x00'
p6473
tp6474
Rp6475
sVwithcode
p6476
g2
(g6
S'\x03\x08\x00\x00'
p6477
tp6478
Rp6479
sVwifi
p6480
g2
(g6
S'\xf2\x07\x00\x00'
p6481
tp6482
Rp6483
sVcurve
p6484
g2
(g6
S'\xd8\x01\x00\x00'
p6485
tp6486
Rp6487
sVtomorrows
p6488
g2
(g6
S']\x07\x00\x00'
p6489
tp6490
Rp6491
sVmonth
p6492
g2
(g6
S'\xc1\x04\x00\x00'
p6493
tp6494
Rp6495
sVfollow
p6496
g2
(g6
S'\xce\x02\x00\x00'
p6497
tp6498
Rp6499
sVcarpet
p6500
g2
(g6
S',\x01\x00\x00'
p6501
tp6502
Rp6503
sVopportunities
p6504
g2
(g6
S'\x11\x05\x00\x00'
p6505
tp6506
Rp6507
sVsong
p6508
g2
(g6
S'\xac\x06\x00\x00'
p6509
tp6510
Rp6511
sVfar
p6512
g2
(g6
S'\x9e\x02\x00\x00'
p6513
tp6514
Rp6515
sVhorror
p6516
g2
(g6
S'|\x03\x00\x00'
p6517
tp6518
Rp6519
sVsimpsons
p6520
g2
(g6
S'\x83\x06\x00\x00'
p6521
tp6522
Rp6523
sVprint
p6524
g2
(g6
S'\x91\x05\x00\x00'
p6525
tp6526
Rp6527
sVworst
p6528
g2
(g6
S'\x1a\x08\x00\x00'
p6529
tp6530
Rp6531
sVsony
p6532
g2
(g6
S'\xae\x06\x00\x00'
p6533
tp6534
Rp6535
sVlist
p6536
g2
(g6
S':\x04\x00\x00'
p6537
tp6538
Rp6539
sVcookies
p6540
g2
(g6
S'\xaa\x01\x00\x00'
p6541
tp6542
Rp6543
sVinstagram
p6544
g2
(g6
S'\xb4\x03\x00\x00'
p6545
tp6546
Rp6547
sVtea
p6548
g2
(g6
S'(\x07\x00\x00'
p6549
tp6550
Rp6551
sVrate
p6552
g2
(g6
S'\xca\x05\x00\x00'
p6553
tp6554
Rp6555
sVdesign
p6556
g2
(g6
S'\t\x02\x00\x00'
p6557
tp6558
Rp6559
sVsun
p6560
g2
(g6
S'\x00\x07\x00\x00'
p6561
tp6562
Rp6563
sVjedi
p6564
g2
(g6
S'\xdb\x03\x00\x00'
p6565
tp6566
Rp6567
sVversion
p6568
g2
(g6
S'\xbf\x07\x00\x00'
p6569
tp6570
Rp6571
sVlearned
p6572
g2
(g6
S'\x19\x04\x00\x00'
p6573
tp6574
Rp6575
sVrow
p6576
g2
(g6
S'\x17\x06\x00\x00'
p6577
tp6578
Rp6579
sVracing
p6580
g2
(g6
S'\xc3\x05\x00\x00'
p6581
tp6582
Rp6583
sVanswers
p6584
g2
(g6
S'x\x00\x00\x00'
p6585
tp6586
Rp6587
sVtracks
p6588
g2
(g6
S'j\x07\x00\x00'
p6589
tp6590
Rp6591
sVdirections
p6592
g2
(g6
S'\x1e\x02\x00\x00'
p6593
tp6594
Rp6595
sVstrong
p6596
g2
(g6
S'\xf4\x06\x00\x00'
p6597
tp6598
Rp6599
sVahead
p6600
g2
(g6
S'^\x00\x00\x00'
p6601
tp6602
Rp6603
sVinspired
p6604
g2
(g6
S'\xb2\x03\x00\x00'
p6605
tp6606
Rp6607
sVoptions
p6608
g2
(g6
S'\x12\x05\x00\x00'
p6609
tp6610
Rp6611
sVfamily
p6612
g2
(g6
S'\x96\x02\x00\x00'
p6613
tp6614
Rp6615
sVtoys
p6616
g2
(g6
S'f\x07\x00\x00'
p6617
tp6618
Rp6619
sVtakes
p6620
g2
(g6
S'\x1d\x07\x00\x00'
p6621
tp6622
Rp6623
sVtaken
p6624
g2
(g6
S'\x1c\x07\x00\x00'
p6625
tp6626
Rp6627
sVturbo
p6628
g2
(g6
S'\x90\x07\x00\x00'
p6629
tp6630
Rp6631
sVterror
p6632
g2
(g6
S'3\x07\x00\x00'
p6633
tp6634
Rp6635
sVstick
p6636
g2
(g6
S'\xe2\x06\x00\x00'
p6637
tp6638
Rp6639
sVgrill
p6640
g2
(g6
S'0\x03\x00\x00'
p6641
tp6642
Rp6643
sV21mp
p6644
g2
(g6
S'\x14\x00\x00\x00'
p6645
tp6646
Rp6647
sVhistory
p6648
g2
(g6
S'n\x03\x00\x00'
p6649
tp6650
Rp6651
sVinspector
p6652
g2
(g6
S'\xaf\x03\x00\x00'
p6653
tp6654
Rp6655
sVgoal
p6656
g2
(g6
S'\x17\x03\x00\x00'
p6657
tp6658
Rp6659
sVbreaking
p6660
g2
(g6
S'\xf1\x00\x00\x00'
p6661
tp6662
Rp6663
sVgoat
p6664
g2
(g6
S'\x19\x03\x00\x00'
p6665
tp6666
Rp6667
sVsandwich
p6668
g2
(g6
S"'\x06\x00\x00"
p6669
tp6670
Rp6671
sVfu
p6672
g2
(g6
S'\xeb\x02\x00\x00'
p6673
tp6674
Rp6675
sVsneak
p6676
g2
(g6
S'\xa6\x06\x00\x00'
p6677
tp6678
Rp6679
sVreflect
p6680
g2
(g6
S'\xdf\x05\x00\x00'
p6681
tp6682
Rp6683
sVadventure
p6684
g2
(g6
S'X\x00\x00\x00'
p6685
tp6686
Rp6687
sVfi
p6688
g2
(g6
S'\xb4\x02\x00\x00'
p6689
tp6690
Rp6691
sVchoice
p6692
g2
(g6
S'`\x01\x00\x00'
p6693
tp6694
Rp6695
sVshort
p6696
g2
(g6
S'{\x06\x00\x00'
p6697
tp6698
Rp6699
sVdream
p6700
g2
(g6
S'=\x02\x00\x00'
p6701
tp6702
Rp6703
sVphotoshop
p6704
g2
(g6
S'Q\x05\x00\x00'
p6705
tp6706
Rp6707
sVhelp
p6708
g2
(g6
S'\\\x03\x00\x00'
p6709
tp6710
Rp6711
sVseptember
p6712
g2
(g6
S'Z\x06\x00\x00'
p6713
tp6714
Rp6715
sVisnt
p6716
g2
(g6
S'\xce\x03\x00\x00'
p6717
tp6718
Rp6719
sVstyle
p6720
g2
(g6
S'\xfa\x06\x00\x00'
p6721
tp6722
Rp6723
sVactually
p6724
g2
(g6
S'J\x00\x00\x00'
p6725
tp6726
Rp6727
sVfeel
p6728
g2
(g6
S'\xaf\x02\x00\x00'
p6729
tp6730
Rp6731
sVwouldn
p6732
g2
(g6
S'\x1c\x08\x00\x00'
p6733
tp6734
Rp6735
sVreturn
p6736
g2
(g6
S'\xfa\x05\x00\x00'
p6737
tp6738
Rp6739
sVceo
p6740
g2
(g6
S'B\x01\x00\x00'
p6741
tp6742
Rp6743
sVinch
p6744
g2
(g6
S'\x9d\x03\x00\x00'
p6745
tp6746
Rp6747
sVces
p6748
g2
(g6
S'D\x01\x00\x00'
p6749
tp6750
Rp6751
sVninja
p6752
g2
(g6
S'\xf1\x04\x00\x00'
p6753
tp6754
Rp6755
sVbigger
p6756
g2
(g6
S'\xc4\x00\x00\x00'
p6757
tp6758
Rp6759
sVgets
p6760
g2
(g6
S'\x03\x03\x00\x00'
p6761
tp6762
Rp6763
sVfully
p6764
g2
(g6
S'\xec\x02\x00\x00'
p6765
tp6766
Rp6767
sVpresented
p6768
g2
(g6
S'\x89\x05\x00\x00'
p6769
tp6770
Rp6771
sVtrailer
p6772
g2
(g6
S'l\x07\x00\x00'
p6773
tp6774
Rp6775
sVrating
p6776
g2
(g6
S'\xcb\x05\x00\x00'
p6777
tp6778
Rp6779
sVgeneration
p6780
g2
(g6
S'\xfe\x02\x00\x00'
p6781
tp6782
Rp6783
sVevent
p6784
g2
(g6
S'{\x02\x00\x00'
p6785
tp6786
Rp6787
sVmiss
p6788
g2
(g6
S'\xac\x04\x00\x00'
p6789
tp6790
Rp6791
sVhealth
p6792
g2
(g6
S'U\x03\x00\x00'
p6793
tp6794
Rp6795
sVhill
p6796
g2
(g6
S'l\x03\x00\x00'
p6797
tp6798
Rp6799
sVfriday
p6800
g2
(g6
S'\xe2\x02\x00\x00'
p6801
tp6802
Rp6803
sVstory
p6804
g2
(g6
S'\xeb\x06\x00\x00'
p6805
tp6806
Rp6807
sVreason
p6808
g2
(g6
S'\xd6\x05\x00\x00'
p6809
tp6810
Rp6811
sVcookie
p6812
g2
(g6
S'\xa9\x01\x00\x00'
p6813
tp6814
Rp6815
sVask
p6816
g2
(g6
S'\x8e\x00\x00\x00'
p6817
tp6818
Rp6819
sVpup
p6820
g2
(g6
S'\xa9\x05\x00\x00'
p6821
tp6822
Rp6823
sVrevolutionary
p6824
g2
(g6
S'\xff\x05\x00\x00'
p6825
tp6826
Rp6827
sVlaunch
p6828
g2
(g6
S'\x11\x04\x00\x00'
p6829
tp6830
Rp6831
sVround
p6832
g2
(g6
S'\x13\x06\x00\x00'
p6833
tp6834
Rp6835
sVamerican
p6836
g2
(g6
S'k\x00\x00\x00'
p6837
tp6838
Rp6839
sVfeed
p6840
g2
(g6
S'\xad\x02\x00\x00'
p6841
tp6842
Rp6843
sVradical
p6844
g2
(g6
S'\xc5\x05\x00\x00'
p6845
tp6846
Rp6847
sVfancy
p6848
g2
(g6
S'\x9a\x02\x00\x00'
p6849
tp6850
Rp6851
sVunexpected
p6852
g2
(g6
S'\xa2\x07\x00\x00'
p6853
tp6854
Rp6855
sVblank
p6856
g2
(g6
S'\xd0\x00\x00\x00'
p6857
tp6858
Rp6859
sVgrin
p6860
g2
(g6
S'2\x03\x00\x00'
p6861
tp6862
Rp6863
sVstation
p6864
g2
(g6
S'\xdb\x06\x00\x00'
p6865
tp6866
Rp6867
sVstore
p6868
g2
(g6
S'\xe9\x06\x00\x00'
p6869
tp6870
Rp6871
sVoverdrive
p6872
g2
(g6
S'\x1e\x05\x00\x00'
p6873
tp6874
Rp6875
sVking
p6876
g2
(g6
S'\xfc\x03\x00\x00'
p6877
tp6878
Rp6879
sVkind
p6880
g2
(g6
S'\xfa\x03\x00\x00'
p6881
tp6882
Rp6883
sVdouble
p6884
g2
(g6
S'9\x02\x00\x00'
p6885
tp6886
Rp6887
sVbanana
p6888
g2
(g6
S'\xa5\x00\x00\x00'
p6889
tp6890
Rp6891
sVkindle
p6892
g2
(g6
S'\xfb\x03\x00\x00'
p6893
tp6894
Rp6895
sVhhttgechogiveaway
p6896
g2
(g6
S'e\x03\x00\x00'
p6897
tp6898
Rp6899
sVnights
p6900
g2
(g6
S'\xf0\x04\x00\x00'
p6901
tp6902
Rp6903
sVsandwiches
p6904
g2
(g6
S'(\x06\x00\x00'
p6905
tp6906
Rp6907
sVfinding
p6908
g2
(g6
S'\xc0\x02\x00\x00'
p6909
tp6910
Rp6911
sVaired
p6912
g2
(g6
S'`\x00\x00\x00'
p6913
tp6914
Rp6915
sVadded
p6916
g2
(g6
S'M\x00\x00\x00'
p6917
tp6918
Rp6919
sVcustomize
p6920
g2
(g6
S'\xdf\x01\x00\x00'
p6921
tp6922
Rp6923
sVreach
p6924
g2
(g6
S'\xcd\x05\x00\x00'
p6925
tp6926
Rp6927
sV77
p6928
g2
(g6
S'9\x00\x00\x00'
p6929
tp6930
Rp6931
sV75
p6932
g2
(g6
S'8\x00\x00\x00'
p6933
tp6934
Rp6935
sVexperiences
p6936
g2
(g6
S'\x86\x02\x00\x00'
p6937
tp6938
Rp6939
sV72
p6940
g2
(g6
S'7\x00\x00\x00'
p6941
tp6942
Rp6943
sV70
p6944
g2
(g6
S'6\x00\x00\x00'
p6945
tp6946
Rp6947
sVseasons
p6948
g2
(g6
S'H\x06\x00\x00'
p6949
tp6950
Rp6951
sVaudio
p6952
g2
(g6
S'\x93\x00\x00\x00'
p6953
tp6954
Rp6955
sVwindows
p6956
g2
(g6
S'\xf5\x07\x00\x00'
p6957
tp6958
Rp6959
sVclear
p6960
g2
(g6
S'p\x01\x00\x00'
p6961
tp6962
Rp6963
sVclean
p6964
g2
(g6
S'o\x01\x00\x00'
p6965
tp6966
Rp6967
sVarea
p6968
g2
(g6
S'\x80\x00\x00\x00'
p6969
tp6970
Rp6971
sVnewest
p6972
g2
(g6
S'\xe8\x04\x00\x00'
p6973
tp6974
Rp6975
sValbums
p6976
g2
(g6
S'd\x00\x00\x00'
p6977
tp6978
Rp6979
sVbff
p6980
g2
(g6
S'\xc1\x00\x00\x00'
p6981
tp6982
Rp6983
sVscooter
p6984
g2
(g6
S';\x06\x00\x00'
p6985
tp6986
Rp6987
sVpretty
p6988
g2
(g6
S'\x8d\x05\x00\x00'
p6989
tp6990
Rp6991
sVcircle
p6992
g2
(g6
S'h\x01\x00\x00'
p6993
tp6994
Rp6995
sVdc41
p6996
g2
(g6
S'\xf4\x01\x00\x00'
p6997
tp6998
Rp6999
sVhit
p7000
g2
(g6
S'o\x03\x00\x00'
p7001
tp7002
Rp7003
sVgrocery
p7004
g2
(g6
S'3\x03\x00\x00'
p7005
tp7006
Rp7007
sVfamous
p7008
g2
(g6
S'\x97\x02\x00\x00'
p7009
tp7010
Rp7011
sVdinos
p7012
g2
(g6
S'\x1d\x02\x00\x00'
p7013
tp7014
Rp7015
sVshared
p7016
g2
(g6
S'g\x06\x00\x00'
p7017
tp7018
Rp7019
sVcelebrates
p7020
g2
(g6
S'<\x01\x00\x00'
p7021
tp7022
Rp7023
sVactivity
p7024
g2
(g6
S'I\x00\x00\x00'
p7025
tp7026
Rp7027
sVart
p7028
g2
(g6
S'\x8a\x00\x00\x00'
p7029
tp7030
Rp7031
sVbart
p7032
g2
(g6
S'\xaa\x00\x00\x00'
p7033
tp7034
Rp7035
sVuses
p7036
g2
(g6
S'\xb7\x07\x00\x00'
p7037
tp7038
Rp7039
sVarrives
p7040
g2
(g6
S'\x87\x00\x00\x00'
p7041
tp7042
Rp7043
sVmantra
p7044
g2
(g6
S'q\x04\x00\x00'
p7045
tp7046
Rp7047
sVclose
p7048
g2
(g6
S'v\x01\x00\x00'
p7049
tp7050
Rp7051
sVyouth
p7052
g2
(g6
S'1\x08\x00\x00'
p7053
tp7054
Rp7055
sVcalifornication
p7056
g2
(g6
S'\x17\x01\x00\x00'
p7057
tp7058
Rp7059
sVwow
p7060
g2
(g6
S'\x1d\x08\x00\x00'
p7061
tp7062
Rp7063
sVnutella
p7064
g2
(g6
S'\xfb\x04\x00\x00'
p7065
tp7066
Rp7067
sVwon
p7068
g2
(g6
S'\x0c\x08\x00\x00'
p7069
tp7070
Rp7071
sVprobably
p7072
g2
(g6
S'\x96\x05\x00\x00'
p7073
tp7074
Rp7075
sVcreating
p7076
g2
(g6
S'\xc6\x01\x00\x00'
p7077
tp7078
Rp7079
sVmissing
p7080
g2
(g6
S'\xae\x04\x00\x00'
p7081
tp7082
Rp7083
sVbibs
p7084
g2
(g6
S'\xc2\x00\x00\x00'
p7085
tp7086
Rp7087
sVmega
p7088
g2
(g6
S'\x89\x04\x00\x00'
p7089
tp7090
Rp7091
sVmickey
p7092
g2
(g6
S'\x9a\x04\x00\x00'
p7093
tp7094
Rp7095
sVsweet
p7096
g2
(g6
S'\x11\x07\x00\x00'
p7097
tp7098
Rp7099
sVlikes
p7100
g2
(g6
S'3\x04\x00\x00'
p7101
tp7102
Rp7103
sVmission
p7104
g2
(g6
S'\xaf\x04\x00\x00'
p7105
tp7106
Rp7107
sVpt
p7108
g2
(g6
S'\xa5\x05\x00\x00'
p7109
tp7110
Rp7111
sVstrategy
p7112
g2
(g6
S'\xed\x06\x00\x00'
p7113
tp7114
Rp7115
sVpc
p7116
g2
(g6
S':\x05\x00\x00'
p7117
tp7118
Rp7119
sVpm
p7120
g2
(g6
S'n\x05\x00\x00'
p7121
tp7122
Rp7123
sVflight
p7124
g2
(g6
S'\xc9\x02\x00\x00'
p7125
tp7126
Rp7127
sVlives
p7128
g2
(g6
S'@\x04\x00\x00'
p7129
tp7130
Rp7131
sVrocking
p7132
g2
(g6
S'\n\x06\x00\x00'
p7133
tp7134
Rp7135
sVloon
p7136
g2
(g6
S'O\x04\x00\x00'
p7137
tp7138
Rp7139
sVlook
p7140
g2
(g6
S'J\x04\x00\x00'
p7141
tp7142
Rp7143
sVfrozen
p7144
g2
(g6
S'\xe7\x02\x00\x00'
p7145
tp7146
Rp7147
sVballoons
p7148
g2
(g6
S'\xa3\x00\x00\x00'
p7149
tp7150
Rp7151
sVsmart
p7152
g2
(g6
S'\x99\x06\x00\x00'
p7153
tp7154
Rp7155
sVguide
p7156
g2
(g6
S';\x03\x00\x00'
p7157
tp7158
Rp7159
sVtheres
p7160
g2
(g6
S'@\x07\x00\x00'
p7161
tp7162
Rp7163
sVkidizoom
p7164
g2
(g6
S'\xf6\x03\x00\x00'
p7165
tp7166
Rp7167
sVready
p7168
g2
(g6
S'\xd1\x05\x00\x00'
p7169
tp7170
Rp7171
sVshirt
p7172
g2
(g6
S'v\x06\x00\x00'
p7173
tp7174
Rp7175
sVused
p7176
g2
(g6
S'\xb4\x07\x00\x00'
p7177
tp7178
Rp7179
sVbonus
p7180
g2
(g6
S'\xdc\x00\x00\x00'
p7181
tp7182
Rp7183
sVholidays
p7184
g2
(g6
S's\x03\x00\x00'
p7185
tp7186
Rp7187
sV000
p7188
g2
(g6
S'\x00\x00\x00\x00'
p7189
tp7190
Rp7191
sVmoving
p7192
g2
(g6
S'\xcf\x04\x00\x00'
p7193
tp7194
Rp7195
sVcheer
p7196
g2
(g6
S'V\x01\x00\x00'
p7197
tp7198
Rp7199
sVedge
p7200
g2
(g6
S'T\x02\x00\x00'
p7201
tp7202
Rp7203
sViqbal
p7204
g2
(g6
S'\xc7\x03\x00\x00'
p7205
tp7206
Rp7207
sVuseful
p7208
g2
(g6
S'\xb5\x07\x00\x00'
p7209
tp7210
Rp7211
sVpassword
p7212
g2
(g6
S'4\x05\x00\x00'
p7213
tp7214
Rp7215
sVadrienne
p7216
g2
(g6
S'S\x00\x00\x00'
p7217
tp7218
Rp7219
sVexclusively
p7220
g2
(g6
S'\x81\x02\x00\x00'
p7221
tp7222
Rp7223
sVelves
p7224
g2
(g6
S'`\x02\x00\x00'
p7225
tp7226
Rp7227
sVcustomers
p7228
g2
(g6
S'\xdd\x01\x00\x00'
p7229
tp7230
Rp7231
sVunlimited
p7232
g2
(g6
S'\xa6\x07\x00\x00'
p7233
tp7234
Rp7235
sVgame
p7236
g2
(g6
S'\xf5\x02\x00\x00'
p7237
tp7238
Rp7239
sVcollect
p7240
g2
(g6
S'\x80\x01\x00\x00'
p7241
tp7242
Rp7243
sVsleigh
p7244
g2
(g6
S'\x96\x06\x00\x00'
p7245
tp7246
Rp7247
sVparade
p7248
g2
(g6
S',\x05\x00\x00'
p7249
tp7250
Rp7251
sVcreation
p7252
g2
(g6
S'\xc7\x01\x00\x00'
p7253
tp7254
Rp7255
sVarrived
p7256
g2
(g6
S'\x86\x00\x00\x00'
p7257
tp7258
Rp7259
sVpack
p7260
g2
(g6
S' \x05\x00\x00'
p7261
tp7262
Rp7263
sVmmmmm
p7264
g2
(g6
S'\xb3\x04\x00\x00'
p7265
tp7266
Rp7267
sVdelivered
p7268
g2
(g6
S'\x03\x02\x00\x00'
p7269
tp7270
Rp7271
sVpros
p7272
g2
(g6
S'\xa1\x05\x00\x00'
p7273
tp7274
Rp7275
sVretro
p7276
g2
(g6
S'\xf9\x05\x00\x00'
p7277
tp7278
Rp7279
sVinnovation
p7280
g2
(g6
S'\xaa\x03\x00\x00'
p7281
tp7282
Rp7283
sVhotels
p7284
g2
(g6
S'\x80\x03\x00\x00'
p7285
tp7286
Rp7287
sVstep
p7288
g2
(g6
S'\xdf\x06\x00\x00'
p7289
tp7290
Rp7291
sVintense
p7292
g2
(g6
S'\xb9\x03\x00\x00'
p7293
tp7294
Rp7295
sVshine
p7296
g2
(g6
S'q\x06\x00\x00'
p7297
tp7298
Rp7299
sVentrepreneurs
p7300
g2
(g6
S'q\x02\x00\x00'
p7301
tp7302
Rp7303
sVmessaging
p7304
g2
(g6
S'\x94\x04\x00\x00'
p7305
tp7306
Rp7307
sVwomens
p7308
g2
(g6
S'\x0b\x08\x00\x00'
p7309
tp7310
Rp7311
sVwithtoday
p7312
g2
(g6
S'\x06\x08\x00\x00'
p7313
tp7314
Rp7315
sVbezel
p7316
g2
(g6
S'\xc0\x00\x00\x00'
p7317
tp7318
Rp7319
sVquestion
p7320
g2
(g6
S'\xba\x05\x00\x00'
p7321
tp7322
Rp7323
sVfast
p7324
g2
(g6
S'\xa0\x02\x00\x00'
p7325
tp7326
Rp7327
sVfiles
p7328
g2
(g6
S'\xb8\x02\x00\x00'
p7329
tp7330
Rp7331
sVmountains
p7332
g2
(g6
S'\xcb\x04\x00\x00'
p7333
tp7334
Rp7335
sVupright
p7336
g2
(g6
S'\xae\x07\x00\x00'
p7337
tp7338
Rp7339
sVinfo
p7340
g2
(g6
S'\xa6\x03\x00\x00'
p7341
tp7342
Rp7343
sVlifespan
p7344
g2
(g6
S'-\x04\x00\x00'
p7345
tp7346
Rp7347
sVmobile
p7348
g2
(g6
S'\xb5\x04\x00\x00'
p7349
tp7350
Rp7351
sVcalled
p7352
g2
(g6
S'\x18\x01\x00\x00'
p7353
tp7354
Rp7355
sVuber
p7356
g2
(g6
S'\x9c\x07\x00\x00'
p7357
tp7358
Rp7359
sVordered
p7360
g2
(g6
S'\x15\x05\x00\x00'
p7361
tp7362
Rp7363
sVtiniest
p7364
g2
(g6
S'R\x07\x00\x00'
p7365
tp7366
Rp7367
sVdoesn
p7368
g2
(g6
S'-\x02\x00\x00'
p7369
tp7370
Rp7371
sVmerry
p7372
g2
(g6
S'\x91\x04\x00\x00'
p7373
tp7374
Rp7375
sVingredients
p7376
g2
(g6
S'\xa9\x03\x00\x00'
p7377
tp7378
Rp7379
sVrainbow
p7380
g2
(g6
S'\xc7\x05\x00\x00'
p7381
tp7382
Rp7383
sVnap
p7384
g2
(g6
S'\xd7\x04\x00\x00'
p7385
tp7386
Rp7387
sVnat
p7388
g2
(g6
S'\xda\x04\x00\x00'
p7389
tp7390
Rp7391
sVnice
p7392
g2
(g6
S'\xee\x04\x00\x00'
p7393
tp7394
Rp7395
sVusers
p7396
g2
(g6
S'\xb6\x07\x00\x00'
p7397
tp7398
Rp7399
sVhelping
p7400
g2
(g6
S'^\x03\x00\x00'
p7401
tp7402
Rp7403
sVchocolate
p7404
g2
(g6
S'_\x01\x00\x00'
p7405
tp7406
Rp7407
sVrequired
p7408
g2
(g6
S'\xf2\x05\x00\x00'
p7409
tp7410
Rp7411
sVhoverboards
p7412
g2
(g6
S'\x84\x03\x00\x00'
p7413
tp7414
Rp7415
sVincl
p7416
g2
(g6
S'\x9e\x03\x00\x00'
p7417
tp7418
Rp7419
sVrequires
p7420
g2
(g6
S'\xf3\x05\x00\x00'
p7421
tp7422
Rp7423
sVscroll
p7424
g2
(g6
S'A\x06\x00\x00'
p7425
tp7426
Rp7427
sVmores
p7428
g2
(g6
S'\xc4\x04\x00\x00'
p7429
tp7430
Rp7431
sVhelped
p7432
g2
(g6
S']\x03\x00\x00'
p7433
tp7434
Rp7435
sVlally
p7436
g2
(g6
S'\x06\x04\x00\x00'
p7437
tp7438
Rp7439
sVgc
p7440
g2
(g6
S'\xfb\x02\x00\x00'
p7441
tp7442
Rp7443
sVhhttgs
p7444
g2
(g6
S'g\x03\x00\x00'
p7445
tp7446
Rp7447
sVkate
p7448
g2
(g6
S'\xea\x03\x00\x00'
p7449
tp7450
Rp7451
sVgold
p7452
g2
(g6
S'\x1d\x03\x00\x00'
p7453
tp7454
Rp7455
sVlanguages
p7456
g2
(g6
S'\t\x04\x00\x00'
p7457
tp7458
Rp7459
sVinclude
p7460
g2
(g6
S'\x9f\x03\x00\x00'
p7461
tp7462
Rp7463
sVfriendly
p7464
g2
(g6
S'\xe5\x02\x00\x00'
p7465
tp7466
Rp7467
sVinfinite
p7468
g2
(g6
S'\xa5\x03\x00\x00'
p7469
tp7470
Rp7471
sVkitty
p7472
g2
(g6
S'\x01\x04\x00\x00'
p7473
tp7474
Rp7475
sVtelling
p7476
g2
(g6
S'0\x07\x00\x00'
p7477
tp7478
Rp7479
sVrad
p7480
g2
(g6
S'\xc4\x05\x00\x00'
p7481
tp7482
Rp7483
sVbutton
p7484
g2
(g6
S'\x10\x01\x00\x00'
p7485
tp7486
Rp7487
sVmichael
p7488
g2
(g6
S'\x99\x04\x00\x00'
p7489
tp7490
Rp7491
sVdeals
p7492
g2
(g6
S'\xf8\x01\x00\x00'
p7493
tp7494
Rp7495
sVcar
p7496
g2
(g6
S'&\x01\x00\x00'
p7497
tp7498
Rp7499
sVflashlights
p7500
g2
(g6
S'\xc7\x02\x00\x00'
p7501
tp7502
Rp7503
sVgoodies
p7504
g2
(g6
S'$\x03\x00\x00'
p7505
tp7506
Rp7507
sVbooth
p7508
g2
(g6
S'\xe3\x00\x00\x00'
p7509
tp7510
Rp7511
sVdownload
p7512
g2
(g6
S':\x02\x00\x00'
p7513
tp7514
Rp7515
sVhonors
p7516
g2
(g6
S'y\x03\x00\x00'
p7517
tp7518
Rp7519
sVwaiting
p7520
g2
(g6
S'\xce\x07\x00\x00'
p7521
tp7522
Rp7523
sVrouters
p7524
g2
(g6
S'\x15\x06\x00\x00'
p7525
tp7526
Rp7527
sVdegree
p7528
g2
(g6
S'\x00\x02\x00\x00'
p7529
tp7530
Rp7531
sVexplore
p7532
g2
(g6
S'\x89\x02\x00\x00'
p7533
tp7534
Rp7535
sVpancake
p7536
g2
(g6
S')\x05\x00\x00'
p7537
tp7538
Rp7539
sVwin
p7540
g2
(g6
S'\xf3\x07\x00\x00'
p7541
tp7542
Rp7543
sVapp
p7544
g2
(g6
S'y\x00\x00\x00'
p7545
tp7546
Rp7547
sVmanage
p7548
g2
(g6
S'm\x04\x00\x00'
p7549
tp7550
Rp7551
sVcrazy
p7552
g2
(g6
S'\xc2\x01\x00\x00'
p7553
tp7554
Rp7555
sVduck
p7556
g2
(g6
S'K\x02\x00\x00'
p7557
tp7558
Rp7559
sVapply
p7560
g2
(g6
S'|\x00\x00\x00'
p7561
tp7562
Rp7563
sVsinging
p7564
g2
(g6
S'\x85\x06\x00\x00'
p7565
tp7566
Rp7567
sVuse
p7568
g2
(g6
S'\xb3\x07\x00\x00'
p7569
tp7570
Rp7571
sVusa
p7572
g2
(g6
S'\xb2\x07\x00\x00'
p7573
tp7574
Rp7575
sVdoodle
p7576
g2
(g6
S'6\x02\x00\x00'
p7577
tp7578
Rp7579
sVcamera
p7580
g2
(g6
S'\x1e\x01\x00\x00'
p7581
tp7582
Rp7583
sVstage
p7584
g2
(g6
S'\xce\x06\x00\x00'
p7585
tp7586
Rp7587
sVsort
p7588
g2
(g6
S'\xb1\x06\x00\x00'
p7589
tp7590
Rp7591
sVstarted
p7592
g2
(g6
S'\xd6\x06\x00\x00'
p7593
tp7594
Rp7595
sVannouncing
p7596
g2
(g6
S'u\x00\x00\x00'
p7597
tp7598
Rp7599
sVride
p7600
g2
(g6
S'\x01\x06\x00\x00'
p7601
tp7602
Rp7603
sVgetting
p7604
g2
(g6
S'\x04\x03\x00\x00'
p7605
tp7606
Rp7607
sVcrossed
p7608
g2
(g6
S'\xd0\x01\x00\x00'
p7609
tp7610
Rp7611
sVfreedom
p7612
g2
(g6
S'\xdf\x02\x00\x00'
p7613
tp7614
Rp7615
sVmeet
p7616
g2
(g6
S'\x87\x04\x00\x00'
p7617
tp7618
Rp7619
sVcontrol
p7620
g2
(g6
S'\xa5\x01\x00\x00'
p7621
tp7622
Rp7623
sVtap
p7624
g2
(g6
S'#\x07\x00\x00'
p7625
tp7626
Rp7627
sVtax
p7628
g2
(g6
S"'\x07\x00\x00"
p7629
tp7630
Rp7631
sVtag
p7632
g2
(g6
S'\x1b\x07\x00\x00'
p7633
tp7634
Rp7635
sVsit
p7636
g2
(g6
S'\x89\x06\x00\x00'
p7637
tp7638
Rp7639
sVinstead
p7640
g2
(g6
S'\xb7\x03\x00\x00'
p7641
tp7642
Rp7643
sVcircular
p7644
g2
(g6
S'i\x01\x00\x00'
p7645
tp7646
Rp7647
sVwrist
p7648
g2
(g6
S'\x1f\x08\x00\x00'
p7649
tp7650
Rp7651
sVsomethin
p7652
g2
(g6
S'\xab\x06\x00\x00'
p7653
tp7654
Rp7655
sVlight
p7656
g2
(g6
S'/\x04\x00\x00'
p7657
tp7658
Rp7659
sVfeels
p7660
g2
(g6
S'\xb2\x02\x00\x00'
p7661
tp7662
Rp7663
sVfastest
p7664
g2
(g6
S'\xa2\x02\x00\x00'
p7665
tp7666
Rp7667
sVincluding
p7668
g2
(g6
S'\xa2\x03\x00\x00'
p7669
tp7670
Rp7671
sVcostume
p7672
g2
(g6
S'\xb3\x01\x00\x00'
p7673
tp7674
Rp7675
sVchoose
p7676
g2
(g6
S'b\x01\x00\x00'
p7677
tp7678
Rp7679
sVorange
p7680
g2
(g6
S'\x13\x05\x00\x00'
p7681
tp7682
Rp7683
sVcovered
p7684
g2
(g6
S'\xbf\x01\x00\x00'
p7685
tp7686
Rp7687
sVzova
p7688
g2
(g6
S'5\x08\x00\x00'
p7689
tp7690
Rp7691
sVholiday
p7692
g2
(g6
S'r\x03\x00\x00'
p7693
tp7694
Rp7695
sVpixel
p7696
g2
(g6
S'[\x05\x00\x00'
p7697
tp7698
Rp7699
sVcrash
p7700
g2
(g6
S'\xc1\x01\x00\x00'
p7701
tp7702
Rp7703
sVhands
p7704
g2
(g6
S'D\x03\x00\x00'
p7705
tp7706
Rp7707
sVhandy
p7708
g2
(g6
S'E\x03\x00\x00'
p7709
tp7710
Rp7711
sVworlds
p7712
g2
(g6
S'\x18\x08\x00\x00'
p7713
tp7714
Rp7715
sVnfc
p7716
g2
(g6
S'\xec\x04\x00\x00'
p7717
tp7718
Rp7719
sVnfl
p7720
g2
(g6
S'\xed\x04\x00\x00'
p7721
tp7722
Rp7723
sVfeast
p7724
g2
(g6
S'\xa7\x02\x00\x00'
p7725
tp7726
Rp7727
sVdoesnt
p7728
g2
(g6
S'.\x02\x00\x00'
p7729
tp7730
Rp7731
sVglobe
p7732
g2
(g6
S'\x13\x03\x00\x00'
p7733
tp7734
Rp7735
sVbluetooth
p7736
g2
(g6
S'\xd5\x00\x00\x00'
p7737
tp7738
Rp7739
sVmotorola
p7740
g2
(g6
S'\xc9\x04\x00\x00'
p7741
tp7742
Rp7743
sVspecial
p7744
g2
(g6
S'\xbb\x06\x00\x00'
p7745
tp7746
Rp7747
sVcategory
p7748
g2
(g6
S'5\x01\x00\x00'
p7749
tp7750
Rp7751
sVentertainment
p7752
g2
(g6
S'p\x02\x00\x00'
p7753
tp7754
Rp7755
sVcause
p7756
g2
(g6
S'9\x01\x00\x00'
p7757
tp7758
Rp7759
sVyork
p7760
g2
(g6
S'.\x08\x00\x00'
p7761
tp7762
Rp7763
sVrejoice
p7764
g2
(g6
S'\xe7\x05\x00\x00'
p7765
tp7766
Rp7767
sVtimes
p7768
g2
(g6
S'Q\x07\x00\x00'
p7769
tp7770
Rp7771
sVchromecast
p7772
g2
(g6
S'e\x01\x00\x00'
p7773
tp7774
Rp7775
sVdrinker
p7776
g2
(g6
S'B\x02\x00\x00'
p7777
tp7778
Rp7779
sVquality
p7780
g2
(g6
S'\xb8\x05\x00\x00'
p7781
tp7782
Rp7783
sVplaylist
p7784
g2
(g6
S'i\x05\x00\x00'
p7785
tp7786
Rp7787
sVmanagement
p7788
g2
(g6
S'n\x04\x00\x00'
p7789
tp7790
Rp7791
sVbears
p7792
g2
(g6
S'\xb5\x00\x00\x00'
p7793
tp7794
Rp7795
sVdata
p7796
g2
(g6
S'\xf0\x01\x00\x00'
p7797
tp7798
Rp7799
sVsep
p7800
g2
(g6
S'Y\x06\x00\x00'
p7801
tp7802
Rp7803
sVperfectly
p7804
g2
(g6
S'C\x05\x00\x00'
p7805
tp7806
Rp7807
sVfinal
p7808
g2
(g6
S'\xbc\x02\x00\x00'
p7809
tp7810
Rp7811
sVlists
p7812
g2
(g6
S'<\x04\x00\x00'
p7813
tp7814
Rp7815
sVjuly
p7816
g2
(g6
S'\xe6\x03\x00\x00'
p7817
tp7818
Rp7819
sVreunification
p7820
g2
(g6
S'\xfc\x05\x00\x00'
p7821
tp7822
Rp7823
sVbed
p7824
g2
(g6
S'\xbb\x00\x00\x00'
p7825
tp7826
Rp7827
sVmoto
p7828
g2
(g6
S'\xc8\x04\x00\x00'
p7829
tp7830
Rp7831
sVsnazzy
p7832
g2
(g6
S'\xa5\x06\x00\x00'
p7833
tp7834
Rp7835
sVclip
p7836
g2
(g6
S's\x01\x00\x00'
p7837
tp7838
Rp7839
sVgoodie
p7840
g2
(g6
S'#\x03\x00\x00'
p7841
tp7842
Rp7843
sVneed
p7844
g2
(g6
S'\xe3\x04\x00\x00'
p7845
tp7846
Rp7847
sVafraid
p7848
g2
(g6
S'Z\x00\x00\x00'
p7849
tp7850
Rp7851
sVangle
p7852
g2
(g6
S'o\x00\x00\x00'
p7853
tp7854
Rp7855
sVmedals
p7856
g2
(g6
S'\x86\x04\x00\x00'
p7857
tp7858
Rp7859
sVcombat
p7860
g2
(g6
S'\x89\x01\x00\x00'
p7861
tp7862
Rp7863
sVconnected
p7864
g2
(g6
S'\x9b\x01\x00\x00'
p7865
tp7866
Rp7867
sVgallery
p7868
g2
(g6
S'\xf4\x02\x00\x00'
p7869
tp7870
Rp7871
sVmiyares
p7872
g2
(g6
S'\xb2\x04\x00\x00'
p7873
tp7874
Rp7875
sVplanning
p7876
g2
(g6
S'b\x05\x00\x00'
p7877
tp7878
Rp7879
sVfeat
p7880
g2
(g6
S'\xa8\x02\x00\x00'
p7881
tp7882
Rp7883
sVmugs
p7884
g2
(g6
S'\xd1\x04\x00\x00'
p7885
tp7886
Rp7887
sVwinner
p7888
g2
(g6
S'\xf7\x07\x00\x00'
p7889
tp7890
Rp7891
sVbrighten
p7892
g2
(g6
S'\xf7\x00\x00\x00'
p7893
tp7894
Rp7895
sVbrighter
p7896
g2
(g6
S'\xf8\x00\x00\x00'
p7897
tp7898
Rp7899
sVlocal
p7900
g2
(g6
S'F\x04\x00\x00'
p7901
tp7902
Rp7903
sVachieve
p7904
g2
(g6
S'F\x00\x00\x00'
p7905
tp7906
Rp7907
sVwatching
p7908
g2
(g6
S'\xdc\x07\x00\x00'
p7909
tp7910
Rp7911
sV120
p7912
g2
(g6
S'\x07\x00\x00\x00'
p7913
tp7914
Rp7915
sVones
p7916
g2
(g6
S'\n\x05\x00\x00'
p7917
tp7918
Rp7919
sVendless
p7920
g2
(g6
S'g\x02\x00\x00'
p7921
tp7922
Rp7923
sVglory
p7924
g2
(g6
S'\x14\x03\x00\x00'
p7925
tp7926
Rp7927
sVtrucks
p7928
g2
(g6
S'\x85\x07\x00\x00'
p7929
tp7930
Rp7931
sVtuned
p7932
g2
(g6
S'\x8e\x07\x00\x00'
p7933
tp7934
Rp7935
sVqa
p7936
g2
(g6
S'\xb5\x05\x00\x00'
p7937
tp7938
Rp7939
sVwish
p7940
g2
(g6
S'\xfd\x07\x00\x00'
p7941
tp7942
Rp7943
sVgrab
p7944
g2
(g6
S'*\x03\x00\x00'
p7945
tp7946
Rp7947
sVfuturistic
p7948
g2
(g6
S'\xf1\x02\x00\x00'
p7949
tp7950
Rp7951
sVview
p7952
g2
(g6
S'\xc2\x07\x00\x00'
p7953
tp7954
Rp7955
sVspotted
p7956
g2
(g6
S'\xca\x06\x00\x00'
p7957
tp7958
Rp7959
sVfreeze
p7960
g2
(g6
S'\xe0\x02\x00\x00'
p7961
tp7962
Rp7963
sVhhttgedge
p7964
g2
(g6
S'f\x03\x00\x00'
p7965
tp7966
Rp7967
sVcloser
p7968
g2
(g6
S'w\x01\x00\x00'
p7969
tp7970
Rp7971
sVstate
p7972
g2
(g6
S'\xda\x06\x00\x00'
p7973
tp7974
Rp7975
sVjoy
p7976
g2
(g6
S'\xe4\x03\x00\x00'
p7977
tp7978
Rp7979
sVkicking
p7980
g2
(g6
S'\xf1\x03\x00\x00'
p7981
tp7982
Rp7983
sVkey
p7984
g2
(g6
S'\xee\x03\x00\x00'
p7985
tp7986
Rp7987
sVcareer
p7988
g2
(g6
S'+\x01\x00\x00'
p7989
tp7990
Rp7991
sVminds
p7992
g2
(g6
S'\xa4\x04\x00\x00'
p7993
tp7994
Rp7995
sVtactical
p7996
g2
(g6
S'\x19\x07\x00\x00'
p7997
tp7998
Rp7999
sVarris
p8000
g2
(g6
S'\x83\x00\x00\x00'
p8001
tp8002
Rp8003
sVtuesday
p8004
g2
(g6
S'\x8b\x07\x00\x00'
p8005
tp8006
Rp8007
sVwalk
p8008
g2
(g6
S'\xd0\x07\x00\x00'
p8009
tp8010
Rp8011
sVpackaging
p8012
g2
(g6
S'#\x05\x00\x00'
p8013
tp8014
Rp8015
sVrpg
p8016
g2
(g6
S'\x18\x06\x00\x00'
p8017
tp8018
Rp8019
sVspotlight
p8020
g2
(g6
S'\xc9\x06\x00\x00'
p8021
tp8022
Rp8023
sVchallenging
p8024
g2
(g6
S'G\x01\x00\x00'
p8025
tp8026
Rp8027
sVcharts
p8028
g2
(g6
S'R\x01\x00\x00'
p8029
tp8030
Rp8031
sVquiz
p8032
g2
(g6
S'\xbf\x05\x00\x00'
p8033
tp8034
Rp8035
sVreindeer
p8036
g2
(g6
S'\xe6\x05\x00\x00'
p8037
tp8038
Rp8039
sVunspoken
p8040
g2
(g6
S'\xa9\x07\x00\x00'
p8041
tp8042
Rp8043
sVtreat
p8044
g2
(g6
S'y\x07\x00\x00'
p8045
tp8046
Rp8047
sVtraveling
p8048
g2
(g6
S'w\x07\x00\x00'
p8049
tp8050
Rp8051
sVcontrolled
p8052
g2
(g6
S'\xa6\x01\x00\x00'
p8053
tp8054
Rp8055
sVghoulish
p8056
g2
(g6
S'\x06\x03\x00\x00'
p8057
tp8058
Rp8059
sVkicks
p8060
g2
(g6
S'\xf3\x03\x00\x00'
p8061
tp8062
Rp8063
sVpresent
p8064
g2
(g6
S'\x88\x05\x00\x00'
p8065
tp8066
Rp8067
sVharder
p8068
g2
(g6
S'K\x03\x00\x00'
p8069
tp8070
Rp8071
sVstunning
p8072
g2
(g6
S'\xf9\x06\x00\x00'
p8073
tp8074
Rp8075
sVsurface
p8076
g2
(g6
S'\x08\x07\x00\x00'
p8077
tp8078
Rp8079
sVdual
p8080
g2
(g6
S'J\x02\x00\x00'
p8081
tp8082
Rp8083
sVcapture
p8084
g2
(g6
S'$\x01\x00\x00'
p8085
tp8086
Rp8087
sVshooting
p8088
g2
(g6
S'x\x06\x00\x00'
p8089
tp8090
Rp8091
sVcross
p8092
g2
(g6
S'\xcf\x01\x00\x00'
p8093
tp8094
Rp8095
sVmember
p8096
g2
(g6
S'\x8a\x04\x00\x00'
p8097
tp8098
Rp8099
sVparty
p8100
g2
(g6
S'1\x05\x00\x00'
p8101
tp8102
Rp8103
sVfanatics
p8104
g2
(g6
S'\x99\x02\x00\x00'
p8105
tp8106
Rp8107
sVanki
p8108
g2
(g6
S's\x00\x00\x00'
p8109
tp8110
Rp8111
sVoctagon
p8112
g2
(g6
S'\xfe\x04\x00\x00'
p8113
tp8114
Rp8115
sVautomation
p8116
g2
(g6
S'\x96\x00\x00\x00'
p8117
tp8118
Rp8119
sVstudent
p8120
g2
(g6
S'\xf5\x06\x00\x00'
p8121
tp8122
Rp8123
sVnation
p8124
g2
(g6
S'\xdb\x04\x00\x00'
p8125
tp8126
Rp8127
sVpull
p8128
g2
(g6
S'\xa6\x05\x00\x00'
p8129
tp8130
Rp8131
sVsurfboard
p8132
g2
(g6
S'\t\x07\x00\x00'
p8133
tp8134
Rp8135
sVunpacked
p8136
g2
(g6
S'\xa8\x07\x00\x00'
p8137
tp8138
Rp8139
sVfighting
p8140
g2
(g6
S'\xb7\x02\x00\x00'
p8141
tp8142
Rp8143
sVfinds
p8144
g2
(g6
S'\xc1\x02\x00\x00'
p8145
tp8146
Rp8147
sVdrone
p8148
g2
(g6
S'F\x02\x00\x00'
p8149
tp8150
Rp8151
sVmixers
p8152
g2
(g6
S'\xb1\x04\x00\x00'
p8153
tp8154
Rp8155
sVredmond
p8156
g2
(g6
S'\xde\x05\x00\x00'
p8157
tp8158
Rp8159
sVconquer
p8160
g2
(g6
S'\x9c\x01\x00\x00'
p8161
tp8162
Rp8163
sVcamel
p8164
g2
(g6
S'\x1d\x01\x00\x00'
p8165
tp8166
Rp8167
sVvirtual
p8168
g2
(g6
S'\xc4\x07\x00\x00'
p8169
tp8170
Rp8171
sVconsole
p8172
g2
(g6
S'\x9e\x01\x00\x00'
p8173
tp8174
Rp8175
sVbattery
p8176
g2
(g6
S'\xae\x00\x00\x00'
p8177
tp8178
Rp8179
sVkick
p8180
g2
(g6
S'\xf0\x03\x00\x00'
p8181
tp8182
Rp8183
sVlivin
p8184
g2
(g6
S'B\x04\x00\x00'
p8185
tp8186
Rp8187
sVknow
p8188
g2
(g6
S'\x02\x04\x00\x00'
p8189
tp8190
Rp8191
sVlincoln
p8192
g2
(g6
S'5\x04\x00\x00'
p8193
tp8194
Rp8195
sVlost
p8196
g2
(g6
S'R\x04\x00\x00'
p8197
tp8198
Rp8199
sVsizes
p8200
g2
(g6
S'\x8d\x06\x00\x00'
p8201
tp8202
Rp8203
sVmiami
p8204
g2
(g6
S'\x97\x04\x00\x00'
p8205
tp8206
Rp8207
sVcandy
p8208
g2
(g6
S'"\x01\x00\x00'
p8209
tp8210
Rp8211
sVsized
p8212
g2
(g6
S'\x8c\x06\x00\x00'
p8213
tp8214
Rp8215
sVlose
p8216
g2
(g6
S'Q\x04\x00\x00'
p8217
tp8218
Rp8219
sVstarred
p8220
g2
(g6
S'\xd3\x06\x00\x00'
p8221
tp8222
Rp8223
sVrefugees
p8224
g2
(g6
S'\xe0\x05\x00\x00'
p8225
tp8226
Rp8227
sVtwitter
p8228
g2
(g6
S'\x9b\x07\x00\x00'
p8229
tp8230
Rp8231
sVshes
p8232
g2
(g6
S'o\x06\x00\x00'
p8233
tp8234
Rp8235
sVhome
p8236
g2
(g6
S't\x03\x00\x00'
p8237
tp8238
Rp8239
sVlead
p8240
g2
(g6
S'\x16\x04\x00\x00'
p8241
tp8242
Rp8243
sVsweepstakes
p8244
g2
(g6
S'\x10\x07\x00\x00'
p8245
tp8246
Rp8247
sVshipping
p8248
g2
(g6
S'u\x06\x00\x00'
p8249
tp8250
Rp8251
sVcompatible
p8252
g2
(g6
S'\x93\x01\x00\x00'
p8253
tp8254
Rp8255
sVcranberry
p8256
g2
(g6
S'\xc0\x01\x00\x00'
p8257
tp8258
Rp8259
sVwashington
p8260
g2
(g6
S'\xd9\x07\x00\x00'
p8261
tp8262
Rp8263
sVclassics
p8264
g2
(g6
S'm\x01\x00\x00'
p8265
tp8266
Rp8267
sVweather
p8268
g2
(g6
S'\xe2\x07\x00\x00'
p8269
tp8270
Rp8271
sVpromise
p8272
g2
(g6
S'\xa0\x05\x00\x00'
p8273
tp8274
Rp8275
sVartists
p8276
g2
(g6
S'\x8d\x00\x00\x00'
p8277
tp8278
Rp8279
sVapps
p8280
g2
(g6
S'}\x00\x00\x00'
p8281
tp8282
Rp8283
sVinspiration
p8284
g2
(g6
S'\xb0\x03\x00\x00'
p8285
tp8286
Rp8287
sVghost
p8288
g2
(g6
S'\x05\x03\x00\x00'
p8289
tp8290
Rp8291
sVhp
p8292
g2
(g6
S'\x85\x03\x00\x00'
p8293
tp8294
Rp8295
sVhq
p8296
g2
(g6
S'\x86\x03\x00\x00'
p8297
tp8298
Rp8299
sVgoals
p8300
g2
(g6
S'\x18\x03\x00\x00'
p8301
tp8302
Rp8303
sVteaming
p8304
g2
(g6
S'+\x07\x00\x00'
p8305
tp8306
Rp8307
sVeat
p8308
g2
(g6
S'R\x02\x00\x00'
p8309
tp8310
Rp8311
sVhd
p8312
g2
(g6
S'Q\x03\x00\x00'
p8313
tp8314
Rp8315
sVtactics
p8316
g2
(g6
S'\x1a\x07\x00\x00'
p8317
tp8318
Rp8319
sVhosting
p8320
g2
(g6
S'~\x03\x00\x00'
p8321
tp8322
Rp8323
sVrecord
p8324
g2
(g6
S'\xdc\x05\x00\x00'
p8325
tp8326
Rp8327
sVstories
p8328
g2
(g6
S'\xea\x06\x00\x00'
p8329
tp8330
Rp8331
sVcake
p8332
g2
(g6
S'\x15\x01\x00\x00'
p8333
tp8334
Rp8335
sVpiece
p8336
g2
(g6
S'X\x05\x00\x00'
p8337
tp8338
Rp8339
sVdisplay
p8340
g2
(g6
S'%\x02\x00\x00'
p8341
tp8342
Rp8343
sVjalouzi
p8344
g2
(g6
S'\xd6\x03\x00\x00'
p8345
tp8346
Rp8347
sVuniversal
p8348
g2
(g6
S'\xa5\x07\x00\x00'
p8349
tp8350
Rp8351
sVtwist
p8352
g2
(g6
S'\x9a\x07\x00\x00'
p8353
tp8354
Rp8355
sVbeats
p8356
g2
(g6
S'\xb8\x00\x00\x00'
p8357
tp8358
Rp8359
sVcrystals
p8360
g2
(g6
S'\xd1\x01\x00\x00'
p8361
tp8362
Rp8363
sVeducation
p8364
g2
(g6
S'Y\x02\x00\x00'
p8365
tp8366
Rp8367
sVcontest
p8368
g2
(g6
S'\xa2\x01\x00\x00'
p8369
tp8370
Rp8371
sVboot
p8372
g2
(g6
S'\xe2\x00\x00\x00'
p8373
tp8374
Rp8375
sVbook
p8376
g2
(g6
S'\xdd\x00\x00\x00'
p8377
tp8378
Rp8379
sVboom
p8380
g2
(g6
S'\xe1\x00\x00\x00'
p8381
tp8382
Rp8383
sVtalkie
p8384
g2
(g6
S' \x07\x00\x00'
p8385
tp8386
Rp8387
sVpdx
p8388
g2
(g6
S'<\x05\x00\x00'
p8389
tp8390
Rp8391
sVmonitors
p8392
g2
(g6
S'\xbf\x04\x00\x00'
p8393
tp8394
Rp8395
sValbum
p8396
g2
(g6
S'c\x00\x00\x00'
p8397
tp8398
Rp8399
sVstay
p8400
g2
(g6
S'\xdd\x06\x00\x00'
p8401
tp8402
Rp8403
sVfriends
p8404
g2
(g6
S'\xe6\x02\x00\x00'
p8405
tp8406
Rp8407
sVsamsung
p8408
g2
(g6
S'$\x06\x00\x00'
p8409
tp8410
Rp8411
sVunderstand
p8412
g2
(g6
S'\xa1\x07\x00\x00'
p8413
tp8414
Rp8415
s.