(dp0
Vhanging
p1
cnumpy.core.multiarray
scalar
p2
(cnumpy
dtype
p3
(S'i4'
p4
I0
I1
tp5
Rp6
(I3
S'<'
p7
NNNI-1
I-1
I0
tp8
bS'\x15\x03\x00\x00'
p9
tp10
Rp11
sVincrease
p12
g2
(g6
S'm\x03\x00\x00'
p13
tp14
Rp15
sVeligible
p16
g2
(g6
S'E\x02\x00\x00'
p17
tp18
Rp19
sVpresents
p20
g2
(g6
S'-\x05\x00\x00'
p21
tp22
Rp23
sVrickman
p24
g2
(g6
S'\xa6\x05\x00\x00'
p25
tp26
Rp27
sVsorry
p28
g2
(g6
S'<\x06\x00\x00'
p29
tp30
Rp31
sVussernm
p32
g2
(g6
S'\x1b\x07\x00\x00'
p33
tp34
Rp35
sVdell
p36
g2
(g6
S'\xe6\x01\x00\x00'
p37
tp38
Rp39
sVbringing
p40
g2
(g6
S'\xe4\x00\x00\x00'
p41
tp42
Rp43
sVbasics
p44
g2
(g6
S'\xa7\x00\x00\x00'
p45
tp46
Rp47
sVcompanies
p48
g2
(g6
S'\x7f\x01\x00\x00'
p49
tp50
Rp51
sVsolution
p52
g2
(g6
S'5\x06\x00\x00'
p53
tp54
Rp55
sVclothes
p56
g2
(g6
S'^\x01\x00\x00'
p57
tp58
Rp59
sVforce
p60
g2
(g6
S'\xc2\x02\x00\x00'
p61
tp62
Rp63
sV10m
p64
g2
(g6
S'\x04\x00\x00\x00'
p65
tp66
Rp67
sVmiller
p68
g2
(g6
S'L\x04\x00\x00'
p69
tp70
Rp71
sVsecond
p72
g2
(g6
S'\xe1\x05\x00\x00'
p73
tp74
Rp75
sVcooking
p76
g2
(g6
S'\x9a\x01\x00\x00'
p77
tp78
Rp79
sVfingers
p80
g2
(g6
S'\xad\x02\x00\x00'
p81
tp82
Rp83
sVlights
p84
g2
(g6
S'\xf3\x03\x00\x00'
p85
tp86
Rp87
sVnew
p88
g2
(g6
S'\x8a\x04\x00\x00'
p89
tp90
Rp91
sVtips
p92
g2
(g6
S'\xd3\x06\x00\x00'
p93
tp94
Rp95
sVhero
p96
g2
(g6
S'/\x03\x00\x00'
p97
tp98
Rp99
sVmen
p100
g2
(g6
S'C\x04\x00\x00'
p101
tp102
Rp103
sVlgbt
p104
g2
(g6
S'\xf0\x03\x00\x00'
p105
tp106
Rp107
sVchina
p108
g2
(g6
S'@\x01\x00\x00'
p109
tp110
Rp111
sV100
p112
g2
(g6
S'\x02\x00\x00\x00'
p113
tp114
Rp115
sVkids
p116
g2
(g6
S'\xc3\x03\x00\x00'
p117
tp118
Rp119
sVcredit
p120
g2
(g6
S'\xb1\x01\x00\x00'
p121
tp122
Rp123
sVmilitary
p124
g2
(g6
S'J\x04\x00\x00'
p125
tp126
Rp127
sVgolden
p128
g2
(g6
S'\xf7\x02\x00\x00'
p129
tp130
Rp131
sVexplained
p132
g2
(g6
S'|\x02\x00\x00'
p133
tp134
Rp135
sVjackets
p136
g2
(g6
S'\xa3\x03\x00\x00'
p137
tp138
Rp139
sVdna
p140
g2
(g6
S'\x0e\x02\x00\x00'
p141
tp142
Rp143
sVspoke
p144
g2
(g6
S'H\x06\x00\x00'
p145
tp146
Rp147
sVmusic
p148
g2
(g6
S'x\x04\x00\x00'
p149
tp150
Rp151
sVcard
p152
g2
(g6
S'\x12\x01\x00\x00'
p153
tp154
Rp155
sVtype
p156
g2
(g6
S'\x08\x07\x00\x00'
p157
tp158
Rp159
sVtell
p160
g2
(g6
S'\xb5\x06\x00\x00'
p161
tp162
Rp163
sVsuccessful
p164
g2
(g6
S'\x82\x06\x00\x00'
p165
tp166
Rp167
sVbrings
p168
g2
(g6
S'\xe5\x00\x00\x00'
p169
tp170
Rp171
sVexpose
p172
g2
(g6
S'\x7f\x02\x00\x00'
p173
tp174
Rp175
sVyahoo
p176
g2
(g6
S'\x80\x07\x00\x00'
p177
tp178
Rp179
sV99
p180
g2
(g6
S'5\x00\x00\x00'
p181
tp182
Rp183
sVglass
p184
g2
(g6
S'\xee\x02\x00\x00'
p185
tp186
Rp187
sVwarm
p188
g2
(g6
S'E\x07\x00\x00'
p189
tp190
Rp191
sVfriendsgiving
p192
g2
(g6
S'\xd0\x02\x00\x00'
p193
tp194
Rp195
sVroom
p196
g2
(g6
S'\xb5\x05\x00\x00'
p197
tp198
Rp199
sVrights
p200
g2
(g6
S'\xaa\x05\x00\x00'
p201
tp202
Rp203
sVmovies
p204
g2
(g6
S'o\x04\x00\x00'
p205
tp206
Rp207
sVtemperatures
p208
g2
(g6
S'\xb8\x06\x00\x00'
p209
tp210
Rp211
sVfoodie
p212
g2
(g6
S'\xbf\x02\x00\x00'
p213
tp214
Rp215
sVfoods
p216
g2
(g6
S'\xc0\x02\x00\x00'
p217
tp218
Rp219
sVwant
p220
g2
(g6
S'A\x07\x00\x00'
p221
tp222
Rp223
sVunforgettable
p224
g2
(g6
S'\r\x07\x00\x00'
p225
tp226
Rp227
sVtravel
p228
g2
(g6
S'\xec\x06\x00\x00'
p229
tp230
Rp231
sVfeature
p232
g2
(g6
S'\x93\x02\x00\x00'
p233
tp234
Rp235
sVmachine
p236
g2
(g6
S'\x19\x04\x00\x00'
p237
tp238
Rp239
sVamazing
p240
g2
(g6
S'_\x00\x00\x00'
p241
tp242
Rp243
sVhop
p244
g2
(g6
S'G\x03\x00\x00'
p245
tp246
Rp247
sVsignificance
p248
g2
(g6
S'\x13\x06\x00\x00'
p249
tp250
Rp251
sVanswer
p252
g2
(g6
S'p\x00\x00\x00'
p253
tp254
Rp255
sVgaming
p256
g2
(g6
S'\xd7\x02\x00\x00'
p257
tp258
Rp259
sVbeauty
p260
g2
(g6
S'\xac\x00\x00\x00'
p261
tp262
Rp263
sVpresident
p264
g2
(g6
S'.\x05\x00\x00'
p265
tp266
Rp267
sVpurchase
p268
g2
(g6
S'P\x05\x00\x00'
p269
tp270
Rp271
sVwins
p272
g2
(g6
S'i\x07\x00\x00'
p273
tp274
Rp275
sVowls
p276
g2
(g6
S'\xb8\x04\x00\x00'
p277
tp278
Rp279
sVkeeps
p280
g2
(g6
S'\xbb\x03\x00\x00'
p281
tp282
Rp283
sVathletes
p284
g2
(g6
S'\x8a\x00\x00\x00'
p285
tp286
Rp287
sVwind
p288
g2
(g6
S'c\x07\x00\x00'
p289
tp290
Rp291
sVwine
p292
g2
(g6
S'e\x07\x00\x00'
p293
tp294
Rp295
sVdeck
p296
g2
(g6
S'\xdf\x01\x00\x00'
p297
tp298
Rp299
sVkickoff
p300
g2
(g6
S'\xc0\x03\x00\x00'
p301
tp302
Rp303
sVpartnered
p304
g2
(g6
S'\xcd\x04\x00\x00'
p305
tp306
Rp307
sVfit
p308
g2
(g6
S'\xb0\x02\x00\x00'
p309
tp310
Rp311
sVpersonal
p312
g2
(g6
S'\xe8\x04\x00\x00'
p313
tp314
Rp315
sVfix
p316
g2
(g6
S'\xb2\x02\x00\x00'
p317
tp318
Rp319
sVcrew
p320
g2
(g6
S'\xb2\x01\x00\x00'
p321
tp322
Rp323
sVbetter
p324
g2
(g6
S'\xb6\x00\x00\x00'
p325
tp326
Rp327
sVeasier
p328
g2
(g6
S'6\x02\x00\x00'
p329
tp330
Rp331
sVslate
p332
g2
(g6
S'\x1f\x06\x00\x00'
p333
tp334
Rp335
sVschools
p336
g2
(g6
S'\xd7\x05\x00\x00'
p337
tp338
Rp339
sVaddicted
p340
g2
(g6
S'D\x00\x00\x00'
p341
tp342
Rp343
sVwent
p344
g2
(g6
S'V\x07\x00\x00'
p345
tp346
Rp347
sVsoft
p348
g2
(g6
S'2\x06\x00\x00'
p349
tp350
Rp351
sVmean
p352
g2
(g6
S'8\x04\x00\x00'
p353
tp354
Rp355
sVfinancial
p356
g2
(g6
S'\xa8\x02\x00\x00'
p357
tp358
Rp359
sVseries
p360
g2
(g6
S'\xf2\x05\x00\x00'
p361
tp362
Rp363
sVarrives
p364
g2
(g6
S'\x80\x00\x00\x00'
p365
tp366
Rp367
sVaids
p368
g2
(g6
S'S\x00\x00\x00'
p369
tp370
Rp371
sVwhip
p372
g2
(g6
S'\\\x07\x00\x00'
p373
tp374
Rp375
sVrt
p376
g2
(g6
S'\xb9\x05\x00\x00'
p377
tp378
Rp379
sVoprah
p380
g2
(g6
S'\xae\x04\x00\x00'
p381
tp382
Rp383
sVdss
p384
g2
(g6
S'.\x02\x00\x00'
p385
tp386
Rp387
sVcontent
p388
g2
(g6
S'\x92\x01\x00\x00'
p389
tp390
Rp391
sVsize
p392
g2
(g6
S'\x1b\x06\x00\x00'
p393
tp394
Rp395
sVresume
p396
g2
(g6
S'\x98\x05\x00\x00'
p397
tp398
Rp399
sVstruggle
p400
g2
(g6
S'u\x06\x00\x00'
p401
tp402
Rp403
sVcrowned
p404
g2
(g6
S'\xb6\x01\x00\x00'
p405
tp406
Rp407
sVcookbooks
p408
g2
(g6
S'\x97\x01\x00\x00'
p409
tp410
Rp411
sVr3
p412
g2
(g6
S'^\x05\x00\x00'
p413
tp414
Rp415
sVstarts
p416
g2
(g6
S'Z\x06\x00\x00'
p417
tp418
Rp419
sVmoment
p420
g2
(g6
S'\\\x04\x00\x00'
p421
tp422
Rp423
sVatt
p424
g2
(g6
S'\x8b\x00\x00\x00'
p425
tp426
Rp427
sVmusicians
p428
g2
(g6
S'y\x04\x00\x00'
p429
tp430
Rp431
sVisn
p432
g2
(g6
S'\x9e\x03\x00\x00'
p433
tp434
Rp435
sVloud
p436
g2
(g6
S'\r\x04\x00\x00'
p437
tp438
Rp439
sVfeatures
p440
g2
(g6
S'\x94\x02\x00\x00'
p441
tp442
Rp443
sVhook
p444
g2
(g6
S'F\x03\x00\x00'
p445
tp446
Rp447
sVplastic
p448
g2
(g6
S'\x04\x05\x00\x00'
p449
tp450
Rp451
sVservice
p452
g2
(g6
S'\xf4\x05\x00\x00'
p453
tp454
Rp455
sVgirls
p456
g2
(g6
S'\xe9\x02\x00\x00'
p457
tp458
Rp459
sVmaster
p460
g2
(g6
S'1\x04\x00\x00'
p461
tp462
Rp463
sVhollywood
p464
g2
(g6
S'@\x03\x00\x00'
p465
tp466
Rp467
sVlisten
p468
g2
(g6
S'\xfb\x03\x00\x00'
p469
tp470
Rp471
sVrewards
p472
g2
(g6
S'\xa3\x05\x00\x00'
p473
tp474
Rp475
sV1m
p476
g2
(g6
S'\x10\x00\x00\x00'
p477
tp478
Rp479
sVproject
p480
g2
(g6
S'H\x05\x00\x00'
p481
tp482
Rp483
sVmatter
p484
g2
(g6
S'5\x04\x00\x00'
p485
tp486
Rp487
sVfeeling
p488
g2
(g6
S'\x98\x02\x00\x00'
p489
tp490
Rp491
sVacquisition
p492
g2
(g6
S';\x00\x00\x00'
p493
tp494
Rp495
sVmodern
p496
g2
(g6
S'Z\x04\x00\x00'
p497
tp498
Rp499
sVmind
p500
g2
(g6
S'O\x04\x00\x00'
p501
tp502
Rp503
sVspent
p504
g2
(g6
S'C\x06\x00\x00'
p505
tp506
Rp507
sVseed
p508
g2
(g6
S'\xe7\x05\x00\x00'
p509
tp510
Rp511
sVchildcare
p512
g2
(g6
S'>\x01\x00\x00'
p513
tp514
Rp515
sVseen
p516
g2
(g6
S'\xe9\x05\x00\x00'
p517
tp518
Rp519
sVtells
p520
g2
(g6
S'\xb7\x06\x00\x00'
p521
tp522
Rp523
sVcheer
p524
g2
(g6
S'8\x01\x00\x00'
p525
tp526
Rp527
sVdoors
p528
g2
(g6
S'\x1a\x02\x00\x00'
p529
tp530
Rp531
sVthrilled
p532
g2
(g6
S'\xc8\x06\x00\x00'
p533
tp534
Rp535
sVletter
p536
g2
(g6
S'\xec\x03\x00\x00'
p537
tp538
Rp539
sVmacbook
p540
g2
(g6
S'\x18\x04\x00\x00'
p541
tp542
Rp543
sVdon
p544
g2
(g6
S'\x14\x02\x00\x00'
p545
tp546
Rp547
sVdog
p548
g2
(g6
S'\x11\x02\x00\x00'
p549
tp550
Rp551
sVpoints
p552
g2
(g6
S'\x12\x05\x00\x00'
p553
tp554
Rp555
sVtech
p556
g2
(g6
S'\xb0\x06\x00\x00'
p557
tp558
Rp559
sVnominated
p560
g2
(g6
S'\x90\x04\x00\x00'
p561
tp562
Rp563
sVending
p564
g2
(g6
S'S\x02\x00\x00'
p565
tp566
Rp567
sVprix
p568
g2
(g6
S'<\x05\x00\x00'
p569
tp570
Rp571
sVorleans
p572
g2
(g6
S'\xb2\x04\x00\x00'
p573
tp574
Rp575
sVexplain
p576
g2
(g6
S'{\x02\x00\x00'
p577
tp578
Rp579
sVtheme
p580
g2
(g6
S'\xbf\x06\x00\x00'
p581
tp582
Rp583
sVrich
p584
g2
(g6
S'\xa5\x05\x00\x00'
p585
tp586
Rp587
sVwearing
p588
g2
(g6
S'L\x07\x00\x00'
p589
tp590
Rp591
sVstop
p592
g2
(g6
S'd\x06\x00\x00'
p593
tp594
Rp595
sVbag
p596
g2
(g6
S'\xa0\x00\x00\x00'
p597
tp598
Rp599
sVbad
p600
g2
(g6
S'\x9f\x00\x00\x00'
p601
tp602
Rp603
sVdisaster
p604
g2
(g6
S'\x06\x02\x00\x00'
p605
tp606
Rp607
sVdecided
p608
g2
(g6
S'\xde\x01\x00\x00'
p609
tp610
Rp611
sVbest
p612
g2
(g6
S'\xb5\x00\x00\x00'
p613
tp614
Rp615
sVsaid
p616
g2
(g6
S'\xc3\x05\x00\x00'
p617
tp618
Rp619
sVlots
p620
g2
(g6
S'\x0c\x04\x00\x00'
p621
tp622
Rp623
sVmultifamily
p624
g2
(g6
S'u\x04\x00\x00'
p625
tp626
Rp627
sVolympics
p628
g2
(g6
S'\xa4\x04\x00\x00'
p629
tp630
Rp631
sVpets
p632
g2
(g6
S'\xeb\x04\x00\x00'
p633
tp634
Rp635
sVreddit
p636
g2
(g6
S'\x7f\x05\x00\x00'
p637
tp638
Rp639
sVwears
p640
g2
(g6
S'M\x07\x00\x00'
p641
tp642
Rp643
sVcarbon
p644
g2
(g6
S'\x11\x01\x00\x00'
p645
tp646
Rp647
sVdebt
p648
g2
(g6
S'\xda\x01\x00\x00'
p649
tp650
Rp651
sVcup
p652
g2
(g6
S'\xba\x01\x00\x00'
p653
tp654
Rp655
sVheating
p656
g2
(g6
S"'\x03\x00\x00"
p657
tp658
Rp659
sVasked
p660
g2
(g6
S'\x85\x00\x00\x00'
p661
tp662
Rp663
sV2nd
p664
g2
(g6
S'\x1e\x00\x00\x00'
p665
tp666
Rp667
sVinitiative
p668
g2
(g6
S'x\x03\x00\x00'
p669
tp670
Rp671
sVfri
p672
g2
(g6
S'\xcb\x02\x00\x00'
p673
tp674
Rp675
sVtiny
p676
g2
(g6
S'\xd1\x06\x00\x00'
p677
tp678
Rp679
sVpro
p680
g2
(g6
S'>\x05\x00\x00'
p681
tp682
Rp683
sVwebsite
p684
g2
(g6
S'Q\x07\x00\x00'
p685
tp686
Rp687
sVlife
p688
g2
(g6
S'\xf1\x03\x00\x00'
p689
tp690
Rp691
sVturned
p692
g2
(g6
S'\x03\x07\x00\x00'
p693
tp694
Rp695
sVdismiss
p696
g2
(g6
S'\n\x02\x00\x00'
p697
tp698
Rp699
sVlocations
p700
g2
(g6
S'\x03\x04\x00\x00'
p701
tp702
Rp703
sVchionship
p704
g2
(g6
S'C\x01\x00\x00'
p705
tp706
Rp707
sVaviation
p708
g2
(g6
S'\x97\x00\x00\x00'
p709
tp710
Rp711
sVworked
p712
g2
(g6
S's\x07\x00\x00'
p713
tp714
Rp715
sVspin
p716
g2
(g6
S'E\x06\x00\x00'
p717
tp718
Rp719
sVcommerce
p720
g2
(g6
S'w\x01\x00\x00'
p721
tp722
Rp723
sVsay
p724
g2
(g6
S'\xcf\x05\x00\x00'
p725
tp726
Rp727
sVnear
p728
g2
(g6
S'\x83\x04\x00\x00'
p729
tp730
Rp731
sVbalance
p732
g2
(g6
S'\xa1\x00\x00\x00'
p733
tp734
Rp735
sVemployees
p736
g2
(g6
S'M\x02\x00\x00'
p737
tp738
Rp739
sVseven
p740
g2
(g6
S'\xf9\x05\x00\x00'
p741
tp742
Rp743
sVid
p744
g2
(g6
S'^\x03\x00\x00'
p745
tp746
Rp747
sVmemorial
p748
g2
(g6
S'A\x04\x00\x00'
p749
tp750
Rp751
sVthings
p752
g2
(g6
S'\xc1\x06\x00\x00'
p753
tp754
Rp755
sVmake
p756
g2
(g6
S' \x04\x00\x00'
p757
tp758
Rp759
sVcraigslist
p760
g2
(g6
S'\xa9\x01\x00\x00'
p761
tp762
Rp763
sVbabies
p764
g2
(g6
S'\x9d\x00\x00\x00'
p765
tp766
Rp767
sV80s
p768
g2
(g6
S'4\x00\x00\x00'
p769
tp770
Rp771
sVeuropean
p772
g2
(g6
S'g\x02\x00\x00'
p773
tp774
Rp775
sVmeets
p776
g2
(g6
S'<\x04\x00\x00'
p777
tp778
Rp779
sVadvocate
p780
g2
(g6
S'P\x00\x00\x00'
p781
tp782
Rp783
sVworkforce
p784
g2
(g6
S't\x07\x00\x00'
p785
tp786
Rp787
sVkit
p788
g2
(g6
S'\xc7\x03\x00\x00'
p789
tp790
Rp791
sVopportunity
p792
g2
(g6
S'\xad\x04\x00\x00'
p793
tp794
Rp795
sVtune
p796
g2
(g6
S'\x00\x07\x00\x00'
p797
tp798
Rp799
sVkid
p800
g2
(g6
S'\xc1\x03\x00\x00'
p801
tp802
Rp803
sVyoure
p804
g2
(g6
S'\x89\x07\x00\x00'
p805
tp806
Rp807
sVpractices
p808
g2
(g6
S'"\x05\x00\x00'
p809
tp810
Rp811
sVclaims
p812
g2
(g6
S'N\x01\x00\x00'
p813
tp814
Rp815
sVjust
p816
g2
(g6
S'\xb4\x03\x00\x00'
p817
tp818
Rp819
sVideas
p820
g2
(g6
S'`\x03\x00\x00'
p821
tp822
Rp823
sVfighters
p824
g2
(g6
S'\xa1\x02\x00\x00'
p825
tp826
Rp827
sVhuman
p828
g2
(g6
S'V\x03\x00\x00'
p829
tp830
Rp831
sVfacts
p832
g2
(g6
S'\x87\x02\x00\x00'
p833
tp834
Rp835
sVyes
p836
g2
(g6
S'\x83\x07\x00\x00'
p837
tp838
Rp839
sVcandidate
p840
g2
(g6
S'\n\x01\x00\x00'
p841
tp842
Rp843
sVease
p844
g2
(g6
S'5\x02\x00\x00'
p845
tp846
Rp847
sVcharacter
p848
g2
(g6
S'3\x01\x00\x00'
p849
tp850
Rp851
sVpotential
p852
g2
(g6
S'\x1d\x05\x00\x00'
p853
tp854
Rp855
sVeasy
p856
g2
(g6
S'7\x02\x00\x00'
p857
tp858
Rp859
sVpossible
p860
g2
(g6
S'\x19\x05\x00\x00'
p861
tp862
Rp863
sVunique
p864
g2
(g6
S'\x0e\x07\x00\x00'
p865
tp866
Rp867
sVperforming
p868
g2
(g6
S'\xe5\x04\x00\x00'
p869
tp870
Rp871
sVsteps
p872
g2
(g6
S'b\x06\x00\x00'
p873
tp874
Rp875
sVright
p876
g2
(g6
S'\xa9\x05\x00\x00'
p877
tp878
Rp879
sVold
p880
g2
(g6
S'\xa3\x04\x00\x00'
p881
tp882
Rp883
sVdeal
p884
g2
(g6
S'\xd6\x01\x00\x00'
p885
tp886
Rp887
sVpeople
p888
g2
(g6
S'\xdf\x04\x00\x00'
p889
tp890
Rp891
sVdear
p892
g2
(g6
S'\xd8\x01\x00\x00'
p893
tp894
Rp895
sVcreative
p896
g2
(g6
S'\xae\x01\x00\x00'
p897
tp898
Rp899
sVbold
p900
g2
(g6
S'\xcf\x00\x00\x00'
p901
tp902
Rp903
sVstarring
p904
g2
(g6
S'U\x06\x00\x00'
p905
tp906
Rp907
sVmemorable
p908
g2
(g6
S'@\x04\x00\x00'
p909
tp910
Rp911
sVsuper
p912
g2
(g6
S'\x89\x06\x00\x00'
p913
tp914
Rp915
sVassault
p916
g2
(g6
S'\x87\x00\x00\x00'
p917
tp918
Rp919
sVraised
p920
g2
(g6
S'b\x05\x00\x00'
p921
tp922
Rp923
sVwhats
p924
g2
(g6
S'Z\x07\x00\x00'
p925
tp926
Rp927
sVselfie
p928
g2
(g6
S'\xec\x05\x00\x00'
p929
tp930
Rp931
sVson
p932
g2
(g6
S'8\x06\x00\x00'
p933
tp934
Rp935
sVwrap
p936
g2
(g6
S'}\x07\x00\x00'
p937
tp938
Rp939
sVsupport
p940
g2
(g6
S'\x8b\x06\x00\x00'
p941
tp942
Rp943
sVeditor
p944
g2
(g6
S'?\x02\x00\x00'
p945
tp946
Rp947
sVjane
p948
g2
(g6
S'\xa4\x03\x00\x00'
p949
tp950
Rp951
sVhappy
p952
g2
(g6
S'\x19\x03\x00\x00'
p953
tp954
Rp955
sVoffering
p956
g2
(g6
S'\x9c\x04\x00\x00'
p957
tp958
Rp959
sVoffer
p960
g2
(g6
S'\x9b\x04\x00\x00'
p961
tp962
Rp963
sVfeminine
p964
g2
(g6
S'\x9b\x02\x00\x00'
p965
tp966
Rp967
sVcongratulations
p968
g2
(g6
S'\x8b\x01\x00\x00'
p969
tp970
Rp971
sVinside
p972
g2
(g6
S'~\x03\x00\x00'
p973
tp974
Rp975
sVdevices
p976
g2
(g6
S'\xfc\x01\x00\x00'
p977
tp978
Rp979
sVbowies
p980
g2
(g6
S'\xd6\x00\x00\x00'
p981
tp982
Rp983
sVpassenger
p984
g2
(g6
S'\xd2\x04\x00\x00'
p985
tp986
Rp987
sVclassic
p988
g2
(g6
S'Q\x01\x00\x00'
p989
tp990
Rp991
sVdrive
p992
g2
(g6
S"'\x02\x00\x00"
p993
tp994
Rp995
sVexist
p996
g2
(g6
S's\x02\x00\x00'
p997
tp998
Rp999
sVsupporters
p1000
g2
(g6
S'\x8c\x06\x00\x00'
p1001
tp1002
Rp1003
sVactor
p1004
g2
(g6
S'?\x00\x00\x00'
p1005
tp1006
Rp1007
sVoscar
p1008
g2
(g6
S'\xb4\x04\x00\x00'
p1009
tp1010
Rp1011
sVtransgender
p1012
g2
(g6
S'\xeb\x06\x00\x00'
p1013
tp1014
Rp1015
sVroll
p1016
g2
(g6
S'\xb4\x05\x00\x00'
p1017
tp1018
Rp1019
sVdelivered
p1020
g2
(g6
S'\xe5\x01\x00\x00'
p1021
tp1022
Rp1023
sVmodels
p1024
g2
(g6
S'Y\x04\x00\x00'
p1025
tp1026
Rp1027
sVdiet
p1028
g2
(g6
S'\xff\x01\x00\x00'
p1029
tp1030
Rp1031
sVparenthood
p1032
g2
(g6
S'\xc6\x04\x00\x00'
p1033
tp1034
Rp1035
sVjourney
p1036
g2
(g6
S'\xb1\x03\x00\x00'
p1037
tp1038
Rp1039
sVaward
p1040
g2
(g6
S'\x99\x00\x00\x00'
p1041
tp1042
Rp1043
sVpremieres
p1044
g2
(g6
S"'\x05\x00\x00"
p1045
tp1046
Rp1047
sVweekend
p1048
g2
(g6
S'S\x07\x00\x00'
p1049
tp1050
Rp1051
sVhappening
p1052
g2
(g6
S'\x17\x03\x00\x00'
p1053
tp1054
Rp1055
sVpotato
p1056
g2
(g6
S'\x1c\x05\x00\x00'
p1057
tp1058
Rp1059
sVdaily
p1060
g2
(g6
S'\xc8\x01\x00\x00'
p1061
tp1062
Rp1063
sVjacket
p1064
g2
(g6
S'\xa2\x03\x00\x00'
p1065
tp1066
Rp1067
sVtime
p1068
g2
(g6
S'\xcf\x06\x00\x00'
p1069
tp1070
Rp1071
sVpush
p1072
g2
(g6
S'R\x05\x00\x00'
p1073
tp1074
Rp1075
sVmanager
p1076
g2
(g6
S'(\x04\x00\x00'
p1077
tp1078
Rp1079
sVskin
p1080
g2
(g6
S'\x1d\x06\x00\x00'
p1081
tp1082
Rp1083
sVchair
p1084
g2
(g6
S'-\x01\x00\x00'
p1085
tp1086
Rp1087
sVhold
p1088
g2
(g6
S'<\x03\x00\x00'
p1089
tp1090
Rp1091
sVeditors
p1092
g2
(g6
S'@\x02\x00\x00'
p1093
tp1094
Rp1095
sVveterans
p1096
g2
(g6
S'%\x07\x00\x00'
p1097
tp1098
Rp1099
sVsmartphone
p1100
g2
(g6
S'%\x06\x00\x00'
p1101
tp1102
Rp1103
sVtacos
p1104
g2
(g6
S'\x9e\x06\x00\x00'
p1105
tp1106
Rp1107
sVmoura
p1108
g2
(g6
S'k\x04\x00\x00'
p1109
tp1110
Rp1111
sVdim
p1112
g2
(g6
S'\x03\x02\x00\x00'
p1113
tp1114
Rp1115
sVdid
p1116
g2
(g6
S'\xfd\x01\x00\x00'
p1117
tp1118
Rp1119
sVmagnet
p1120
g2
(g6
S'\x1e\x04\x00\x00'
p1121
tp1122
Rp1123
sVitem
p1124
g2
(g6
S'\xa0\x03\x00\x00'
p1125
tp1126
Rp1127
sVexcellence
p1128
g2
(g6
S'n\x02\x00\x00'
p1129
tp1130
Rp1131
sVdiy
p1132
g2
(g6
S'\r\x02\x00\x00'
p1133
tp1134
Rp1135
sVteam
p1136
g2
(g6
S'\xac\x06\x00\x00'
p1137
tp1138
Rp1139
sVprevent
p1140
g2
(g6
S'2\x05\x00\x00'
p1141
tp1142
Rp1143
sVunexpected
p1144
g2
(g6
S'\x0c\x07\x00\x00'
p1145
tp1146
Rp1147
sVtrails
p1148
g2
(g6
S'\xe7\x06\x00\x00'
p1149
tp1150
Rp1151
sVeating
p1152
g2
(g6
S'9\x02\x00\x00'
p1153
tp1154
Rp1155
sVheres
p1156
g2
(g6
S'-\x03\x00\x00'
p1157
tp1158
Rp1159
sVcurrent
p1160
g2
(g6
S'\xbc\x01\x00\x00'
p1161
tp1162
Rp1163
sVhealth
p1164
g2
(g6
S'!\x03\x00\x00'
p1165
tp1166
Rp1167
sVinternational
p1168
g2
(g6
S'\x8d\x03\x00\x00'
p1169
tp1170
Rp1171
sVmakeup
p1172
g2
(g6
S'#\x04\x00\x00'
p1173
tp1174
Rp1175
sVaddress
p1176
g2
(g6
S'G\x00\x00\x00'
p1177
tp1178
Rp1179
sVwait
p1180
g2
(g6
S':\x07\x00\x00'
p1181
tp1182
Rp1183
sVbox
p1184
g2
(g6
S'\xd7\x00\x00\x00'
p1185
tp1186
Rp1187
sVboy
p1188
g2
(g6
S'\xd8\x00\x00\x00'
p1189
tp1190
Rp1191
sVenroll
p1192
g2
(g6
S'Y\x02\x00\x00'
p1193
tp1194
Rp1195
sVpriceless
p1196
g2
(g6
S'5\x05\x00\x00'
p1197
tp1198
Rp1199
sVlove
p1200
g2
(g6
S'\x0e\x04\x00\x00'
p1201
tp1202
Rp1203
sVeverybody
p1204
g2
(g6
S'k\x02\x00\x00'
p1205
tp1206
Rp1207
sVworking
p1208
g2
(g6
S'u\x07\x00\x00'
p1209
tp1210
Rp1211
sVvisit
p1212
g2
(g6
S'/\x07\x00\x00'
p1213
tp1214
Rp1215
sVpredictions
p1216
g2
(g6
S'%\x05\x00\x00'
p1217
tp1218
Rp1219
sVgoing
p1220
g2
(g6
S'\xf5\x02\x00\x00'
p1221
tp1222
Rp1223
sVfilms
p1224
g2
(g6
S'\xa3\x02\x00\x00'
p1225
tp1226
Rp1227
sVintroducing
p1228
g2
(g6
S'\x92\x03\x00\x00'
p1229
tp1230
Rp1231
sVooh
p1232
g2
(g6
S'\xa7\x04\x00\x00'
p1233
tp1234
Rp1235
sVdowntown
p1236
g2
(g6
S' \x02\x00\x00'
p1237
tp1238
Rp1239
sVfly
p1240
g2
(g6
S'\xb8\x02\x00\x00'
p1241
tp1242
Rp1243
sVpretend
p1244
g2
(g6
S'0\x05\x00\x00'
p1245
tp1246
Rp1247
sVreviews
p1248
g2
(g6
S'\xa1\x05\x00\x00'
p1249
tp1250
Rp1251
sVwallet
p1252
g2
(g6
S'?\x07\x00\x00'
p1253
tp1254
Rp1255
sVgrowing
p1256
g2
(g6
S'\x06\x03\x00\x00'
p1257
tp1258
Rp1259
sVmaking
p1260
g2
(g6
S'$\x04\x00\x00'
p1261
tp1262
Rp1263
sVawesome
p1264
g2
(g6
S'\x9c\x00\x00\x00'
p1265
tp1266
Rp1267
sVpink
p1268
g2
(g6
S'\xfc\x04\x00\x00'
p1269
tp1270
Rp1271
sVmonitoring
p1272
g2
(g6
S'a\x04\x00\x00'
p1273
tp1274
Rp1275
sVwinter
p1276
g2
(g6
S'j\x07\x00\x00'
p1277
tp1278
Rp1279
sVsunday
p1280
g2
(g6
S'\x87\x06\x00\x00'
p1281
tp1282
Rp1283
sVmap
p1284
g2
(g6
S'+\x04\x00\x00'
p1285
tp1286
Rp1287
sVdesigner
p1288
g2
(g6
S'\xf0\x01\x00\x00'
p1289
tp1290
Rp1291
sVmembership
p1292
g2
(g6
S'?\x04\x00\x00'
p1293
tp1294
Rp1295
sVdesigned
p1296
g2
(g6
S'\xef\x01\x00\x00'
p1297
tp1298
Rp1299
sVimproving
p1300
g2
(g6
S'h\x03\x00\x00'
p1301
tp1302
Rp1303
sVdata
p1304
g2
(g6
S'\xd0\x01\x00\x00'
p1305
tp1306
Rp1307
sVman
p1308
g2
(g6
S'&\x04\x00\x00'
p1309
tp1310
Rp1311
sVstress
p1312
g2
(g6
S'p\x06\x00\x00'
p1313
tp1314
Rp1315
sVnatural
p1316
g2
(g6
S'\x80\x04\x00\x00'
p1317
tp1318
Rp1319
sVoculus
p1320
g2
(g6
S'\x9a\x04\x00\x00'
p1321
tp1322
Rp1323
sVst
p1324
g2
(g6
S'P\x06\x00\x00'
p1325
tp1326
Rp1327
sVtalk
p1328
g2
(g6
S'\xa2\x06\x00\x00'
p1329
tp1330
Rp1331
sVcute
p1332
g2
(g6
S'\xc1\x01\x00\x00'
p1333
tp1334
Rp1335
sVyears
p1336
g2
(g6
S'\x82\x07\x00\x00'
p1337
tp1338
Rp1339
sVcourse
p1340
g2
(g6
S'\xa4\x01\x00\x00'
p1341
tp1342
Rp1343
sVepisodes
p1344
g2
(g6
S'`\x02\x00\x00'
p1345
tp1346
Rp1347
sVcuts
p1348
g2
(g6
S'\xc2\x01\x00\x00'
p1349
tp1350
Rp1351
sVkanye
p1352
g2
(g6
S'\xb6\x03\x00\x00'
p1353
tp1354
Rp1355
sVgroup
p1356
g2
(g6
S'\x03\x03\x00\x00'
p1357
tp1358
Rp1359
sVmonitor
p1360
g2
(g6
S'`\x04\x00\x00'
p1361
tp1362
Rp1363
sVinteresting
p1364
g2
(g6
S'\x8c\x03\x00\x00'
p1365
tp1366
Rp1367
sVhot
p1368
g2
(g6
S'L\x03\x00\x00'
p1369
tp1370
Rp1371
sVdwarfs
p1372
g2
(g6
S'1\x02\x00\x00'
p1373
tp1374
Rp1375
sVnsa
p1376
g2
(g6
S'\x94\x04\x00\x00'
p1377
tp1378
Rp1379
sVinstantly
p1380
g2
(g6
S'\x87\x03\x00\x00'
p1381
tp1382
Rp1383
sVfinance
p1384
g2
(g6
S'\xa7\x02\x00\x00'
p1385
tp1386
Rp1387
sVkiller
p1388
g2
(g6
S'\xc4\x03\x00\x00'
p1389
tp1390
Rp1391
sVnation
p1392
g2
(g6
S'~\x04\x00\x00'
p1393
tp1394
Rp1395
sVtouching
p1396
g2
(g6
S'\xdd\x06\x00\x00'
p1397
tp1398
Rp1399
sVartist
p1400
g2
(g6
S'\x82\x00\x00\x00'
p1401
tp1402
Rp1403
sVrock
p1404
g2
(g6
S'\xb2\x05\x00\x00'
p1405
tp1406
Rp1407
sVsquare
p1408
g2
(g6
S'O\x06\x00\x00'
p1409
tp1410
Rp1411
sVgirl
p1412
g2
(g6
S'\xe8\x02\x00\x00'
p1413
tp1414
Rp1415
sVcanada
p1416
g2
(g6
S'\x08\x01\x00\x00'
p1417
tp1418
Rp1419
sVliving
p1420
g2
(g6
S'\xff\x03\x00\x00'
p1421
tp1422
Rp1423
sVblu
p1424
g2
(g6
S'\xc8\x00\x00\x00'
p1425
tp1426
Rp1427
sVinternet
p1428
g2
(g6
S'\x8e\x03\x00\x00'
p1429
tp1430
Rp1431
sVmonster
p1432
g2
(g6
S'd\x04\x00\x00'
p1433
tp1434
Rp1435
sVmillion
p1436
g2
(g6
S'M\x04\x00\x00'
p1437
tp1438
Rp1439
sVquite
p1440
g2
(g6
S'[\x05\x00\x00'
p1441
tp1442
Rp1443
sVlanguage
p1444
g2
(g6
S'\xd3\x03\x00\x00'
p1445
tp1446
Rp1447
sVthing
p1448
g2
(g6
S'\xc0\x06\x00\x00'
p1449
tp1450
Rp1451
sVthink
p1452
g2
(g6
S'\xc2\x06\x00\x00'
p1453
tp1454
Rp1455
sVsaving
p1456
g2
(g6
S'\xcd\x05\x00\x00'
p1457
tp1458
Rp1459
sVspoken
p1460
g2
(g6
S'I\x06\x00\x00'
p1461
tp1462
Rp1463
sVamericans
p1464
g2
(g6
S'c\x00\x00\x00'
p1465
tp1466
Rp1467
sVlong
p1468
g2
(g6
S'\x04\x04\x00\x00'
p1469
tp1470
Rp1471
sVvote
p1472
g2
(g6
S'4\x07\x00\x00'
p1473
tp1474
Rp1475
sVopen
p1476
g2
(g6
S'\xa8\x04\x00\x00'
p1477
tp1478
Rp1479
sVcity
p1480
g2
(g6
S'M\x01\x00\x00'
p1481
tp1482
Rp1483
sVlittle
p1484
g2
(g6
S'\xfc\x03\x00\x00'
p1485
tp1486
Rp1487
sVbite
p1488
g2
(g6
S'\xc1\x00\x00\x00'
p1489
tp1490
Rp1491
sVbroadcast
p1492
g2
(g6
S'\xe7\x00\x00\x00'
p1493
tp1494
Rp1495
sVhillary
p1496
g2
(g6
S'7\x03\x00\x00'
p1497
tp1498
Rp1499
sV11
p1500
g2
(g6
S'\x05\x00\x00\x00'
p1501
tp1502
Rp1503
sV10
p1504
g2
(g6
S'\x01\x00\x00\x00'
p1505
tp1506
Rp1507
sV13
p1508
g2
(g6
S'\x08\x00\x00\x00'
p1509
tp1510
Rp1511
sV12
p1512
g2
(g6
S'\x06\x00\x00\x00'
p1513
tp1514
Rp1515
sV15
p1516
g2
(g6
S'\n\x00\x00\x00'
p1517
tp1518
Rp1519
sV14
p1520
g2
(g6
S'\t\x00\x00\x00'
p1521
tp1522
Rp1523
sV17
p1524
g2
(g6
S'\r\x00\x00\x00'
p1525
tp1526
Rp1527
sV16
p1528
g2
(g6
S'\x0c\x00\x00\x00'
p1529
tp1530
Rp1531
sV19
p1532
g2
(g6
S'\x0f\x00\x00\x00'
p1533
tp1534
Rp1535
sV18
p1536
g2
(g6
S'\x0e\x00\x00\x00'
p1537
tp1538
Rp1539
sVfuture
p1540
g2
(g6
S'\xd3\x02\x00\x00'
p1541
tp1542
Rp1543
sVsan
p1544
g2
(g6
S'\xc7\x05\x00\x00'
p1545
tp1546
Rp1547
sVemea
p1548
g2
(g6
S'J\x02\x00\x00'
p1549
tp1550
Rp1551
sVargument
p1552
g2
(g6
S'~\x00\x00\x00'
p1553
tp1554
Rp1555
sVjewels
p1556
g2
(g6
S'\xaa\x03\x00\x00'
p1557
tp1558
Rp1559
sVvoices
p1560
g2
(g6
S'2\x07\x00\x00'
p1561
tp1562
Rp1563
sVadele
p1564
g2
(g6
S'H\x00\x00\x00'
p1565
tp1566
Rp1567
sVsaw
p1568
g2
(g6
S'\xce\x05\x00\x00'
p1569
tp1570
Rp1571
sVsurgery
p1572
g2
(g6
S'\x90\x06\x00\x00'
p1573
tp1574
Rp1575
sVperformance
p1576
g2
(g6
S'\xe3\x04\x00\x00'
p1577
tp1578
Rp1579
sVchannel
p1580
g2
(g6
S'2\x01\x00\x00'
p1581
tp1582
Rp1583
sV200
p1584
g2
(g6
S'\x13\x00\x00\x00'
p1585
tp1586
Rp1587
sVpair
p1588
g2
(g6
S'\xc0\x04\x00\x00'
p1589
tp1590
Rp1591
sVknee
p1592
g2
(g6
S'\xca\x03\x00\x00'
p1593
tp1594
Rp1595
sVcoveted
p1596
g2
(g6
S'\xa7\x01\x00\x00'
p1597
tp1598
Rp1599
sVaverage
p1600
g2
(g6
S'\x96\x00\x00\x00'
p1601
tp1602
Rp1603
sValienware
p1604
g2
(g6
S']\x00\x00\x00'
p1605
tp1606
Rp1607
sVsale
p1608
g2
(g6
S'\xc4\x05\x00\x00'
p1609
tp1610
Rp1611
sVways
p1612
g2
(g6
S'I\x07\x00\x00'
p1613
tp1614
Rp1615
sVshop
p1616
g2
(g6
S'\r\x06\x00\x00'
p1617
tp1618
Rp1619
sVrating
p1620
g2
(g6
S'f\x05\x00\x00'
p1621
tp1622
Rp1623
sVwalking
p1624
g2
(g6
S'>\x07\x00\x00'
p1625
tp1626
Rp1627
sVdelta
p1628
g2
(g6
S'\xe8\x01\x00\x00'
p1629
tp1630
Rp1631
sVbright
p1632
g2
(g6
S'\xe2\x00\x00\x00'
p1633
tp1634
Rp1635
sVshoe
p1636
g2
(g6
S'\x0b\x06\x00\x00'
p1637
tp1638
Rp1639
sVline
p1640
g2
(g6
S'\xf6\x03\x00\x00'
p1641
tp1642
Rp1643
sVtreasure
p1644
g2
(g6
S'\xf0\x06\x00\x00'
p1645
tp1646
Rp1647
sVblack
p1648
g2
(g6
S'\xc3\x00\x00\x00'
p1649
tp1650
Rp1651
sVprime
p1652
g2
(g6
S'6\x05\x00\x00'
p1653
tp1654
Rp1655
sVmiles
p1656
g2
(g6
S'I\x04\x00\x00'
p1657
tp1658
Rp1659
sVfinishing
p1660
g2
(g6
S'\xaf\x02\x00\x00'
p1661
tp1662
Rp1663
sVvision
p1664
g2
(g6
S'.\x07\x00\x00'
p1665
tp1666
Rp1667
sVseat
p1668
g2
(g6
S'\xe0\x05\x00\x00'
p1669
tp1670
Rp1671
sVcocktails
p1672
g2
(g6
S'e\x01\x00\x00'
p1673
tp1674
Rp1675
sVcalendar
p1676
g2
(g6
S'\x02\x01\x00\x00'
p1677
tp1678
Rp1679
sVvertical
p1680
g2
(g6
S'#\x07\x00\x00'
p1681
tp1682
Rp1683
sVreading
p1684
g2
(g6
S'j\x05\x00\x00'
p1685
tp1686
Rp1687
sVinfrastructure
p1688
g2
(g6
S'u\x03\x00\x00'
p1689
tp1690
Rp1691
sVjobs
p1692
g2
(g6
S'\xac\x03\x00\x00'
p1693
tp1694
Rp1695
sVaugust
p1696
g2
(g6
S'\x8f\x00\x00\x00'
p1697
tp1698
Rp1699
sVscreen
p1700
g2
(g6
S'\xdb\x05\x00\x00'
p1701
tp1702
Rp1703
sVawards
p1704
g2
(g6
S'\x9a\x00\x00\x00'
p1705
tp1706
Rp1707
sVresidence
p1708
g2
(g6
S'\x90\x05\x00\x00'
p1709
tp1710
Rp1711
sVtrader
p1712
g2
(g6
S'\xe5\x06\x00\x00'
p1713
tp1714
Rp1715
sVaccording
p1716
g2
(g6
S'9\x00\x00\x00'
p1717
tp1718
Rp1719
sVcalled
p1720
g2
(g6
S'\x03\x01\x00\x00'
p1721
tp1722
Rp1723
sVtour
p1724
g2
(g6
S'\xde\x06\x00\x00'
p1725
tp1726
Rp1727
sVworkplace
p1728
g2
(g6
S'v\x07\x00\x00'
p1729
tp1730
Rp1731
sVmani
p1732
g2
(g6
S')\x04\x00\x00'
p1733
tp1734
Rp1735
sVbreakfasts
p1736
g2
(g6
S'\xdd\x00\x00\x00'
p1737
tp1738
Rp1739
sVcancer
p1740
g2
(g6
S'\t\x01\x00\x00'
p1741
tp1742
Rp1743
sVchristie
p1744
g2
(g6
S'G\x01\x00\x00'
p1745
tp1746
Rp1747
sVcombines
p1748
g2
(g6
S'p\x01\x00\x00'
p1749
tp1750
Rp1751
sVmarc
p1752
g2
(g6
S',\x04\x00\x00'
p1753
tp1754
Rp1755
sVencryption
p1756
g2
(g6
S'Q\x02\x00\x00'
p1757
tp1758
Rp1759
sVairlines
p1760
g2
(g6
S'V\x00\x00\x00'
p1761
tp1762
Rp1763
sVmars
p1764
g2
(g6
S'0\x04\x00\x00'
p1765
tp1766
Rp1767
sVwants
p1768
g2
(g6
S'B\x07\x00\x00'
p1769
tp1770
Rp1771
sVenable
p1772
g2
(g6
S'O\x02\x00\x00'
p1773
tp1774
Rp1775
sVlaptops
p1776
g2
(g6
S'\xd5\x03\x00\x00'
p1777
tp1778
Rp1779
sVphotos
p1780
g2
(g6
S'\xf2\x04\x00\x00'
p1781
tp1782
Rp1783
sVmiddle
p1784
g2
(g6
S'F\x04\x00\x00'
p1785
tp1786
Rp1787
sVtechnology
p1788
g2
(g6
S'\xb1\x06\x00\x00'
p1789
tp1790
Rp1791
sVdifferent
p1792
g2
(g6
S'\x01\x02\x00\x00'
p1793
tp1794
Rp1795
sVpay
p1796
g2
(g6
S'\xd8\x04\x00\x00'
p1797
tp1798
Rp1799
sVcheers
p1800
g2
(g6
S'9\x01\x00\x00'
p1801
tp1802
Rp1803
sVrunning
p1804
g2
(g6
S'\xbc\x05\x00\x00'
p1805
tp1806
Rp1807
sVcosts
p1808
g2
(g6
S'\xa1\x01\x00\x00'
p1809
tp1810
Rp1811
sVbottle
p1812
g2
(g6
S'\xd5\x00\x00\x00'
p1813
tp1814
Rp1815
sVsummer
p1816
g2
(g6
S'\x85\x06\x00\x00'
p1817
tp1818
Rp1819
sVmoney
p1820
g2
(g6
S'_\x04\x00\x00'
p1821
tp1822
Rp1823
sVrecycled
p1824
g2
(g6
S'}\x05\x00\x00'
p1825
tp1826
Rp1827
sVguys
p1828
g2
(g6
S'\x0c\x03\x00\x00'
p1829
tp1830
Rp1831
sVclueless
p1832
g2
(g6
S'b\x01\x00\x00'
p1833
tp1834
Rp1835
sVshrines
p1836
g2
(g6
S'\x11\x06\x00\x00'
p1837
tp1838
Rp1839
sVcareers
p1840
g2
(g6
S'\x16\x01\x00\x00'
p1841
tp1842
Rp1843
sVdark
p1844
g2
(g6
S'\xce\x01\x00\x00'
p1845
tp1846
Rp1847
sVmom
p1848
g2
(g6
S'[\x04\x00\x00'
p1849
tp1850
Rp1851
sVworld
p1852
g2
(g6
S'x\x07\x00\x00'
p1853
tp1854
Rp1855
sVinnovations
p1856
g2
(g6
S'|\x03\x00\x00'
p1857
tp1858
Rp1859
sVmillennials
p1860
g2
(g6
S'K\x04\x00\x00'
p1861
tp1862
Rp1863
sVicymihear
p1864
g2
(g6
S']\x03\x00\x00'
p1865
tp1866
Rp1867
sVimages
p1868
g2
(g6
S'a\x03\x00\x00'
p1869
tp1870
Rp1871
sVthinks
p1872
g2
(g6
S'\xc4\x06\x00\x00'
p1873
tp1874
Rp1875
sVtote
p1876
g2
(g6
S'\xdb\x06\x00\x00'
p1877
tp1878
Rp1879
sVmemories
p1880
g2
(g6
S'B\x04\x00\x00'
p1881
tp1882
Rp1883
sVfondue
p1884
g2
(g6
S'\xbd\x02\x00\x00'
p1885
tp1886
Rp1887
sVpower
p1888
g2
(g6
S'\x1e\x05\x00\x00'
p1889
tp1890
Rp1891
sVintimate
p1892
g2
(g6
S'\x91\x03\x00\x00'
p1893
tp1894
Rp1895
sVseconds
p1896
g2
(g6
S'\xe2\x05\x00\x00'
p1897
tp1898
Rp1899
sViconic
p1900
g2
(g6
S'Z\x03\x00\x00'
p1901
tp1902
Rp1903
sVindustry
p1904
g2
(g6
S's\x03\x00\x00'
p1905
tp1906
Rp1907
sVfavorite
p1908
g2
(g6
S'\x91\x02\x00\x00'
p1909
tp1910
Rp1911
sVairline
p1912
g2
(g6
S'U\x00\x00\x00'
p1913
tp1914
Rp1915
sVwest
p1916
g2
(g6
S'W\x07\x00\x00'
p1917
tp1918
Rp1919
sVluck
p1920
g2
(g6
S'\x13\x04\x00\x00'
p1921
tp1922
Rp1923
sVroad
p1924
g2
(g6
S'\xaf\x05\x00\x00'
p1925
tp1926
Rp1927
sVwidowed
p1928
g2
(g6
S'_\x07\x00\x00'
p1929
tp1930
Rp1931
sVburning
p1932
g2
(g6
S'\xf7\x00\x00\x00'
p1933
tp1934
Rp1935
sVvacation
p1936
g2
(g6
S'\x1d\x07\x00\x00'
p1937
tp1938
Rp1939
sVparties
p1940
g2
(g6
S'\xcb\x04\x00\x00'
p1941
tp1942
Rp1943
sVuptown
p1944
g2
(g6
S'\x12\x07\x00\x00'
p1945
tp1946
Rp1947
sVhey
p1948
g2
(g6
S'0\x03\x00\x00'
p1949
tp1950
Rp1951
sVchats
p1952
g2
(g6
S'6\x01\x00\x00'
p1953
tp1954
Rp1955
sVcomplete
p1956
g2
(g6
S'\x81\x01\x00\x00'
p1957
tp1958
Rp1959
sVbuying
p1960
g2
(g6
S'\xfc\x00\x00\x00'
p1961
tp1962
Rp1963
sVspice
p1964
g2
(g6
S'D\x06\x00\x00'
p1965
tp1966
Rp1967
sVcelebrating
p1968
g2
(g6
S'&\x01\x00\x00'
p1969
tp1970
Rp1971
sVcitizenship
p1972
g2
(g6
S'L\x01\x00\x00'
p1973
tp1974
Rp1975
sVvideos
p1976
g2
(g6
S"'\x07\x00\x00"
p1977
tp1978
Rp1979
sVchion
p1980
g2
(g6
S'A\x01\x00\x00'
p1981
tp1982
Rp1983
sVshopping
p1984
g2
(g6
S'\x0e\x06\x00\x00'
p1985
tp1986
Rp1987
sVfilm
p1988
g2
(g6
S'\xa2\x02\x00\x00'
p1989
tp1990
Rp1991
sVyoga
p1992
g2
(g6
S'\x86\x07\x00\x00'
p1993
tp1994
Rp1995
sVdrivers
p1996
g2
(g6
S'(\x02\x00\x00'
p1997
tp1998
Rp1999
sVhybrid
p2000
g2
(g6
S'X\x03\x00\x00'
p2001
tp2002
Rp2003
sVpedis
p2004
g2
(g6
S'\xdd\x04\x00\x00'
p2005
tp2006
Rp2007
sVobsessed
p2008
g2
(g6
S'\x98\x04\x00\x00'
p2009
tp2010
Rp2011
sVstudents
p2012
g2
(g6
S'x\x06\x00\x00'
p2013
tp2014
Rp2015
sVgifts
p2016
g2
(g6
S'\xe6\x02\x00\x00'
p2017
tp2018
Rp2019
sVimportant
p2020
g2
(g6
S'e\x03\x00\x00'
p2021
tp2022
Rp2023
sVchris
p2024
g2
(g6
S'F\x01\x00\x00'
p2025
tp2026
Rp2027
sVremote
p2028
g2
(g6
S'\x8b\x05\x00\x00'
p2029
tp2030
Rp2031
sVhello
p2032
g2
(g6
S'(\x03\x00\x00'
p2033
tp2034
Rp2035
sVstarting
p2036
g2
(g6
S'Y\x06\x00\x00'
p2037
tp2038
Rp2039
sVwaiver
p2040
g2
(g6
S'<\x07\x00\x00'
p2041
tp2042
Rp2043
sVforget
p2044
g2
(g6
S'\xc4\x02\x00\x00'
p2045
tp2046
Rp2047
sVfounder
p2048
g2
(g6
S'\xc7\x02\x00\x00'
p2049
tp2050
Rp2051
sVhands
p2052
g2
(g6
S'\x14\x03\x00\x00'
p2053
tp2054
Rp2055
sVtalks
p2056
g2
(g6
S'\xa4\x06\x00\x00'
p2057
tp2058
Rp2059
sVchildren
p2060
g2
(g6
S'?\x01\x00\x00'
p2061
tp2062
Rp2063
sVtv
p2064
g2
(g6
S'\x05\x07\x00\x00'
p2065
tp2066
Rp2067
sVdressing
p2068
g2
(g6
S'$\x02\x00\x00'
p2069
tp2070
Rp2071
sVpaying
p2072
g2
(g6
S'\xd9\x04\x00\x00'
p2073
tp2074
Rp2075
sVreturning
p2076
g2
(g6
S'\x9b\x05\x00\x00'
p2077
tp2078
Rp2079
sVfall
p2080
g2
(g6
S'\x88\x02\x00\x00'
p2081
tp2082
Rp2083
sVwinning
p2084
g2
(g6
S'h\x07\x00\x00'
p2085
tp2086
Rp2087
sVdifference
p2088
g2
(g6
S'\x00\x02\x00\x00'
p2089
tp2090
Rp2091
sVcable
p2092
g2
(g6
S'\xff\x00\x00\x00'
p2093
tp2094
Rp2095
sVmothers
p2096
g2
(g6
S'i\x04\x00\x00'
p2097
tp2098
Rp2099
sVcelebrity
p2100
g2
(g6
S"'\x01\x00\x00"
p2101
tp2102
Rp2103
sVsmall
p2104
g2
(g6
S'"\x06\x00\x00'
p2105
tp2106
Rp2107
sVpast
p2108
g2
(g6
S'\xd5\x04\x00\x00'
p2109
tp2110
Rp2111
sVtitles
p2112
g2
(g6
S'\xd4\x06\x00\x00'
p2113
tp2114
Rp2115
sVinvestment
p2116
g2
(g6
S'\x95\x03\x00\x00'
p2117
tp2118
Rp2119
sVribbon
p2120
g2
(g6
S'\xa4\x05\x00\x00'
p2121
tp2122
Rp2123
sVmaterial
p2124
g2
(g6
S'3\x04\x00\x00'
p2125
tp2126
Rp2127
sVclock
p2128
g2
(g6
S'Y\x01\x00\x00'
p2129
tp2130
Rp2131
sVtribute
p2132
g2
(g6
S'\xf5\x06\x00\x00'
p2133
tp2134
Rp2135
sVmovement
p2136
g2
(g6
S'l\x04\x00\x00'
p2137
tp2138
Rp2139
sV5000
p2140
g2
(g6
S')\x00\x00\x00'
p2141
tp2142
Rp2143
sVhours
p2144
g2
(g6
S'P\x03\x00\x00'
p2145
tp2146
Rp2147
sVoperating
p2148
g2
(g6
S'\xac\x04\x00\x00'
p2149
tp2150
Rp2151
sVnovember
p2152
g2
(g6
S'\x93\x04\x00\x00'
p2153
tp2154
Rp2155
sVexperience
p2156
g2
(g6
S'w\x02\x00\x00'
p2157
tp2158
Rp2159
sVpics
p2160
g2
(g6
S'\xf8\x04\x00\x00'
p2161
tp2162
Rp2163
sVpick
p2164
g2
(g6
S'\xf5\x04\x00\x00'
p2165
tp2166
Rp2167
sVaction
p2168
g2
(g6
S'=\x00\x00\x00'
p2169
tp2170
Rp2171
sVvip
p2172
g2
(g6
S'*\x07\x00\x00'
p2173
tp2174
Rp2175
sVselect
p2176
g2
(g6
S'\xea\x05\x00\x00'
p2177
tp2178
Rp2179
sVeye
p2180
g2
(g6
S'\x83\x02\x00\x00'
p2181
tp2182
Rp2183
sVsplash
p2184
g2
(g6
S'G\x06\x00\x00'
p2185
tp2186
Rp2187
sVdoor
p2188
g2
(g6
S'\x19\x02\x00\x00'
p2189
tp2190
Rp2191
sVcompany
p2192
g2
(g6
S'\x80\x01\x00\x00'
p2193
tp2194
Rp2195
sVtown
p2196
g2
(g6
S'\xe0\x06\x00\x00'
p2197
tp2198
Rp2199
sVkeeping
p2200
g2
(g6
S'\xba\x03\x00\x00'
p2201
tp2202
Rp2203
sVhour
p2204
g2
(g6
S'O\x03\x00\x00'
p2205
tp2206
Rp2207
sVscience
p2208
g2
(g6
S'\xd8\x05\x00\x00'
p2209
tp2210
Rp2211
sVdev
p2212
g2
(g6
S'\xf8\x01\x00\x00'
p2213
tp2214
Rp2215
sVmall
p2216
g2
(g6
S'%\x04\x00\x00'
p2217
tp2218
Rp2219
sVresources
p2220
g2
(g6
S'\x95\x05\x00\x00'
p2221
tp2222
Rp2223
sVlearn
p2224
g2
(g6
S'\xe3\x03\x00\x00'
p2225
tp2226
Rp2227
sVembrace
p2228
g2
(g6
S'I\x02\x00\x00'
p2229
tp2230
Rp2231
sVbeautiful
p2232
g2
(g6
S'\xab\x00\x00\x00'
p2233
tp2234
Rp2235
sVshare
p2236
g2
(g6
S'\x00\x06\x00\x00'
p2237
tp2238
Rp2239
sVstates
p2240
g2
(g6
S']\x06\x00\x00'
p2241
tp2242
Rp2243
sVsharp
p2244
g2
(g6
S'\x04\x06\x00\x00'
p2245
tp2246
Rp2247
sVdress
p2248
g2
(g6
S'#\x02\x00\x00'
p2249
tp2250
Rp2251
sVplans
p2252
g2
(g6
S'\x03\x05\x00\x00'
p2253
tp2254
Rp2255
sVhugh
p2256
g2
(g6
S'U\x03\x00\x00'
p2257
tp2258
Rp2259
sVcst
p2260
g2
(g6
S'\xb8\x01\x00\x00'
p2261
tp2262
Rp2263
sVadvice
p2264
g2
(g6
S'O\x00\x00\x00'
p2265
tp2266
Rp2267
sVentrepreneurship
p2268
g2
(g6
S'_\x02\x00\x00'
p2269
tp2270
Rp2271
sVplane
p2272
g2
(g6
S'\x01\x05\x00\x00'
p2273
tp2274
Rp2275
sVblood
p2276
g2
(g6
S'\xc6\x00\x00\x00'
p2277
tp2278
Rp2279
sVcoming
p2280
g2
(g6
S'u\x01\x00\x00'
p2281
tp2282
Rp2283
sVcoat
p2284
g2
(g6
S'd\x01\x00\x00'
p2285
tp2286
Rp2287
sVregister
p2288
g2
(g6
S'\x85\x05\x00\x00'
p2289
tp2290
Rp2291
sVeats
p2292
g2
(g6
S':\x02\x00\x00'
p2293
tp2294
Rp2295
sVstreetwear
p2296
g2
(g6
S'o\x06\x00\x00'
p2297
tp2298
Rp2299
sVplaying
p2300
g2
(g6
S'\x0b\x05\x00\x00'
p2301
tp2302
Rp2303
sVpaper
p2304
g2
(g6
S'\xc4\x04\x00\x00'
p2305
tp2306
Rp2307
sVfilters
p2308
g2
(g6
S'\xa4\x02\x00\x00'
p2309
tp2310
Rp2311
sVbroadway
p2312
g2
(g6
S'\xe9\x00\x00\x00'
p2313
tp2314
Rp2315
sVroots
p2316
g2
(g6
S'\xb7\x05\x00\x00'
p2317
tp2318
Rp2319
sV24
p2320
g2
(g6
S'\x1a\x00\x00\x00'
p2321
tp2322
Rp2323
sV25
p2324
g2
(g6
S'\x1b\x00\x00\x00'
p2325
tp2326
Rp2327
sV27
p2328
g2
(g6
S'\x1c\x00\x00\x00'
p2329
tp2330
Rp2331
sV20
p2332
g2
(g6
S'\x12\x00\x00\x00'
p2333
tp2334
Rp2335
sV21
p2336
g2
(g6
S'\x18\x00\x00\x00'
p2337
tp2338
Rp2339
sV22
p2340
g2
(g6
S'\x19\x00\x00\x00'
p2341
tp2342
Rp2343
sVpcs
p2344
g2
(g6
S'\xdb\x04\x00\x00'
p2345
tp2346
Rp2347
sV28
p2348
g2
(g6
S'\x1d\x00\x00\x00'
p2349
tp2350
Rp2351
sVgood
p2352
g2
(g6
S'\xf9\x02\x00\x00'
p2353
tp2354
Rp2355
sVwalls
p2356
g2
(g6
S'@\x07\x00\x00'
p2357
tp2358
Rp2359
sVicymi
p2360
g2
(g6
S'\\\x03\x00\x00'
p2361
tp2362
Rp2363
sVhabits
p2364
g2
(g6
S'\r\x03\x00\x00'
p2365
tp2366
Rp2367
sVstatus
p2368
g2
(g6
S'_\x06\x00\x00'
p2369
tp2370
Rp2371
sVhouse
p2372
g2
(g6
S'Q\x03\x00\x00'
p2373
tp2374
Rp2375
sVhard
p2376
g2
(g6
S'\x1a\x03\x00\x00'
p2377
tp2378
Rp2379
sVreduce
p2380
g2
(g6
S'\x80\x05\x00\x00'
p2381
tp2382
Rp2383
sVidea
p2384
g2
(g6
S'_\x03\x00\x00'
p2385
tp2386
Rp2387
sVportland
p2388
g2
(g6
S'\x17\x05\x00\x00'
p2389
tp2390
Rp2391
sVinsurance
p2392
g2
(g6
S'\x88\x03\x00\x00'
p2393
tp2394
Rp2395
sVreally
p2396
g2
(g6
S'n\x05\x00\x00'
p2397
tp2398
Rp2399
sVresearch
p2400
g2
(g6
S'\x8e\x05\x00\x00'
p2401
tp2402
Rp2403
sVdarling
p2404
g2
(g6
S'\xcf\x01\x00\x00'
p2405
tp2406
Rp2407
sVmembers
p2408
g2
(g6
S'>\x04\x00\x00'
p2409
tp2410
Rp2411
sVbenefits
p2412
g2
(g6
S'\xb4\x00\x00\x00'
p2413
tp2414
Rp2415
sVcomputers
p2416
g2
(g6
S'\x84\x01\x00\x00'
p2417
tp2418
Rp2419
sVcoloring
p2420
g2
(g6
S'n\x01\x00\x00'
p2421
tp2422
Rp2423
sVdont
p2424
g2
(g6
S'\x18\x02\x00\x00'
p2425
tp2426
Rp2427
sVsmaller
p2428
g2
(g6
S'#\x06\x00\x00'
p2429
tp2430
Rp2431
sVglitter
p2432
g2
(g6
S'\xef\x02\x00\x00'
p2433
tp2434
Rp2435
sVheads
p2436
g2
(g6
S' \x03\x00\x00'
p2437
tp2438
Rp2439
sVguest
p2440
g2
(g6
S'\x08\x03\x00\x00'
p2441
tp2442
Rp2443
sV5th
p2444
g2
(g6
S'+\x00\x00\x00'
p2445
tp2446
Rp2447
sVpaint
p2448
g2
(g6
S'\xbe\x04\x00\x00'
p2449
tp2450
Rp2451
sVstatement
p2452
g2
(g6
S'\\\x06\x00\x00'
p2453
tp2454
Rp2455
sVopening
p2456
g2
(g6
S'\xab\x04\x00\x00'
p2457
tp2458
Rp2459
sVrelationship
p2460
g2
(g6
S'\x87\x05\x00\x00'
p2461
tp2462
Rp2463
sVfocusing
p2464
g2
(g6
S'\xbb\x02\x00\x00'
p2465
tp2466
Rp2467
sVbelieve
p2468
g2
(g6
S'\xb1\x00\x00\x00'
p2469
tp2470
Rp2471
sVobama
p2472
g2
(g6
S'\x97\x04\x00\x00'
p2473
tp2474
Rp2475
sVx51
p2476
g2
(g6
S'~\x07\x00\x00'
p2477
tp2478
Rp2479
sVyouth
p2480
g2
(g6
S'\x8a\x07\x00\x00'
p2481
tp2482
Rp2483
sVbohemian
p2484
g2
(g6
S'\xcd\x00\x00\x00'
p2485
tp2486
Rp2487
sV2020
p2488
g2
(g6
S'\x17\x00\x00\x00'
p2489
tp2490
Rp2491
sVinteractive
p2492
g2
(g6
S'\x8b\x03\x00\x00'
p2493
tp2494
Rp2495
sVorders
p2496
g2
(g6
S'\xb0\x04\x00\x00'
p2497
tp2498
Rp2499
sVsell
p2500
g2
(g6
S'\xed\x05\x00\x00'
p2501
tp2502
Rp2503
sVbuilt
p2504
g2
(g6
S'\xf1\x00\x00\x00'
p2505
tp2506
Rp2507
sVflared
p2508
g2
(g6
S'\xb3\x02\x00\x00'
p2509
tp2510
Rp2511
sVdancing
p2512
g2
(g6
S'\xca\x01\x00\x00'
p2513
tp2514
Rp2515
sVself
p2516
g2
(g6
S'\xeb\x05\x00\x00'
p2517
tp2518
Rp2519
sVrecognizing
p2520
g2
(g6
S'w\x05\x00\x00'
p2521
tp2522
Rp2523
sVbuild
p2524
g2
(g6
S'\xef\x00\x00\x00'
p2525
tp2526
Rp2527
sVplay
p2528
g2
(g6
S'\t\x05\x00\x00'
p2529
tp2530
Rp2531
sVbrooklyn
p2532
g2
(g6
S'\xea\x00\x00\x00'
p2533
tp2534
Rp2535
sVplan
p2536
g2
(g6
S'\x00\x05\x00\x00'
p2537
tp2538
Rp2539
sVsignificant
p2540
g2
(g6
S'\x14\x06\x00\x00'
p2541
tp2542
Rp2543
sVcause
p2544
g2
(g6
S'"\x01\x00\x00'
p2545
tp2546
Rp2547
sVbullseye
p2548
g2
(g6
S'\xf4\x00\x00\x00'
p2549
tp2550
Rp2551
sVmicrosoft
p2552
g2
(g6
S'D\x04\x00\x00'
p2553
tp2554
Rp2555
sVgold
p2556
g2
(g6
S'\xf6\x02\x00\x00'
p2557
tp2558
Rp2559
sVbusinesses
p2560
g2
(g6
S'\xf9\x00\x00\x00'
p2561
tp2562
Rp2563
sVnetworks
p2564
g2
(g6
S'\x89\x04\x00\x00'
p2565
tp2566
Rp2567
sVimpact
p2568
g2
(g6
S'c\x03\x00\x00'
p2569
tp2570
Rp2571
sVgiant
p2572
g2
(g6
S'\xe3\x02\x00\x00'
p2573
tp2574
Rp2575
sVkeychain
p2576
g2
(g6
S'\xbe\x03\x00\x00'
p2577
tp2578
Rp2579
sVweve
p2580
g2
(g6
S'X\x07\x00\x00'
p2581
tp2582
Rp2583
sVsunny
p2584
g2
(g6
S'\x88\x06\x00\x00'
p2585
tp2586
Rp2587
sVbreast
p2588
g2
(g6
S'\xe0\x00\x00\x00'
p2589
tp2590
Rp2591
sVcommon
p2592
g2
(g6
S'{\x01\x00\x00'
p2593
tp2594
Rp2595
sVset
p2596
g2
(g6
S'\xf6\x05\x00\x00'
p2597
tp2598
Rp2599
sVenabled
p2600
g2
(g6
S'P\x02\x00\x00'
p2601
tp2602
Rp2603
sVlion
p2604
g2
(g6
S'\xf9\x03\x00\x00'
p2605
tp2606
Rp2607
sVmigration
p2608
g2
(g6
S'H\x04\x00\x00'
p2609
tp2610
Rp2611
sVexpert
p2612
g2
(g6
S'y\x02\x00\x00'
p2613
tp2614
Rp2615
sVmovie
p2616
g2
(g6
S'n\x04\x00\x00'
p2617
tp2618
Rp2619
sVfans
p2620
g2
(g6
S'\x8d\x02\x00\x00'
p2621
tp2622
Rp2623
sVdonate
p2624
g2
(g6
S'\x16\x02\x00\x00'
p2625
tp2626
Rp2627
sVeurope
p2628
g2
(g6
S'f\x02\x00\x00'
p2629
tp2630
Rp2631
sVnashville
p2632
g2
(g6
S'}\x04\x00\x00'
p2633
tp2634
Rp2635
sVimproved
p2636
g2
(g6
S'g\x03\x00\x00'
p2637
tp2638
Rp2639
sVinfluential
p2640
g2
(g6
S't\x03\x00\x00'
p2641
tp2642
Rp2643
sVannual
p2644
g2
(g6
S'o\x00\x00\x00'
p2645
tp2646
Rp2647
sVscams
p2648
g2
(g6
S'\xd2\x05\x00\x00'
p2649
tp2650
Rp2651
sVload
p2652
g2
(g6
S'\x01\x04\x00\x00'
p2653
tp2654
Rp2655
sVsimple
p2656
g2
(g6
S'\x15\x06\x00\x00'
p2657
tp2658
Rp2659
sVbejeweled
p2660
g2
(g6
S'\xb0\x00\x00\x00'
p2661
tp2662
Rp2663
sVcommunity
p2664
g2
(g6
S'~\x01\x00\x00'
p2665
tp2666
Rp2667
sVexpensive
p2668
g2
(g6
S'v\x02\x00\x00'
p2669
tp2670
Rp2671
sVplatinum
p2672
g2
(g6
S'\x08\x05\x00\x00'
p2673
tp2674
Rp2675
sVcreate
p2676
g2
(g6
S'\xab\x01\x00\x00'
p2677
tp2678
Rp2679
sVcreativity
p2680
g2
(g6
S'\xaf\x01\x00\x00'
p2681
tp2682
Rp2683
sVsecret
p2684
g2
(g6
S'\xe3\x05\x00\x00'
p2685
tp2686
Rp2687
sVinitiation
p2688
g2
(g6
S'w\x03\x00\x00'
p2689
tp2690
Rp2691
sVwish
p2692
g2
(g6
S'l\x07\x00\x00'
p2693
tp2694
Rp2695
sVgas
p2696
g2
(g6
S'\xdb\x02\x00\x00'
p2697
tp2698
Rp2699
sVinsiders
p2700
g2
(g6
S'\x7f\x03\x00\x00'
p2701
tp2702
Rp2703
sVleave
p2704
g2
(g6
S'\xe6\x03\x00\x00'
p2705
tp2706
Rp2707
sVtip
p2708
g2
(g6
S'\xd2\x06\x00\x00'
p2709
tp2710
Rp2711
sVbudget
p2712
g2
(g6
S'\xec\x00\x00\x00'
p2713
tp2714
Rp2715
sVreceive
p2716
g2
(g6
S'r\x05\x00\x00'
p2717
tp2718
Rp2719
sVfun
p2720
g2
(g6
S'\xd2\x02\x00\x00'
p2721
tp2722
Rp2723
sVvod
p2724
g2
(g6
S'0\x07\x00\x00'
p2725
tp2726
Rp2727
sVcaign
p2728
g2
(g6
S'\x00\x01\x00\x00'
p2729
tp2730
Rp2731
sVdevelopment
p2732
g2
(g6
S'\xfa\x01\x00\x00'
p2733
tp2734
Rp2735
sVpasswords
p2736
g2
(g6
S'\xd4\x04\x00\x00'
p2737
tp2738
Rp2739
sVyesterday
p2740
g2
(g6
S'\x84\x07\x00\x00'
p2741
tp2742
Rp2743
sValert
p2744
g2
(g6
S'\\\x00\x00\x00'
p2745
tp2746
Rp2747
sVsandals
p2748
g2
(g6
S'\xc8\x05\x00\x00'
p2749
tp2750
Rp2751
sVrecent
p2752
g2
(g6
S't\x05\x00\x00'
p2753
tp2754
Rp2755
sVpicks
p2756
g2
(g6
S'\xf7\x04\x00\x00'
p2757
tp2758
Rp2759
sVperson
p2760
g2
(g6
S'\xe7\x04\x00\x00'
p2761
tp2762
Rp2763
sVspend
p2764
g2
(g6
S'B\x06\x00\x00'
p2765
tp2766
Rp2767
sVceo
p2768
g2
(g6
S'*\x01\x00\x00'
p2769
tp2770
Rp2771
sVshape
p2772
g2
(g6
S'\xfd\x05\x00\x00'
p2773
tp2774
Rp2775
sV109c
p2776
g2
(g6
S'\x03\x00\x00\x00'
p2777
tp2778
Rp2779
sVwearable
p2780
g2
(g6
S'K\x07\x00\x00'
p2781
tp2782
Rp2783
sVapple
p2784
g2
(g6
S'v\x00\x00\x00'
p2785
tp2786
Rp2787
sVcut
p2788
g2
(g6
S'\xc0\x01\x00\x00'
p2789
tp2790
Rp2791
sVsnag
p2792
g2
(g6
S')\x06\x00\x00'
p2793
tp2794
Rp2795
sVparents
p2796
g2
(g6
S'\xc8\x04\x00\x00'
p2797
tp2798
Rp2799
sVsnap
p2800
g2
(g6
S'*\x06\x00\x00'
p2801
tp2802
Rp2803
sVexcited
p2804
g2
(g6
S'o\x02\x00\x00'
p2805
tp2806
Rp2807
sVsurprised
p2808
g2
(g6
S'\x91\x06\x00\x00'
p2809
tp2810
Rp2811
sVemergency
p2812
g2
(g6
S'K\x02\x00\x00'
p2813
tp2814
Rp2815
sVbig
p2816
g2
(g6
S'\xb9\x00\x00\x00'
p2817
tp2818
Rp2819
sVquest
p2820
g2
(g6
S'W\x05\x00\x00'
p2821
tp2822
Rp2823
sVbiz
p2824
g2
(g6
S'\xc2\x00\x00\x00'
p2825
tp2826
Rp2827
sVbit
p2828
g2
(g6
S'\xc0\x00\x00\x00'
p2829
tp2830
Rp2831
sVcommunications
p2832
g2
(g6
S'|\x01\x00\x00'
p2833
tp2834
Rp2835
sVstylish
p2836
g2
(g6
S'\x80\x06\x00\x00'
p2837
tp2838
Rp2839
sVgoogle
p2840
g2
(g6
S'\xfa\x02\x00\x00'
p2841
tp2842
Rp2843
sVspring
p2844
g2
(g6
S'M\x06\x00\x00'
p2845
tp2846
Rp2847
sVsprint
p2848
g2
(g6
S'N\x06\x00\x00'
p2849
tp2850
Rp2851
sVserver
p2852
g2
(g6
S'\xf3\x05\x00\x00'
p2853
tp2854
Rp2855
sVscale
p2856
g2
(g6
S'\xd1\x05\x00\x00'
p2857
tp2858
Rp2859
sVpet
p2860
g2
(g6
S'\xea\x04\x00\x00'
p2861
tp2862
Rp2863
sVintegration
p2864
g2
(g6
S'\x89\x03\x00\x00'
p2865
tp2866
Rp2867
sVconnecting
p2868
g2
(g6
S'\x8d\x01\x00\x00'
p2869
tp2870
Rp2871
sV300
p2872
g2
(g6
S' \x00\x00\x00'
p2873
tp2874
Rp2875
sVsanta
p2876
g2
(g6
S'\xca\x05\x00\x00'
p2877
tp2878
Rp2879
sVmajor
p2880
g2
(g6
S'\x1f\x04\x00\x00'
p2881
tp2882
Rp2883
sVusb
p2884
g2
(g6
S'\x15\x07\x00\x00'
p2885
tp2886
Rp2887
sVnetflix
p2888
g2
(g6
S'\x86\x04\x00\x00'
p2889
tp2890
Rp2891
sVclinton
p2892
g2
(g6
S'X\x01\x00\x00'
p2893
tp2894
Rp2895
sVexercises
p2896
g2
(g6
S'r\x02\x00\x00'
p2897
tp2898
Rp2899
sVcustom
p2900
g2
(g6
S'\xbd\x01\x00\x00'
p2901
tp2902
Rp2903
sVsuit
p2904
g2
(g6
S'\x84\x06\x00\x00'
p2905
tp2906
Rp2907
sVforward
p2908
g2
(g6
S'\xc6\x02\x00\x00'
p2909
tp2910
Rp2911
sVoriginals
p2912
g2
(g6
S'\xb1\x04\x00\x00'
p2913
tp2914
Rp2915
sVcio
p2916
g2
(g6
S'I\x01\x00\x00'
p2917
tp2918
Rp2919
sVuk
p2920
g2
(g6
S'\t\x07\x00\x00'
p2921
tp2922
Rp2923
sVsingle
p2924
g2
(g6
S'\x17\x06\x00\x00'
p2925
tp2926
Rp2927
sVchat
p2928
g2
(g6
S'5\x01\x00\x00'
p2929
tp2930
Rp2931
sVdefinitely
p2932
g2
(g6
S'\xe1\x01\x00\x00'
p2933
tp2934
Rp2935
sVmeals
p2936
g2
(g6
S'7\x04\x00\x00'
p2937
tp2938
Rp2939
sVago
p2940
g2
(g6
S'Q\x00\x00\x00'
p2941
tp2942
Rp2943
sVland
p2944
g2
(g6
S'\xd1\x03\x00\x00'
p2945
tp2946
Rp2947
sVresults
p2948
g2
(g6
S'\x97\x05\x00\x00'
p2949
tp2950
Rp2951
sVastronauts
p2952
g2
(g6
S'\x88\x00\x00\x00'
p2953
tp2954
Rp2955
sVyoung
p2956
g2
(g6
S'\x88\x07\x00\x00'
p2957
tp2958
Rp2959
sVsend
p2960
g2
(g6
S'\xef\x05\x00\x00'
p2961
tp2962
Rp2963
sVhelps
p2964
g2
(g6
S'+\x03\x00\x00'
p2965
tp2966
Rp2967
sVsent
p2968
g2
(g6
S'\xf0\x05\x00\x00'
p2969
tp2970
Rp2971
sVputting
p2972
g2
(g6
S'S\x05\x00\x00'
p2973
tp2974
Rp2975
sVmagic
p2976
g2
(g6
S'\x1c\x04\x00\x00'
p2977
tp2978
Rp2979
sVhaving
p2980
g2
(g6
S'\x1d\x03\x00\x00'
p2981
tp2982
Rp2983
sVeve
p2984
g2
(g6
S'h\x02\x00\x00'
p2985
tp2986
Rp2987
sVtry
p2988
g2
(g6
S'\xfe\x06\x00\x00'
p2989
tp2990
Rp2991
sVrace
p2992
g2
(g6
S'_\x05\x00\x00'
p2993
tp2994
Rp2995
sVtrips
p2996
g2
(g6
S'\xf9\x06\x00\x00'
p2997
tp2998
Rp2999
sVevp
p3000
g2
(g6
S'm\x02\x00\x00'
p3001
tp3002
Rp3003
sVathlete
p3004
g2
(g6
S'\x89\x00\x00\x00'
p3005
tp3006
Rp3007
sVvideo
p3008
g2
(g6
S'&\x07\x00\x00'
p3009
tp3010
Rp3011
sVsoftware
p3012
g2
(g6
S'3\x06\x00\x00'
p3013
tp3014
Rp3015
sVgiving
p3016
g2
(g6
S'\xeb\x02\x00\x00'
p3017
tp3018
Rp3019
sVaccess
p3020
g2
(g6
S'7\x00\x00\x00'
p3021
tp3022
Rp3023
sVindian
p3024
g2
(g6
S'r\x03\x00\x00'
p3025
tp3026
Rp3027
sVtwins
p3028
g2
(g6
S'\x06\x07\x00\x00'
p3029
tp3030
Rp3031
sVkayaker
p3032
g2
(g6
S'\xb9\x03\x00\x00'
p3033
tp3034
Rp3035
sVexercise
p3036
g2
(g6
S'q\x02\x00\x00'
p3037
tp3038
Rp3039
sV3d
p3040
g2
(g6
S'%\x00\x00\x00'
p3041
tp3042
Rp3043
sVbody
p3044
g2
(g6
S'\xcc\x00\x00\x00'
p3045
tp3046
Rp3047
sVcapes
p3048
g2
(g6
S'\x0c\x01\x00\x00'
p3049
tp3050
Rp3051
sVlet
p3052
g2
(g6
S'\xea\x03\x00\x00'
p3053
tp3054
Rp3055
sVsafer
p3056
g2
(g6
S'\xc0\x05\x00\x00'
p3057
tp3058
Rp3059
sVbald
p3060
g2
(g6
S'\xa2\x00\x00\x00'
p3061
tp3062
Rp3063
sVextreme
p3064
g2
(g6
S'\x82\x02\x00\x00'
p3065
tp3066
Rp3067
sVgreat
p3068
g2
(g6
S'\x00\x03\x00\x00'
p3069
tp3070
Rp3071
sVtalent
p3072
g2
(g6
S'\xa1\x06\x00\x00'
p3073
tp3074
Rp3075
sV33
p3076
g2
(g6
S'!\x00\x00\x00'
p3077
tp3078
Rp3079
sV30
p3080
g2
(g6
S'\x1f\x00\x00\x00'
p3081
tp3082
Rp3083
sV35
p3084
g2
(g6
S'"\x00\x00\x00'
p3085
tp3086
Rp3087
sVsurvey
p3088
g2
(g6
S'\x92\x06\x00\x00'
p3089
tp3090
Rp3091
sVresidents
p3092
g2
(g6
S'\x91\x05\x00\x00'
p3093
tp3094
Rp3095
sVmakes
p3096
g2
(g6
S'"\x04\x00\x00'
p3097
tp3098
Rp3099
sVmaker
p3100
g2
(g6
S'!\x04\x00\x00'
p3101
tp3102
Rp3103
sVgrower
p3104
g2
(g6
S'\x05\x03\x00\x00'
p3105
tp3106
Rp3107
sVnamed
p3108
g2
(g6
S'{\x04\x00\x00'
p3109
tp3110
Rp3111
sVprivate
p3112
g2
(g6
S':\x05\x00\x00'
p3113
tp3114
Rp3115
sVnames
p3116
g2
(g6
S'|\x04\x00\x00'
p3117
tp3118
Rp3119
sVresolutions
p3120
g2
(g6
S'\x93\x05\x00\x00'
p3121
tp3122
Rp3123
sVhalloween
p3124
g2
(g6
S'\x10\x03\x00\x00'
p3125
tp3126
Rp3127
sVprizes
p3128
g2
(g6
S'=\x05\x00\x00'
p3129
tp3130
Rp3131
sVbaby
p3132
g2
(g6
S'\x9e\x00\x00\x00'
p3133
tp3134
Rp3135
sVcustomer
p3136
g2
(g6
S'\xbe\x01\x00\x00'
p3137
tp3138
Rp3139
sVaccount
p3140
g2
(g6
S':\x00\x00\x00'
p3141
tp3142
Rp3143
sVballs
p3144
g2
(g6
S'\xa4\x00\x00\x00'
p3145
tp3146
Rp3147
sVprocess
p3148
g2
(g6
S'@\x05\x00\x00'
p3149
tp3150
Rp3151
sVpieces
p3152
g2
(g6
S'\xfb\x04\x00\x00'
p3153
tp3154
Rp3155
sVhigh
p3156
g2
(g6
S'2\x03\x00\x00'
p3157
tp3158
Rp3159
sVbones
p3160
g2
(g6
S'\xd0\x00\x00\x00'
p3161
tp3162
Rp3163
sVholds
p3164
g2
(g6
S'=\x03\x00\x00'
p3165
tp3166
Rp3167
sVwinners
p3168
g2
(g6
S'g\x07\x00\x00'
p3169
tp3170
Rp3171
sVanimal
p3172
g2
(g6
S'i\x00\x00\x00'
p3173
tp3174
Rp3175
sVcomedy
p3176
g2
(g6
S's\x01\x00\x00'
p3177
tp3178
Rp3179
sVstock
p3180
g2
(g6
S'c\x06\x00\x00'
p3181
tp3182
Rp3183
sVyouve
p3184
g2
(g6
S'\x8c\x07\x00\x00'
p3185
tp3186
Rp3187
sVcollection
p3188
g2
(g6
S'j\x01\x00\x00'
p3189
tp3190
Rp3191
sVfray
p3192
g2
(g6
S'\xc8\x02\x00\x00'
p3193
tp3194
Rp3195
sVaniston
p3196
g2
(g6
S'j\x00\x00\x00'
p3197
tp3198
Rp3199
sVdiscusses
p3200
g2
(g6
S'\x08\x02\x00\x00'
p3201
tp3202
Rp3203
sVlines
p3204
g2
(g6
S'\xf7\x03\x00\x00'
p3205
tp3206
Rp3207
sVchief
p3208
g2
(g6
S'=\x01\x00\x00'
p3209
tp3210
Rp3211
sVproducer
p3212
g2
(g6
S'B\x05\x00\x00'
p3213
tp3214
Rp3215
sVwhitey
p3216
g2
(g6
S'^\x07\x00\x00'
p3217
tp3218
Rp3219
sVstruggles
p3220
g2
(g6
S'v\x06\x00\x00'
p3221
tp3222
Rp3223
sVproduced
p3224
g2
(g6
S'A\x05\x00\x00'
p3225
tp3226
Rp3227
sVgalaxy
p3228
g2
(g6
S'\xd4\x02\x00\x00'
p3229
tp3230
Rp3231
sVperfect
p3232
g2
(g6
S'\xe1\x04\x00\x00'
p3233
tp3234
Rp3235
sVla
p3236
g2
(g6
S'\xcf\x03\x00\x00'
p3237
tp3238
Rp3239
sVll
p3240
g2
(g6
S'\x00\x04\x00\x00'
p3241
tp3242
Rp3243
sV2015
p3244
g2
(g6
S'\x15\x00\x00\x00'
p3245
tp3246
Rp3247
sV2014
p3248
g2
(g6
S'\x14\x00\x00\x00'
p3249
tp3250
Rp3251
sV2016
p3252
g2
(g6
S'\x16\x00\x00\x00'
p3253
tp3254
Rp3255
sVdad
p3256
g2
(g6
S'\xc7\x01\x00\x00'
p3257
tp3258
Rp3259
sVdesigns
p3260
g2
(g6
S'\xf1\x01\x00\x00'
p3261
tp3262
Rp3263
sVcutting
p3264
g2
(g6
S'\xc3\x01\x00\x00'
p3265
tp3266
Rp3267
sVpresidential
p3268
g2
(g6
S'/\x05\x00\x00'
p3269
tp3270
Rp3271
sVtruth
p3272
g2
(g6
S'\xfd\x06\x00\x00'
p3273
tp3274
Rp3275
sVdoing
p3276
g2
(g6
S'\x12\x02\x00\x00'
p3277
tp3278
Rp3279
sVbooks
p3280
g2
(g6
S'\xd3\x00\x00\x00'
p3281
tp3282
Rp3283
sVrobot
p3284
g2
(g6
S'\xb0\x05\x00\x00'
p3285
tp3286
Rp3287
sVmatt
p3288
g2
(g6
S'4\x04\x00\x00'
p3289
tp3290
Rp3291
sVannounces
p3292
g2
(g6
S'n\x00\x00\x00'
p3293
tp3294
Rp3295
sVred
p3296
g2
(g6
S'~\x05\x00\x00'
p3297
tp3298
Rp3299
sVrelease
p3300
g2
(g6
S'\x88\x05\x00\x00'
p3301
tp3302
Rp3303
sVtied
p3304
g2
(g6
S'\xcd\x06\x00\x00'
p3305
tp3306
Rp3307
sVrecipes
p3308
g2
(g6
S'u\x05\x00\x00'
p3309
tp3310
Rp3311
sVdavid
p3312
g2
(g6
S'\xd2\x01\x00\x00'
p3313
tp3314
Rp3315
sVretail
p3316
g2
(g6
S'\x99\x05\x00\x00'
p3317
tp3318
Rp3319
sVblown
p3320
g2
(g6
S'\xc7\x00\x00\x00'
p3321
tp3322
Rp3323
sVscene
p3324
g2
(g6
S'\xd3\x05\x00\x00'
p3325
tp3326
Rp3327
sVowned
p3328
g2
(g6
S'\xb9\x04\x00\x00'
p3329
tp3330
Rp3331
sVowner
p3332
g2
(g6
S'\xba\x04\x00\x00'
p3333
tp3334
Rp3335
sVscent
p3336
g2
(g6
S'\xd5\x05\x00\x00'
p3337
tp3338
Rp3339
sVstart
p3340
g2
(g6
S'W\x06\x00\x00'
p3341
tp3342
Rp3343
sVfestival
p3344
g2
(g6
S'\x9c\x02\x00\x00'
p3345
tp3346
Rp3347
sVdecorations
p3348
g2
(g6
S'\xe0\x01\x00\x00'
p3349
tp3350
Rp3351
sVlow
p3352
g2
(g6
S'\x10\x04\x00\x00'
p3353
tp3354
Rp3355
sVhaves
p3356
g2
(g6
S'\x1c\x03\x00\x00'
p3357
tp3358
Rp3359
sVstars
p3360
g2
(g6
S'V\x06\x00\x00'
p3361
tp3362
Rp3363
sVipad
p3364
g2
(g6
S'\x98\x03\x00\x00'
p3365
tp3366
Rp3367
sVloved
p3368
g2
(g6
S'\x0f\x04\x00\x00'
p3369
tp3370
Rp3371
sVreacted
p3372
g2
(g6
S'h\x05\x00\x00'
p3373
tp3374
Rp3375
sVurrl
p3376
g2
(g6
S'\x13\x07\x00\x00'
p3377
tp3378
Rp3379
sVpartnership
p3380
g2
(g6
S'\xcf\x04\x00\x00'
p3381
tp3382
Rp3383
sVtonight
p3384
g2
(g6
S'\xd9\x06\x00\x00'
p3385
tp3386
Rp3387
sVclose
p3388
g2
(g6
S'Z\x01\x00\x00'
p3389
tp3390
Rp3391
sVsky
p3392
g2
(g6
S'\x1e\x06\x00\x00'
p3393
tp3394
Rp3395
sVdishes
p3396
g2
(g6
S'\t\x02\x00\x00'
p3397
tp3398
Rp3399
sVcongrats
p3400
g2
(g6
S'\x8a\x01\x00\x00'
p3401
tp3402
Rp3403
sVmid
p3404
g2
(g6
S'E\x04\x00\x00'
p3405
tp3406
Rp3407
sVparks
p3408
g2
(g6
S'\xca\x04\x00\x00'
p3409
tp3410
Rp3411
sVcourtesy
p3412
g2
(g6
S'\xa5\x01\x00\x00'
p3413
tp3414
Rp3415
sVvisa
p3416
g2
(g6
S'-\x07\x00\x00'
p3417
tp3418
Rp3419
sVdevice
p3420
g2
(g6
S'\xfb\x01\x00\x00'
p3421
tp3422
Rp3423
sVstronger
p3424
g2
(g6
S't\x06\x00\x00'
p3425
tp3426
Rp3427
sVface
p3428
g2
(g6
S'\x85\x02\x00\x00'
p3429
tp3430
Rp3431
sVpainting
p3432
g2
(g6
S'\xbf\x04\x00\x00'
p3433
tp3434
Rp3435
sVbring
p3436
g2
(g6
S'\xe3\x00\x00\x00'
p3437
tp3438
Rp3439
sVkits
p3440
g2
(g6
S'\xc9\x03\x00\x00'
p3441
tp3442
Rp3443
sVportfolio
p3444
g2
(g6
S'\x16\x05\x00\x00'
p3445
tp3446
Rp3447
sVdecade
p3448
g2
(g6
S'\xdb\x01\x00\x00'
p3449
tp3450
Rp3451
sVstaff
p3452
g2
(g6
S'Q\x06\x00\x00'
p3453
tp3454
Rp3455
sVinspiring
p3456
g2
(g6
S'\x83\x03\x00\x00'
p3457
tp3458
Rp3459
sVknowledge
p3460
g2
(g6
S'\xcc\x03\x00\x00'
p3461
tp3462
Rp3463
sVbuttons
p3464
g2
(g6
S'\xfa\x00\x00\x00'
p3465
tp3466
Rp3467
sVhope
p3468
g2
(g6
S'H\x03\x00\x00'
p3469
tp3470
Rp3471
sVphotography
p3472
g2
(g6
S'\xf1\x04\x00\x00'
p3473
tp3474
Rp3475
sVstripes
p3476
g2
(g6
S'r\x06\x00\x00'
p3477
tp3478
Rp3479
sVact
p3480
g2
(g6
S'<\x00\x00\x00'
p3481
tp3482
Rp3483
sVcalling
p3484
g2
(g6
S'\x04\x01\x00\x00'
p3485
tp3486
Rp3487
sVmotherhood
p3488
g2
(g6
S'h\x04\x00\x00'
p3489
tp3490
Rp3491
sVstuff
p3492
g2
(g6
S'|\x06\x00\x00'
p3493
tp3494
Rp3495
sVussernms
p3496
g2
(g6
S'\x1c\x07\x00\x00'
p3497
tp3498
Rp3499
sVincluding
p3500
g2
(g6
S'k\x03\x00\x00'
p3501
tp3502
Rp3503
sVexperiences
p3504
g2
(g6
S'x\x02\x00\x00'
p3505
tp3506
Rp3507
sVlooks
p3508
g2
(g6
S'\x07\x04\x00\x00'
p3509
tp3510
Rp3511
sVedition
p3512
g2
(g6
S'>\x02\x00\x00'
p3513
tp3514
Rp3515
sVenhanced
p3516
g2
(g6
S'V\x02\x00\x00'
p3517
tp3518
Rp3519
sVsuperhero
p3520
g2
(g6
S'\x8a\x06\x00\x00'
p3521
tp3522
Rp3523
sVemail
p3524
g2
(g6
S'G\x02\x00\x00'
p3525
tp3526
Rp3527
sVdeliver
p3528
g2
(g6
S'\xe4\x01\x00\x00'
p3529
tp3530
Rp3531
sVfinales
p3532
g2
(g6
S'\xa6\x02\x00\x00'
p3533
tp3534
Rp3535
sVinstant
p3536
g2
(g6
S'\x86\x03\x00\x00'
p3537
tp3538
Rp3539
sVcc
p3540
g2
(g6
S'#\x01\x00\x00'
p3541
tp3542
Rp3543
sVdenim
p3544
g2
(g6
S'\xea\x01\x00\x00'
p3545
tp3546
Rp3547
sVmodeling
p3548
g2
(g6
S'X\x04\x00\x00'
p3549
tp3550
Rp3551
sVlabor
p3552
g2
(g6
S'\xd0\x03\x00\x00'
p3553
tp3554
Rp3555
sVpowered
p3556
g2
(g6
S'\x1f\x05\x00\x00'
p3557
tp3558
Rp3559
sVhottest
p3560
g2
(g6
S'N\x03\x00\x00'
p3561
tp3562
Rp3563
sVreceived
p3564
g2
(g6
S's\x05\x00\x00'
p3565
tp3566
Rp3567
sVclimate
p3568
g2
(g6
S'W\x01\x00\x00'
p3569
tp3570
Rp3571
sVlatitude
p3572
g2
(g6
S'\xdb\x03\x00\x00'
p3573
tp3574
Rp3575
sVhomes
p3576
g2
(g6
S'B\x03\x00\x00'
p3577
tp3578
Rp3579
sVmulti
p3580
g2
(g6
S't\x04\x00\x00'
p3581
tp3582
Rp3583
sVrunway
p3584
g2
(g6
S'\xbd\x05\x00\x00'
p3585
tp3586
Rp3587
sVultra
p3588
g2
(g6
S'\x0b\x07\x00\x00'
p3589
tp3590
Rp3591
sVve
p3592
g2
(g6
S'\x1f\x07\x00\x00'
p3593
tp3594
Rp3595
sVadventures
p3596
g2
(g6
S'N\x00\x00\x00'
p3597
tp3598
Rp3599
sVvp
p3600
g2
(g6
S'5\x07\x00\x00'
p3601
tp3602
Rp3603
sVvs
p3604
g2
(g6
S'7\x07\x00\x00'
p3605
tp3606
Rp3607
sVproductivity
p3608
g2
(g6
S'D\x05\x00\x00'
p3609
tp3610
Rp3611
sVandroid
p3612
g2
(g6
S'h\x00\x00\x00'
p3613
tp3614
Rp3615
sVios
p3616
g2
(g6
S'\x96\x03\x00\x00'
p3617
tp3618
Rp3619
sVrobotic
p3620
g2
(g6
S'\xb1\x05\x00\x00'
p3621
tp3622
Rp3623
sVcenter
p3624
g2
(g6
S'(\x01\x00\x00'
p3625
tp3626
Rp3627
sVthought
p3628
g2
(g6
S'\xc5\x06\x00\x00'
p3629
tp3630
Rp3631
sVcreators
p3632
g2
(g6
S'\xb0\x01\x00\x00'
p3633
tp3634
Rp3635
sVlatest
p3636
g2
(g6
S'\xd8\x03\x00\x00'
p3637
tp3638
Rp3639
sVnewest
p3640
g2
(g6
S'\x8b\x04\x00\x00'
p3641
tp3642
Rp3643
sVmoments
p3644
g2
(g6
S']\x04\x00\x00'
p3645
tp3646
Rp3647
sVwagner
p3648
g2
(g6
S'9\x07\x00\x00'
p3649
tp3650
Rp3651
sVrooms
p3652
g2
(g6
S'\xb6\x05\x00\x00'
p3653
tp3654
Rp3655
sVpaul
p3656
g2
(g6
S'\xd7\x04\x00\x00'
p3657
tp3658
Rp3659
sVweb
p3660
g2
(g6
S'O\x07\x00\x00'
p3661
tp3662
Rp3663
sVads
p3664
g2
(g6
S'K\x00\x00\x00'
p3665
tp3666
Rp3667
sVpodcast
p3668
g2
(g6
S'\x11\x05\x00\x00'
p3669
tp3670
Rp3671
sVday
p3672
g2
(g6
S'\xd3\x01\x00\x00'
p3673
tp3674
Rp3675
sVadd
p3676
g2
(g6
S'B\x00\x00\x00'
p3677
tp3678
Rp3679
sVada
p3680
g2
(g6
S'A\x00\x00\x00'
p3681
tp3682
Rp3683
sVmatch
p3684
g2
(g6
S'2\x04\x00\x00'
p3685
tp3686
Rp3687
sVincreased
p3688
g2
(g6
S'n\x03\x00\x00'
p3689
tp3690
Rp3691
sVdesk
p3692
g2
(g6
S'\xf2\x01\x00\x00'
p3693
tp3694
Rp3695
sVtaking
p3696
g2
(g6
S'\xa0\x06\x00\x00'
p3697
tp3698
Rp3699
sVlike
p3700
g2
(g6
S'\xf4\x03\x00\x00'
p3701
tp3702
Rp3703
sVgarage
p3704
g2
(g6
S'\xd8\x02\x00\x00'
p3705
tp3706
Rp3707
sVworks
p3708
g2
(g6
S'w\x07\x00\x00'
p3709
tp3710
Rp3711
sV12pm
p3712
g2
(g6
S'\x07\x00\x00\x00'
p3713
tp3714
Rp3715
sVhappens
p3716
g2
(g6
S'\x18\x03\x00\x00'
p3717
tp3718
Rp3719
sVest
p3720
g2
(g6
S'c\x02\x00\x00'
p3721
tp3722
Rp3723
sVbedding
p3724
g2
(g6
S'\xae\x00\x00\x00'
p3725
tp3726
Rp3727
sVdoes
p3728
g2
(g6
S'\x0f\x02\x00\x00'
p3729
tp3730
Rp3731
sVpassion
p3732
g2
(g6
S'\xd3\x04\x00\x00'
p3733
tp3734
Rp3735
sVhost
p3736
g2
(g6
S'J\x03\x00\x00'
p3737
tp3738
Rp3739
sVworthy
p3740
g2
(g6
S'|\x07\x00\x00'
p3741
tp3742
Rp3743
sVsister
p3744
g2
(g6
S'\x18\x06\x00\x00'
p3745
tp3746
Rp3747
sVasks
p3748
g2
(g6
S'\x86\x00\x00\x00'
p3749
tp3750
Rp3751
sVletters
p3752
g2
(g6
S'\xed\x03\x00\x00'
p3753
tp3754
Rp3755
sVcontentup
p3756
g2
(g6
S'\x93\x01\x00\x00'
p3757
tp3758
Rp3759
sVsocks
p3760
g2
(g6
S'1\x06\x00\x00'
p3761
tp3762
Rp3763
sVfemale
p3764
g2
(g6
S'\x9a\x02\x00\x00'
p3765
tp3766
Rp3767
sVconfident
p3768
g2
(g6
S'\x89\x01\x00\x00'
p3769
tp3770
Rp3771
sVpairing
p3772
g2
(g6
S'\xc1\x04\x00\x00'
p3773
tp3774
Rp3775
sVbiggest
p3776
g2
(g6
S'\xba\x00\x00\x00'
p3777
tp3778
Rp3779
sVmaze
p3780
g2
(g6
S'6\x04\x00\x00'
p3781
tp3782
Rp3783
sVbuy
p3784
g2
(g6
S'\xfb\x00\x00\x00'
p3785
tp3786
Rp3787
sVbrand
p3788
g2
(g6
S'\xda\x00\x00\x00'
p3789
tp3790
Rp3791
sVbun
p3792
g2
(g6
S'\xf5\x00\x00\x00'
p3793
tp3794
Rp3795
sVbug
p3796
g2
(g6
S'\xed\x00\x00\x00'
p3797
tp3798
Rp3799
sVcount
p3800
g2
(g6
S'\xa2\x01\x00\x00'
p3801
tp3802
Rp3803
sVdangerous
p3804
g2
(g6
S'\xcb\x01\x00\x00'
p3805
tp3806
Rp3807
sVofficial
p3808
g2
(g6
S'\xa0\x04\x00\x00'
p3809
tp3810
Rp3811
sVflip
p3812
g2
(g6
S'\xb6\x02\x00\x00'
p3813
tp3814
Rp3815
sVminutes
p3816
g2
(g6
S'P\x04\x00\x00'
p3817
tp3818
Rp3819
sVpic
p3820
g2
(g6
S'\xf4\x04\x00\x00'
p3821
tp3822
Rp3823
sVvirtual
p3824
g2
(g6
S',\x07\x00\x00'
p3825
tp3826
Rp3827
sVdetails
p3828
g2
(g6
S'\xf7\x01\x00\x00'
p3829
tp3830
Rp3831
sVhpc
p3832
g2
(g6
S'S\x03\x00\x00'
p3833
tp3834
Rp3835
sVoutlines
p3836
g2
(g6
S'\xb5\x04\x00\x00'
p3837
tp3838
Rp3839
sVmonday
p3840
g2
(g6
S'^\x04\x00\x00'
p3841
tp3842
Rp3843
sVclass
p3844
g2
(g6
S'P\x01\x00\x00'
p3845
tp3846
Rp3847
sVbundle
p3848
g2
(g6
S'\xf6\x00\x00\x00'
p3849
tp3850
Rp3851
sVchance
p3852
g2
(g6
S'.\x01\x00\x00'
p3853
tp3854
Rp3855
sVinspiration
p3856
g2
(g6
S'\x80\x03\x00\x00'
p3857
tp3858
Rp3859
sVresolution
p3860
g2
(g6
S'\x92\x05\x00\x00'
p3861
tp3862
Rp3863
sVlimited
p3864
g2
(g6
S'\xf5\x03\x00\x00'
p3865
tp3866
Rp3867
sVsleek
p3868
g2
(g6
S' \x06\x00\x00'
p3869
tp3870
Rp3871
sVyikes
p3872
g2
(g6
S'\x85\x07\x00\x00'
p3873
tp3874
Rp3875
sVsleep
p3876
g2
(g6
S'!\x06\x00\x00'
p3877
tp3878
Rp3879
sVconsider
p3880
g2
(g6
S'\x90\x01\x00\x00'
p3881
tp3882
Rp3883
sVparis
p3884
g2
(g6
S'\xc9\x04\x00\x00'
p3885
tp3886
Rp3887
sVworth
p3888
g2
(g6
S'{\x07\x00\x00'
p3889
tp3890
Rp3891
sVrisk
p3892
g2
(g6
S'\xae\x05\x00\x00'
p3893
tp3894
Rp3895
sVrise
p3896
g2
(g6
S'\xac\x05\x00\x00'
p3897
tp3898
Rp3899
sVtickets
p3900
g2
(g6
S'\xcc\x06\x00\x00'
p3901
tp3902
Rp3903
sVschool
p3904
g2
(g6
S'\xd6\x05\x00\x00'
p3905
tp3906
Rp3907
sVvenue
p3908
g2
(g6
S'!\x07\x00\x00'
p3909
tp3910
Rp3911
sVhonor
p3912
g2
(g6
S'C\x03\x00\x00'
p3913
tp3914
Rp3915
sVannounced
p3916
g2
(g6
S'm\x00\x00\x00'
p3917
tp3918
Rp3919
sVreinvent
p3920
g2
(g6
S'\x86\x05\x00\x00'
p3921
tp3922
Rp3923
sVenjoy
p3924
g2
(g6
S'X\x02\x00\x00'
p3925
tp3926
Rp3927
sVleaders
p3928
g2
(g6
S'\xe0\x03\x00\x00'
p3929
tp3930
Rp3931
sVphones
p3932
g2
(g6
S'\xee\x04\x00\x00'
p3933
tp3934
Rp3935
sVguidelines
p3936
g2
(g6
S'\n\x03\x00\x00'
p3937
tp3938
Rp3939
sVstreet
p3940
g2
(g6
S'm\x06\x00\x00'
p3941
tp3942
Rp3943
sVpanda
p3944
g2
(g6
S'\xc2\x04\x00\x00'
p3945
tp3946
Rp3947
sVshining
p3948
g2
(g6
S'\x08\x06\x00\x00'
p3949
tp3950
Rp3951
sVblue
p3952
g2
(g6
S'\xc9\x00\x00\x00'
p3953
tp3954
Rp3955
sVofficially
p3956
g2
(g6
S'\xa1\x04\x00\x00'
p3957
tp3958
Rp3959
sVdisney
p3960
g2
(g6
S'\x0b\x02\x00\x00'
p3961
tp3962
Rp3963
sVfestive
p3964
g2
(g6
S'\x9d\x02\x00\x00'
p3965
tp3966
Rp3967
sVpluto
p3968
g2
(g6
S'\x0e\x05\x00\x00'
p3969
tp3970
Rp3971
sVstudio
p3972
g2
(g6
S'y\x06\x00\x00'
p3973
tp3974
Rp3975
sVpath
p3976
g2
(g6
S'\xd6\x04\x00\x00'
p3977
tp3978
Rp3979
sVitems
p3980
g2
(g6
S'\xa1\x03\x00\x00'
p3981
tp3982
Rp3983
sVchanged
p3984
g2
(g6
S'0\x01\x00\x00'
p3985
tp3986
Rp3987
sVanchor
p3988
g2
(g6
S'g\x00\x00\x00'
p3989
tp3990
Rp3991
sVstressed
p3992
g2
(g6
S'q\x06\x00\x00'
p3993
tp3994
Rp3995
sVakc
p3996
g2
(g6
S'X\x00\x00\x00'
p3997
tp3998
Rp3999
sVprints
p4000
g2
(g6
S'9\x05\x00\x00'
p4001
tp4002
Rp4003
sVsecure
p4004
g2
(g6
S'\xe5\x05\x00\x00'
p4005
tp4006
Rp4007
sVhighly
p4008
g2
(g6
S'6\x03\x00\x00'
p4009
tp4010
Rp4011
sVthursday
p4012
g2
(g6
S'\xca\x06\x00\x00'
p4013
tp4014
Rp4015
sVpinspiration
p4016
g2
(g6
S'\xfd\x04\x00\x00'
p4017
tp4018
Rp4019
sVsweater
p4020
g2
(g6
S'\x95\x06\x00\x00'
p4021
tp4022
Rp4023
sVcomcast
p4024
g2
(g6
S'q\x01\x00\x00'
p4025
tp4026
Rp4027
sVpreview
p4028
g2
(g6
S'3\x05\x00\x00'
p4029
tp4030
Rp4031
sVgarca
p4032
g2
(g6
S'\xda\x02\x00\x00'
p4033
tp4034
Rp4035
sVinfusion
p4036
g2
(g6
S'v\x03\x00\x00'
p4037
tp4038
Rp4039
sVmuse
p4040
g2
(g6
S'w\x04\x00\x00'
p4041
tp4042
Rp4043
sVphone
p4044
g2
(g6
S'\xed\x04\x00\x00'
p4045
tp4046
Rp4047
sVjoin
p4048
g2
(g6
S'\xaf\x03\x00\x00'
p4049
tp4050
Rp4051
sVwork
p4052
g2
(g6
S'r\x07\x00\x00'
p4053
tp4054
Rp4055
sVmt
p4056
g2
(g6
S'q\x04\x00\x00'
p4057
tp4058
Rp4059
sVexperts
p4060
g2
(g6
S'z\x02\x00\x00'
p4061
tp4062
Rp4063
sVbandleader
p4064
g2
(g6
S'\xa5\x00\x00\x00'
p4065
tp4066
Rp4067
sVindia
p4068
g2
(g6
S'q\x03\x00\x00'
p4069
tp4070
Rp4071
sVpaparazzi
p4072
g2
(g6
S'\xc3\x04\x00\x00'
p4073
tp4074
Rp4075
sVattract
p4076
g2
(g6
S'\x8e\x00\x00\x00'
p4077
tp4078
Rp4079
sVend
p4080
g2
(g6
S'R\x02\x00\x00'
p4081
tp4082
Rp4083
sVrecovery
p4084
g2
(g6
S'z\x05\x00\x00'
p4085
tp4086
Rp4087
sVmacys
p4088
g2
(g6
S'\x1b\x04\x00\x00'
p4089
tp4090
Rp4091
sVsitting
p4092
g2
(g6
S'\x19\x06\x00\x00'
p4093
tp4094
Rp4095
sVinterview
p4096
g2
(g6
S'\x90\x03\x00\x00'
p4097
tp4098
Rp4099
sVtransforming
p4100
g2
(g6
S'\xea\x06\x00\x00'
p4101
tp4102
Rp4103
sVearlier
p4104
g2
(g6
S'2\x02\x00\x00'
p4105
tp4106
Rp4107
sVdanny
p4108
g2
(g6
S'\xcd\x01\x00\x00'
p4109
tp4110
Rp4111
sVgreen
p4112
g2
(g6
S'\x01\x03\x00\x00'
p4113
tp4114
Rp4115
sVultimate
p4116
g2
(g6
S'\n\x07\x00\x00'
p4117
tp4118
Rp4119
sVenter
p4120
g2
(g6
S'Z\x02\x00\x00'
p4121
tp4122
Rp4123
sVfan
p4124
g2
(g6
S'\x8c\x02\x00\x00'
p4125
tp4126
Rp4127
sVorder
p4128
g2
(g6
S'\xaf\x04\x00\x00'
p4129
tp4130
Rp4131
sVinterpretation
p4132
g2
(g6
S'\x8f\x03\x00\x00'
p4133
tp4134
Rp4135
sVoffice
p4136
g2
(g6
S'\x9e\x04\x00\x00'
p4137
tp4138
Rp4139
sVfinest
p4140
g2
(g6
S'\xac\x02\x00\x00'
p4141
tp4142
Rp4143
sVoven
p4144
g2
(g6
S'\xb7\x04\x00\x00'
p4145
tp4146
Rp4147
sVinnovative
p4148
g2
(g6
S'}\x03\x00\x00'
p4149
tp4150
Rp4151
sVhighlights
p4152
g2
(g6
S'5\x03\x00\x00'
p4153
tp4154
Rp4155
sVcoffee
p4156
g2
(g6
S'f\x01\x00\x00'
p4157
tp4158
Rp4159
sVsafe
p4160
g2
(g6
S'\xbf\x05\x00\x00'
p4161
tp4162
Rp4163
sVbreak
p4164
g2
(g6
S'\xdb\x00\x00\x00'
p4165
tp4166
Rp4167
sVcrossbody
p4168
g2
(g6
S'\xb5\x01\x00\x00'
p4169
tp4170
Rp4171
sVherald
p4172
g2
(g6
S',\x03\x00\x00'
p4173
tp4174
Rp4175
sVfitness
p4176
g2
(g6
S'\xb1\x02\x00\x00'
p4177
tp4178
Rp4179
sVsears
p4180
g2
(g6
S'\xdd\x05\x00\x00'
p4181
tp4182
Rp4183
sVhosted
p4184
g2
(g6
S'K\x03\x00\x00'
p4185
tp4186
Rp4187
sVeffortlessly
p4188
g2
(g6
S'B\x02\x00\x00'
p4189
tp4190
Rp4191
sVsaturday
p4192
g2
(g6
S'\xcb\x05\x00\x00'
p4193
tp4194
Rp4195
sVnetwork
p4196
g2
(g6
S'\x87\x04\x00\x00'
p4197
tp4198
Rp4199
sVdriving
p4200
g2
(g6
S'*\x02\x00\x00'
p4201
tp4202
Rp4203
sVtried
p4204
g2
(g6
S'\xf6\x06\x00\x00'
p4205
tp4206
Rp4207
sVdaniel
p4208
g2
(g6
S'\xcc\x01\x00\x00'
p4209
tp4210
Rp4211
sVgot
p4212
g2
(g6
S'\xfc\x02\x00\x00'
p4213
tp4214
Rp4215
sVgop
p4216
g2
(g6
S'\xfb\x02\x00\x00'
p4217
tp4218
Rp4219
sVindependence
p4220
g2
(g6
S'p\x03\x00\x00'
p4221
tp4222
Rp4223
sVleftovers
p4224
g2
(g6
S'\xe7\x03\x00\x00'
p4225
tp4226
Rp4227
sVfree
p4228
g2
(g6
S'\xc9\x02\x00\x00'
p4229
tp4230
Rp4231
sVcreated
p4232
g2
(g6
S'\xac\x01\x00\x00'
p4233
tp4234
Rp4235
sVrefugee
p4236
g2
(g6
S'\x84\x05\x00\x00'
p4237
tp4238
Rp4239
sVdays
p4240
g2
(g6
S'\xd4\x01\x00\x00'
p4241
tp4242
Rp4243
sVcreates
p4244
g2
(g6
S'\xad\x01\x00\x00'
p4245
tp4246
Rp4247
sVdelicious
p4248
g2
(g6
S'\xe3\x01\x00\x00'
p4249
tp4250
Rp4251
sVtoy
p4252
g2
(g6
S'\xe1\x06\x00\x00'
p4253
tp4254
Rp4255
sVplentiful
p4256
g2
(g6
S'\x0c\x05\x00\x00'
p4257
tp4258
Rp4259
sVrates
p4260
g2
(g6
S'e\x05\x00\x00'
p4261
tp4262
Rp4263
sVthoughts
p4264
g2
(g6
S'\xc6\x06\x00\x00'
p4265
tp4266
Rp4267
sVjohn
p4268
g2
(g6
S'\xae\x03\x00\x00'
p4269
tp4270
Rp4271
sVtoe
p4272
g2
(g6
S'\xd7\x06\x00\x00'
p4273
tp4274
Rp4275
sVceiling
p4276
g2
(g6
S'$\x01\x00\x00'
p4277
tp4278
Rp4279
sVenhancing
p4280
g2
(g6
S'W\x02\x00\x00'
p4281
tp4282
Rp4283
sVtook
p4284
g2
(g6
S'\xda\x06\x00\x00'
p4285
tp4286
Rp4287
sVwardrobe
p4288
g2
(g6
S'D\x07\x00\x00'
p4289
tp4290
Rp4291
sVtarget
p4292
g2
(g6
S'\xa5\x06\x00\x00'
p4293
tp4294
Rp4295
sVroles
p4296
g2
(g6
S'\xb3\x05\x00\x00'
p4297
tp4298
Rp4299
sVscenes
p4300
g2
(g6
S'\xd4\x05\x00\x00'
p4301
tp4302
Rp4303
sVfashion
p4304
g2
(g6
S'\x8f\x02\x00\x00'
p4305
tp4306
Rp4307
sVnavigate
p4308
g2
(g6
S'\x82\x04\x00\x00'
p4309
tp4310
Rp4311
sVreturn
p4312
g2
(g6
S'\x9a\x05\x00\x00'
p4313
tp4314
Rp4315
sVtalking
p4316
g2
(g6
S'\xa3\x06\x00\x00'
p4317
tp4318
Rp4319
sVray
p4320
g2
(g6
S'g\x05\x00\x00'
p4321
tp4322
Rp4323
sVsnow
p4324
g2
(g6
S'.\x06\x00\x00'
p4325
tp4326
Rp4327
sVluxury
p4328
g2
(g6
S'\x17\x04\x00\x00'
p4329
tp4330
Rp4331
sVinnovate
p4332
g2
(g6
S'z\x03\x00\x00'
p4333
tp4334
Rp4335
sVenterprise
p4336
g2
(g6
S'[\x02\x00\x00'
p4337
tp4338
Rp4339
sVdesktops
p4340
g2
(g6
S'\xf4\x01\x00\x00'
p4341
tp4342
Rp4343
sVinspire
p4344
g2
(g6
S'\x81\x03\x00\x00'
p4345
tp4346
Rp4347
sVcolors
p4348
g2
(g6
S'o\x01\x00\x00'
p4349
tp4350
Rp4351
sVradio
p4352
g2
(g6
S'`\x05\x00\x00'
p4353
tp4354
Rp4355
sVsolutions
p4356
g2
(g6
S'6\x06\x00\x00'
p4357
tp4358
Rp4359
sVearth
p4360
g2
(g6
S'4\x02\x00\x00'
p4361
tp4362
Rp4363
sVannounce
p4364
g2
(g6
S'l\x00\x00\x00'
p4365
tp4366
Rp4367
sVpersonality
p4368
g2
(g6
S'\xe9\x04\x00\x00'
p4369
tp4370
Rp4371
sVwatch
p4372
g2
(g6
S'F\x07\x00\x00'
p4373
tp4374
Rp4375
sVdc
p4376
g2
(g6
S'\xd5\x01\x00\x00'
p4377
tp4378
Rp4379
sVamazon
p4380
g2
(g6
S'`\x00\x00\x00'
p4381
tp4382
Rp4383
sVhaunted
p4384
g2
(g6
S'\x1b\x03\x00\x00'
p4385
tp4386
Rp4387
sVdr
p4388
g2
(g6
S'!\x02\x00\x00'
p4389
tp4390
Rp4391
sVfabrics
p4392
g2
(g6
S'\x84\x02\x00\x00'
p4393
tp4394
Rp4395
sVcountries
p4396
g2
(g6
S'\xa3\x01\x00\x00'
p4397
tp4398
Rp4399
sVanalytics
p4400
g2
(g6
S'e\x00\x00\x00'
p4401
tp4402
Rp4403
sVjerseys
p4404
g2
(g6
S'\xa9\x03\x00\x00'
p4405
tp4406
Rp4407
sVaway
p4408
g2
(g6
S'\x9b\x00\x00\x00'
p4409
tp4410
Rp4411
sV365
p4412
g2
(g6
S'$\x00\x00\x00'
p4413
tp4414
Rp4415
sVapproach
p4416
g2
(g6
S'y\x00\x00\x00'
p4417
tp4418
Rp4419
sV360
p4420
g2
(g6
S'#\x00\x00\x00'
p4421
tp4422
Rp4423
sVterms
p4424
g2
(g6
S'\xb9\x06\x00\x00'
p4425
tp4426
Rp4427
sVwear
p4428
g2
(g6
S'J\x07\x00\x00'
p4429
tp4430
Rp4431
sVnews
p4432
g2
(g6
S'\x8c\x04\x00\x00'
p4433
tp4434
Rp4435
sVpackages
p4436
g2
(g6
S'\xbd\x04\x00\x00'
p4437
tp4438
Rp4439
sVkitchen
p4440
g2
(g6
S'\xc8\x03\x00\x00'
p4441
tp4442
Rp4443
sVprotect
p4444
g2
(g6
S'J\x05\x00\x00'
p4445
tp4446
Rp4447
sVbloggers
p4448
g2
(g6
S'\xc5\x00\x00\x00'
p4449
tp4450
Rp4451
sVrecruiter
p4452
g2
(g6
S'{\x05\x00\x00'
p4453
tp4454
Rp4455
sVtracks
p4456
g2
(g6
S'\xe4\x06\x00\x00'
p4457
tp4458
Rp4459
sVgames
p4460
g2
(g6
S'\xd6\x02\x00\x00'
p4461
tp4462
Rp4463
sVphotographer
p4464
g2
(g6
S'\xf0\x04\x00\x00'
p4465
tp4466
Rp4467
sVbinge
p4468
g2
(g6
S'\xbd\x00\x00\x00'
p4469
tp4470
Rp4471
sVfamilies
p4472
g2
(g6
S'\x89\x02\x00\x00'
p4473
tp4474
Rp4475
sVsearch
p4476
g2
(g6
S'\xdc\x05\x00\x00'
p4477
tp4478
Rp4479
sVenterprises
p4480
g2
(g6
S'\\\x02\x00\x00'
p4481
tp4482
Rp4483
sVcatch
p4484
g2
(g6
S' \x01\x00\x00'
p4485
tp4486
Rp4487
sVrefreshes
p4488
g2
(g6
S'\x83\x05\x00\x00'
p4489
tp4490
Rp4491
sVsave
p4492
g2
(g6
S'\xcc\x05\x00\x00'
p4493
tp4494
Rp4495
sVlaunches
p4496
g2
(g6
S'\xdc\x03\x00\x00'
p4497
tp4498
Rp4499
sVdells
p4500
g2
(g6
S'\xe7\x01\x00\x00'
p4501
tp4502
Rp4503
sVair
p4504
g2
(g6
S'T\x00\x00\x00'
p4505
tp4506
Rp4507
sVteachers
p4508
g2
(g6
S'\xab\x06\x00\x00'
p4509
tp4510
Rp4511
sVvoice
p4512
g2
(g6
S'1\x07\x00\x00'
p4513
tp4514
Rp4515
sVaccessories
p4516
g2
(g6
S'8\x00\x00\x00'
p4517
tp4518
Rp4519
sVplates
p4520
g2
(g6
S'\x05\x05\x00\x00'
p4521
tp4522
Rp4523
sVsocial
p4524
g2
(g6
S'0\x06\x00\x00'
p4525
tp4526
Rp4527
sVhand
p4528
g2
(g6
S'\x11\x03\x00\x00'
p4529
tp4530
Rp4531
sVcycle
p4532
g2
(g6
S'\xc6\x01\x00\x00'
p4533
tp4534
Rp4535
sVseasonal
p4536
g2
(g6
S'\xdf\x05\x00\x00'
p4537
tp4538
Rp4539
sVphoto
p4540
g2
(g6
S'\xef\x04\x00\x00'
p4541
tp4542
Rp4543
sVlaptop
p4544
g2
(g6
S'\xd4\x03\x00\x00'
p4545
tp4546
Rp4547
sVthanks
p4548
g2
(g6
S'\xbd\x06\x00\x00'
p4549
tp4550
Rp4551
sVsmoothies
p4552
g2
(g6
S'(\x06\x00\x00'
p4553
tp4554
Rp4555
sVadding
p4556
g2
(g6
S'E\x00\x00\x00'
p4557
tp4558
Rp4559
sVmix
p4560
g2
(g6
S'T\x04\x00\x00'
p4561
tp4562
Rp4563
sVgave
p4564
g2
(g6
S'\xdc\x02\x00\x00'
p4565
tp4566
Rp4567
sVbreaks
p4568
g2
(g6
S'\xdf\x00\x00\x00'
p4569
tp4570
Rp4571
sV59
p4572
g2
(g6
S'*\x00\x00\x00'
p4573
tp4574
Rp4575
sVgift
p4576
g2
(g6
S'\xe5\x02\x00\x00'
p4577
tp4578
Rp4579
sV50
p4580
g2
(g6
S'(\x00\x00\x00'
p4581
tp4582
Rp4583
sVofficer
p4584
g2
(g6
S'\x9f\x04\x00\x00'
p4585
tp4586
Rp4587
sVnight
p4588
g2
(g6
S'\x8f\x04\x00\x00'
p4589
tp4590
Rp4591
sVsecurity
p4592
g2
(g6
S'\xe6\x05\x00\x00'
p4593
tp4594
Rp4595
sVhonored
p4596
g2
(g6
S'D\x03\x00\x00'
p4597
tp4598
Rp4599
sVcybersecurity
p4600
g2
(g6
S'\xc5\x01\x00\x00'
p4601
tp4602
Rp4603
sVjennifer
p4604
g2
(g6
S'\xa8\x03\x00\x00'
p4605
tp4606
Rp4607
sVdonald
p4608
g2
(g6
S'\x15\x02\x00\x00'
p4609
tp4610
Rp4611
sVelection
p4612
g2
(g6
S'D\x02\x00\x00'
p4613
tp4614
Rp4615
sVpurple
p4616
g2
(g6
S'Q\x05\x00\x00'
p4617
tp4618
Rp4619
sVadorable
p4620
g2
(g6
S'J\x00\x00\x00'
p4621
tp4622
Rp4623
sVchristmas
p4624
g2
(g6
S'H\x01\x00\x00'
p4625
tp4626
Rp4627
sVcord
p4628
g2
(g6
S'\x9e\x01\x00\x00'
p4629
tp4630
Rp4631
sVpeek
p4632
g2
(g6
S'\xde\x04\x00\x00'
p4633
tp4634
Rp4635
sVcorn
p4636
g2
(g6
S'\x9f\x01\x00\x00'
p4637
tp4638
Rp4639
sVcontest
p4640
g2
(g6
S'\x94\x01\x00\x00'
p4641
tp4642
Rp4643
sVpost
p4644
g2
(g6
S'\x1a\x05\x00\x00'
p4645
tp4646
Rp4647
sVattacks
p4648
g2
(g6
S'\x8c\x00\x00\x00'
p4649
tp4650
Rp4651
sVmonths
p4652
g2
(g6
S'f\x04\x00\x00'
p4653
tp4654
Rp4655
sVdinner
p4656
g2
(g6
S'\x04\x02\x00\x00'
p4657
tp4658
Rp4659
sVplus
p4660
g2
(g6
S'\r\x05\x00\x00'
p4661
tp4662
Rp4663
sVpresence
p4664
g2
(g6
S',\x05\x00\x00'
p4665
tp4666
Rp4667
sVtransform
p4668
g2
(g6
S'\xe8\x06\x00\x00'
p4669
tp4670
Rp4671
sVfight
p4672
g2
(g6
S'\xa0\x02\x00\x00'
p4673
tp4674
Rp4675
sVgif
p4676
g2
(g6
S'\xe4\x02\x00\x00'
p4677
tp4678
Rp4679
sVway
p4680
g2
(g6
S'H\x07\x00\x00'
p4681
tp4682
Rp4683
sVlowest
p4684
g2
(g6
S'\x12\x04\x00\x00'
p4685
tp4686
Rp4687
sVhead
p4688
g2
(g6
S'\x1f\x03\x00\x00'
p4689
tp4690
Rp4691
sVwireless
p4692
g2
(g6
S'k\x07\x00\x00'
p4693
tp4694
Rp4695
sVgarages
p4696
g2
(g6
S'\xd9\x02\x00\x00'
p4697
tp4698
Rp4699
sVhear
p4700
g2
(g6
S'$\x03\x00\x00'
p4701
tp4702
Rp4703
sVtrue
p4704
g2
(g6
S'\xfb\x06\x00\x00'
p4705
tp4706
Rp4707
sVisis
p4708
g2
(g6
S'\x9d\x03\x00\x00'
p4709
tp4710
Rp4711
sVstores
p4712
g2
(g6
S'g\x06\x00\x00'
p4713
tp4714
Rp4715
sVinclusive
p4716
g2
(g6
S'l\x03\x00\x00'
p4717
tp4718
Rp4719
sVtesla
p4720
g2
(g6
S'\xbb\x06\x00\x00'
p4721
tp4722
Rp4723
sVabstract
p4724
g2
(g6
S'6\x00\x00\x00'
p4725
tp4726
Rp4727
sVthanksgiving
p4728
g2
(g6
S'\xbe\x06\x00\x00'
p4729
tp4730
Rp4731
sVtrip
p4732
g2
(g6
S'\xf8\x06\x00\x00'
p4733
tp4734
Rp4735
sVphysical
p4736
g2
(g6
S'\xf3\x04\x00\x00'
p4737
tp4738
Rp4739
sVtix
p4740
g2
(g6
S'\xd5\x06\x00\x00'
p4741
tp4742
Rp4743
sVcommercials
p4744
g2
(g6
S'y\x01\x00\x00'
p4745
tp4746
Rp4747
sVhandmade
p4748
g2
(g6
S'\x13\x03\x00\x00'
p4749
tp4750
Rp4751
sVreality
p4752
g2
(g6
S'm\x05\x00\x00'
p4753
tp4754
Rp4755
sVtil
p4756
g2
(g6
S'\xce\x06\x00\x00'
p4757
tp4758
Rp4759
sVny
p4760
g2
(g6
S'\x95\x04\x00\x00'
p4761
tp4762
Rp4763
sVsetting
p4764
g2
(g6
S'\xf8\x05\x00\x00'
p4765
tp4766
Rp4767
sVscored
p4768
g2
(g6
S'\xda\x05\x00\x00'
p4769
tp4770
Rp4771
sVpicture
p4772
g2
(g6
S'\xf9\x04\x00\x00'
p4773
tp4774
Rp4775
sVfootball
p4776
g2
(g6
S'\xc1\x02\x00\x00'
p4777
tp4778
Rp4779
sVupdate
p4780
g2
(g6
S'\x10\x07\x00\x00'
p4781
tp4782
Rp4783
sVlanded
p4784
g2
(g6
S'\xd2\x03\x00\x00'
p4785
tp4786
Rp4787
sVlineup
p4788
g2
(g6
S'\xf8\x03\x00\x00'
p4789
tp4790
Rp4791
sVsongs
p4792
g2
(g6
S':\x06\x00\x00'
p4793
tp4794
Rp4795
sVcoach
p4796
g2
(g6
S'c\x01\x00\x00'
p4797
tp4798
Rp4799
sVdance
p4800
g2
(g6
S'\xc9\x01\x00\x00'
p4801
tp4802
Rp4803
sVglobal
p4804
g2
(g6
S'\xf0\x02\x00\x00'
p4805
tp4806
Rp4807
sVfocus
p4808
g2
(g6
S'\xb9\x02\x00\x00'
p4809
tp4810
Rp4811
sVqualms
p4812
g2
(g6
S'V\x05\x00\x00'
p4813
tp4814
Rp4815
sVcomments
p4816
g2
(g6
S'v\x01\x00\x00'
p4817
tp4818
Rp4819
sVrow
p4820
g2
(g6
S'\xb8\x05\x00\x00'
p4821
tp4822
Rp4823
sVcertainly
p4824
g2
(g6
S'+\x01\x00\x00'
p4825
tp4826
Rp4827
sVessentials
p4828
g2
(g6
S'b\x02\x00\x00'
p4829
tp4830
Rp4831
sVhonoring
p4832
g2
(g6
S'E\x03\x00\x00'
p4833
tp4834
Rp4835
sVadvantage
p4836
g2
(g6
S'L\x00\x00\x00'
p4837
tp4838
Rp4839
sVblast
p4840
g2
(g6
S'\xc4\x00\x00\x00'
p4841
tp4842
Rp4843
sVcool
p4844
g2
(g6
S'\x9b\x01\x00\x00'
p4845
tp4846
Rp4847
sVlevel
p4848
g2
(g6
S'\xee\x03\x00\x00'
p4849
tp4850
Rp4851
sVturns
p4852
g2
(g6
S'\x04\x07\x00\x00'
p4853
tp4854
Rp4855
sVposts
p4856
g2
(g6
S'\x1b\x05\x00\x00'
p4857
tp4858
Rp4859
sVquick
p4860
g2
(g6
S'Z\x05\x00\x00'
p4861
tp4862
Rp4863
sVguy
p4864
g2
(g6
S'\x0b\x03\x00\x00'
p4865
tp4866
Rp4867
sVrevolution
p4868
g2
(g6
S'\xa2\x05\x00\x00'
p4869
tp4870
Rp4871
sVsays
p4872
g2
(g6
S'\xd0\x05\x00\x00'
p4873
tp4874
Rp4875
sVtrend
p4876
g2
(g6
S'\xf3\x06\x00\x00'
p4877
tp4878
Rp4879
sVobsolete
p4880
g2
(g6
S'\x99\x04\x00\x00'
p4881
tp4882
Rp4883
sVcyber
p4884
g2
(g6
S'\xc4\x01\x00\x00'
p4885
tp4886
Rp4887
sVcost
p4888
g2
(g6
S'\xa0\x01\x00\x00'
p4889
tp4890
Rp4891
sVrecycle
p4892
g2
(g6
S'|\x05\x00\x00'
p4893
tp4894
Rp4895
sVdrinks
p4896
g2
(g6
S'&\x02\x00\x00'
p4897
tp4898
Rp4899
sVstands
p4900
g2
(g6
S'S\x06\x00\x00'
p4901
tp4902
Rp4903
sVshares
p4904
g2
(g6
S'\x02\x06\x00\x00'
p4905
tp4906
Rp4907
sVgoes
p4908
g2
(g6
S'\xf4\x02\x00\x00'
p4909
tp4910
Rp4911
sVshared
p4912
g2
(g6
S'\x01\x06\x00\x00'
p4913
tp4914
Rp4915
sVsupporting
p4916
g2
(g6
S'\x8d\x06\x00\x00'
p4917
tp4918
Rp4919
sVremotion
p4920
g2
(g6
S'\x8d\x05\x00\x00'
p4921
tp4922
Rp4923
sVdownloaded
p4924
g2
(g6
S'\x1f\x02\x00\x00'
p4925
tp4926
Rp4927
sVgroups
p4928
g2
(g6
S'\x04\x03\x00\x00'
p4929
tp4930
Rp4931
sVbased
p4932
g2
(g6
S'\xa6\x00\x00\x00'
p4933
tp4934
Rp4935
sVteacher
p4936
g2
(g6
S'\xaa\x06\x00\x00'
p4937
tp4938
Rp4939
sVchange
p4940
g2
(g6
S'/\x01\x00\x00'
p4941
tp4942
Rp4943
sVhealthy
p4944
g2
(g6
S'#\x03\x00\x00'
p4945
tp4946
Rp4947
sVproud
p4948
g2
(g6
S'K\x05\x00\x00'
p4949
tp4950
Rp4951
sVextra
p4952
g2
(g6
S'\x80\x02\x00\x00'
p4953
tp4954
Rp4955
sV1st
p4956
g2
(g6
S'\x11\x00\x00\x00'
p4957
tp4958
Rp4959
sVcrisis
p4960
g2
(g6
S'\xb3\x01\x00\x00'
p4961
tp4962
Rp4963
sVmarket
p4964
g2
(g6
S'.\x04\x00\x00'
p4965
tp4966
Rp4967
sVsports
p4968
g2
(g6
S'J\x06\x00\x00'
p4969
tp4970
Rp4971
sVlive
p4972
g2
(g6
S'\xfd\x03\x00\x00'
p4973
tp4974
Rp4975
sViphone
p4976
g2
(g6
S'\x9a\x03\x00\x00'
p4977
tp4978
Rp4979
sVaustralian
p4980
g2
(g6
S'\x90\x00\x00\x00'
p4981
tp4982
Rp4983
sVprep
p4984
g2
(g6
S'(\x05\x00\x00'
p4985
tp4986
Rp4987
sVtoday
p4988
g2
(g6
S'\xd6\x06\x00\x00'
p4989
tp4990
Rp4991
sVcontinue
p4992
g2
(g6
S'\x95\x01\x00\x00'
p4993
tp4994
Rp4995
sVclub
p4996
g2
(g6
S'a\x01\x00\x00'
p4997
tp4998
Rp4999
sVcommissioned
p5000
g2
(g6
S'z\x01\x00\x00'
p5001
tp5002
Rp5003
sVautumn
p5004
g2
(g6
S'\x94\x00\x00\x00'
p5005
tp5006
Rp5007
sVchions
p5008
g2
(g6
S'B\x01\x00\x00'
p5009
tp5010
Rp5011
sVgraphic
p5012
g2
(g6
S'\xff\x02\x00\x00'
p5013
tp5014
Rp5015
sVcatchphrase
p5016
g2
(g6
S'!\x01\x00\x00'
p5017
tp5018
Rp5019
sVcar
p5020
g2
(g6
S'\x10\x01\x00\x00'
p5021
tp5022
Rp5023
sVcat
p5024
g2
(g6
S'\x1f\x01\x00\x00'
p5025
tp5026
Rp5027
sVcam
p5028
g2
(g6
S'\x06\x01\x00\x00'
p5029
tp5030
Rp5031
sVheart
p5032
g2
(g6
S'&\x03\x00\x00'
p5033
tp5034
Rp5035
sVtrump
p5036
g2
(g6
S'\xfc\x06\x00\x00'
p5037
tp5038
Rp5039
sVdecember
p5040
g2
(g6
S'\xdc\x01\x00\x00'
p5041
tp5042
Rp5043
sVconcierge
p5044
g2
(g6
S'\x87\x01\x00\x00'
p5045
tp5046
Rp5047
sVheard
p5048
g2
(g6
S'%\x03\x00\x00'
p5049
tp5050
Rp5051
sVposing
p5052
g2
(g6
S'\x18\x05\x00\x00'
p5053
tp5054
Rp5055
sVdropped
p5056
g2
(g6
S'-\x02\x00\x00'
p5057
tp5058
Rp5059
sVchic
p5060
g2
(g6
S';\x01\x00\x00'
p5061
tp5062
Rp5063
sVclothing
p5064
g2
(g6
S'_\x01\x00\x00'
p5065
tp5066
Rp5067
sVproductive
p5068
g2
(g6
S'C\x05\x00\x00'
p5069
tp5070
Rp5071
sVpocus
p5072
g2
(g6
S'\x10\x05\x00\x00'
p5073
tp5074
Rp5075
sVeconomy
p5076
g2
(g6
S'<\x02\x00\x00'
p5077
tp5078
Rp5079
sVlucky
p5080
g2
(g6
S'\x14\x04\x00\x00'
p5081
tp5082
Rp5083
sVlevi
p5084
g2
(g6
S'\xef\x03\x00\x00'
p5085
tp5086
Rp5087
sVbirthday
p5088
g2
(g6
S'\xbf\x00\x00\x00'
p5089
tp5090
Rp5091
sVclassroom
p5092
g2
(g6
S'R\x01\x00\x00'
p5093
tp5094
Rp5095
sVremember
p5096
g2
(g6
S'\x8a\x05\x00\x00'
p5097
tp5098
Rp5099
sVexclusive
p5100
g2
(g6
S'p\x02\x00\x00'
p5101
tp5102
Rp5103
sVwords
p5104
g2
(g6
S'q\x07\x00\x00'
p5105
tp5106
Rp5107
sVplayful
p5108
g2
(g6
S'\n\x05\x00\x00'
p5109
tp5110
Rp5111
sVbrain
p5112
g2
(g6
S'\xd9\x00\x00\x00'
p5113
tp5114
Rp5115
sVtablets
p5116
g2
(g6
S'\x9d\x06\x00\x00'
p5117
tp5118
Rp5119
sVinspo
p5120
g2
(g6
S'\x84\x03\x00\x00'
p5121
tp5122
Rp5123
sVcold
p5124
g2
(g6
S'g\x01\x00\x00'
p5125
tp5126
Rp5127
sVbirds
p5128
g2
(g6
S'\xbe\x00\x00\x00'
p5129
tp5130
Rp5131
sVbroadcasts
p5132
g2
(g6
S'\xe8\x00\x00\x00'
p5133
tp5134
Rp5135
sVoffers
p5136
g2
(g6
S'\x9d\x04\x00\x00'
p5137
tp5138
Rp5139
sVdrop
p5140
g2
(g6
S',\x02\x00\x00'
p5141
tp5142
Rp5143
sVem
p5144
g2
(g6
S'F\x02\x00\x00'
p5145
tp5146
Rp5147
sVwebinar
p5148
g2
(g6
S'P\x07\x00\x00'
p5149
tp5150
Rp5151
sVyear
p5152
g2
(g6
S'\x81\x07\x00\x00'
p5153
tp5154
Rp5155
sVet
p5156
g2
(g6
S'd\x02\x00\x00'
p5157
tp5158
Rp5159
sVhappen
p5160
g2
(g6
S'\x16\x03\x00\x00'
p5161
tp5162
Rp5163
sVteams
p5164
g2
(g6
S'\xaf\x06\x00\x00'
p5165
tp5166
Rp5167
sValbum
p5168
g2
(g6
S'Z\x00\x00\x00'
p5169
tp5170
Rp5171
sVopened
p5172
g2
(g6
S'\xa9\x04\x00\x00'
p5173
tp5174
Rp5175
sVspace
p5176
g2
(g6
S'=\x06\x00\x00'
p5177
tp5178
Rp5179
sVlooking
p5180
g2
(g6
S'\x06\x04\x00\x00'
p5181
tp5182
Rp5183
sVopener
p5184
g2
(g6
S'\xaa\x04\x00\x00'
p5185
tp5186
Rp5187
sVshows
p5188
g2
(g6
S'\x10\x06\x00\x00'
p5189
tp5190
Rp5191
sVcare
p5192
g2
(g6
S'\x14\x01\x00\x00'
p5193
tp5194
Rp5195
sVbritish
p5196
g2
(g6
S'\xe6\x00\x00\x00'
p5197
tp5198
Rp5199
sVturn
p5200
g2
(g6
S'\x02\x07\x00\x00'
p5201
tp5202
Rp5203
sVplace
p5204
g2
(g6
S'\xfe\x04\x00\x00'
p5205
tp5206
Rp5207
sVsurviving
p5208
g2
(g6
S'\x93\x06\x00\x00'
p5209
tp5210
Rp5211
sVtomorrow
p5212
g2
(g6
S'\xd8\x06\x00\x00'
p5213
tp5214
Rp5215
sVmillions
p5216
g2
(g6
S'N\x04\x00\x00'
p5217
tp5218
Rp5219
sVremotely
p5220
g2
(g6
S'\x8c\x05\x00\x00'
p5221
tp5222
Rp5223
sVcarson
p5224
g2
(g6
S'\x19\x01\x00\x00'
p5225
tp5226
Rp5227
sVreturns
p5228
g2
(g6
S'\x9c\x05\x00\x00'
p5229
tp5230
Rp5231
sVterrifying
p5232
g2
(g6
S'\xba\x06\x00\x00'
p5233
tp5234
Rp5235
sVwhite
p5236
g2
(g6
S']\x07\x00\x00'
p5237
tp5238
Rp5239
sVnational
p5240
g2
(g6
S'\x7f\x04\x00\x00'
p5241
tp5242
Rp5243
sVfriend
p5244
g2
(g6
S'\xcd\x02\x00\x00'
p5245
tp5246
Rp5247
sVgives
p5248
g2
(g6
S'\xea\x02\x00\x00'
p5249
tp5250
Rp5251
sVseason
p5252
g2
(g6
S'\xde\x05\x00\x00'
p5253
tp5254
Rp5255
sValan
p5256
g2
(g6
S'Y\x00\x00\x00'
p5257
tp5258
Rp5259
sVreleased
p5260
g2
(g6
S'\x89\x05\x00\x00'
p5261
tp5262
Rp5263
sVcopy
p5264
g2
(g6
S'\x9d\x01\x00\x00'
p5265
tp5266
Rp5267
sVtelevision
p5268
g2
(g6
S'\xb4\x06\x00\x00'
p5269
tp5270
Rp5271
sVwar
p5272
g2
(g6
S'C\x07\x00\x00'
p5273
tp5274
Rp5275
sVlegacy
p5276
g2
(g6
S'\xe8\x03\x00\x00'
p5277
tp5278
Rp5279
sVcards
p5280
g2
(g6
S'\x13\x01\x00\x00'
p5281
tp5282
Rp5283
sVmulligan
p5284
g2
(g6
S's\x04\x00\x00'
p5285
tp5286
Rp5287
sVpre
p5288
g2
(g6
S'#\x05\x00\x00'
p5289
tp5290
Rp5291
sVant
p5292
g2
(g6
S'r\x00\x00\x00'
p5293
tp5294
Rp5295
sVanytime
p5296
g2
(g6
S't\x00\x00\x00'
p5297
tp5298
Rp5299
sVbreakfast
p5300
g2
(g6
S'\xdc\x00\x00\x00'
p5301
tp5302
Rp5303
sVform
p5304
g2
(g6
S'\xc5\x02\x00\x00'
p5305
tp5306
Rp5307
sVveteran
p5308
g2
(g6
S'$\x07\x00\x00'
p5309
tp5310
Rp5311
sVonline
p5312
g2
(g6
S'\xa6\x04\x00\x00'
p5313
tp5314
Rp5315
sVsure
p5316
g2
(g6
S'\x8e\x06\x00\x00'
p5317
tp5318
Rp5319
sVmultiple
p5320
g2
(g6
S'v\x04\x00\x00'
p5321
tp5322
Rp5323
sVprice
p5324
g2
(g6
S'4\x05\x00\x00'
p5325
tp5326
Rp5327
sVdonation
p5328
g2
(g6
S'\x17\x02\x00\x00'
p5329
tp5330
Rp5331
sVamerica
p5332
g2
(g6
S'a\x00\x00\x00'
p5333
tp5334
Rp5335
sVforever
p5336
g2
(g6
S'\xc3\x02\x00\x00'
p5337
tp5338
Rp5339
sVhungry
p5340
g2
(g6
S'W\x03\x00\x00'
p5341
tp5342
Rp5343
sVprofessional
p5344
g2
(g6
S'F\x05\x00\x00'
p5345
tp5346
Rp5347
sVshipping
p5348
g2
(g6
S'\n\x06\x00\x00'
p5349
tp5350
Rp5351
sVteamed
p5352
g2
(g6
S'\xad\x06\x00\x00'
p5353
tp5354
Rp5355
sVground
p5356
g2
(g6
S'\x02\x03\x00\x00'
p5357
tp5358
Rp5359
sVupgrade
p5360
g2
(g6
S'\x11\x07\x00\x00'
p5361
tp5362
Rp5363
sVpumpkin
p5364
g2
(g6
S'N\x05\x00\x00'
p5365
tp5366
Rp5367
sVcelebrate
p5368
g2
(g6
S'%\x01\x00\x00'
p5369
tp5370
Rp5371
sVreveal
p5372
g2
(g6
S'\x9d\x05\x00\x00'
p5373
tp5374
Rp5375
sVreveals
p5376
g2
(g6
S'\x9f\x05\x00\x00'
p5377
tp5378
Rp5379
sVconcert
p5380
g2
(g6
S'\x86\x01\x00\x00'
p5381
tp5382
Rp5383
sVcollege
p5384
g2
(g6
S'k\x01\x00\x00'
p5385
tp5386
Rp5387
sVreview
p5388
g2
(g6
S'\xa0\x05\x00\x00'
p5389
tp5390
Rp5391
sVoutside
p5392
g2
(g6
S'\xb6\x04\x00\x00'
p5393
tp5394
Rp5395
sVstyle
p5396
g2
(g6
S'~\x06\x00\x00'
p5397
tp5398
Rp5399
sVcities
p5400
g2
(g6
S'K\x01\x00\x00'
p5401
tp5402
Rp5403
sVcome
p5404
g2
(g6
S'r\x01\x00\x00'
p5405
tp5406
Rp5407
sVjavier
p5408
g2
(g6
S'\xa5\x03\x00\x00'
p5409
tp5410
Rp5411
sVamex
p5412
g2
(g6
S'd\x00\x00\x00'
p5413
tp5414
Rp5415
sVmonk
p5416
g2
(g6
S'c\x04\x00\x00'
p5417
tp5418
Rp5419
sVwheels
p5420
g2
(g6
S'[\x07\x00\x00'
p5421
tp5422
Rp5423
sVcomes
p5424
g2
(g6
S't\x01\x00\x00'
p5425
tp5426
Rp5427
sVduty
p5428
g2
(g6
S'/\x02\x00\x00'
p5429
tp5430
Rp5431
sVkey
p5432
g2
(g6
S'\xbd\x03\x00\x00'
p5433
tp5434
Rp5435
sV150
p5436
g2
(g6
S'\x0b\x00\x00\x00'
p5437
tp5438
Rp5439
sVcolor
p5440
g2
(g6
S'm\x01\x00\x00'
p5441
tp5442
Rp5443
sVjeans
p5444
g2
(g6
S'\xa6\x03\x00\x00'
p5445
tp5446
Rp5447
sVpop
p5448
g2
(g6
S'\x14\x05\x00\x00'
p5449
tp5450
Rp5451
sV60
p5452
g2
(g6
S',\x00\x00\x00'
p5453
tp5454
Rp5455
sVlearning
p5456
g2
(g6
S'\xe5\x03\x00\x00'
p5457
tp5458
Rp5459
sVturkey
p5460
g2
(g6
S'\x01\x07\x00\x00'
p5461
tp5462
Rp5463
sVlate
p5464
g2
(g6
S'\xd7\x03\x00\x00'
p5465
tp5466
Rp5467
sVcarey
p5468
g2
(g6
S'\x17\x01\x00\x00'
p5469
tp5470
Rp5471
sVfeaturing
p5472
g2
(g6
S'\x95\x02\x00\x00'
p5473
tp5474
Rp5475
sVconfessions
p5476
g2
(g6
S'\x88\x01\x00\x00'
p5477
tp5478
Rp5479
sVengine
p5480
g2
(g6
S'T\x02\x00\x00'
p5481
tp5482
Rp5483
sV6s
p5484
g2
(g6
S'-\x00\x00\x00'
p5485
tp5486
Rp5487
sVspirit
p5488
g2
(g6
S'F\x06\x00\x00'
p5489
tp5490
Rp5491
sVcase
p5492
g2
(g6
S'\x1b\x01\x00\x00'
p5493
tp5494
Rp5495
sVeir
p5496
g2
(g6
S'C\x02\x00\x00'
p5497
tp5498
Rp5499
sVdeveloping
p5500
g2
(g6
S'\xf9\x01\x00\x00'
p5501
tp5502
Rp5503
sVcash
p5504
g2
(g6
S'\x1c\x01\x00\x00'
p5505
tp5506
Rp5507
sVcast
p5508
g2
(g6
S'\x1d\x01\x00\x00'
p5509
tp5510
Rp5511
sVcoolest
p5512
g2
(g6
S'\x9c\x01\x00\x00'
p5513
tp5514
Rp5515
sVkenya
p5516
g2
(g6
S'\xbc\x03\x00\x00'
p5517
tp5518
Rp5519
sVship
p5520
g2
(g6
S'\t\x06\x00\x00'
p5521
tp5522
Rp5523
sVauthor
p5524
g2
(g6
S'\x91\x00\x00\x00'
p5525
tp5526
Rp5527
sVmedia
p5528
g2
(g6
S':\x04\x00\x00'
p5529
tp5530
Rp5531
sVcheck
p5532
g2
(g6
S'7\x01\x00\x00'
p5533
tp5534
Rp5535
sVshifts
p5536
g2
(g6
S'\x06\x06\x00\x00'
p5537
tp5538
Rp5539
sVevents
p5540
g2
(g6
S'j\x02\x00\x00'
p5541
tp5542
Rp5543
sVweek
p5544
g2
(g6
S'R\x07\x00\x00'
p5545
tp5546
Rp5547
sVfinish
p5548
g2
(g6
S'\xae\x02\x00\x00'
p5549
tp5550
Rp5551
sVclosest
p5552
g2
(g6
S'\\\x01\x00\x00'
p5553
tp5554
Rp5555
sVdrives
p5556
g2
(g6
S')\x02\x00\x00'
p5557
tp5558
Rp5559
sVdirector
p5560
g2
(g6
S'\x05\x02\x00\x00'
p5561
tp5562
Rp5563
sVinvestigates
p5564
g2
(g6
S'\x93\x03\x00\x00'
p5565
tp5566
Rp5567
sVfavorites
p5568
g2
(g6
S'\x92\x02\x00\x00'
p5569
tp5570
Rp5571
sVchanging
p5572
g2
(g6
S'1\x01\x00\x00'
p5573
tp5574
Rp5575
sVanticipated
p5576
g2
(g6
S's\x00\x00\x00'
p5577
tp5578
Rp5579
sVcartoon
p5580
g2
(g6
S'\x1a\x01\x00\x00'
p5581
tp5582
Rp5583
sVmagical
p5584
g2
(g6
S'\x1d\x04\x00\x00'
p5585
tp5586
Rp5587
sVmodel
p5588
g2
(g6
S'W\x04\x00\x00'
p5589
tp5590
Rp5591
sVresearchers
p5592
g2
(g6
S'\x8f\x05\x00\x00'
p5593
tp5594
Rp5595
sVcharged
p5596
g2
(g6
S'4\x01\x00\x00'
p5597
tp5598
Rp5599
sVcaptures
p5600
g2
(g6
S'\x0f\x01\x00\x00'
p5601
tp5602
Rp5603
sVtouch
p5604
g2
(g6
S'\xdc\x06\x00\x00'
p5605
tp5606
Rp5607
sVspeed
p5608
g2
(g6
S'A\x06\x00\x00'
p5609
tp5610
Rp5611
sVdeath
p5612
g2
(g6
S'\xd9\x01\x00\x00'
p5613
tp5614
Rp5615
sVthinking
p5616
g2
(g6
S'\xc3\x06\x00\x00'
p5617
tp5618
Rp5619
sViphones
p5620
g2
(g6
S'\x9b\x03\x00\x00'
p5621
tp5622
Rp5623
sVdesktop
p5624
g2
(g6
S'\xf3\x01\x00\x00'
p5625
tp5626
Rp5627
sVlets
p5628
g2
(g6
S'\xeb\x03\x00\x00'
p5629
tp5630
Rp5631
sVtreatment
p5632
g2
(g6
S'\xf2\x06\x00\x00'
p5633
tp5634
Rp5635
sVstyles
p5636
g2
(g6
S'\x7f\x06\x00\x00'
p5637
tp5638
Rp5639
sVread
p5640
g2
(g6
S'i\x05\x00\x00'
p5641
tp5642
Rp5643
sVdigital
p5644
g2
(g6
S'\x02\x02\x00\x00'
p5645
tp5646
Rp5647
sVgonna
p5648
g2
(g6
S'\xf8\x02\x00\x00'
p5649
tp5650
Rp5651
sVearly
p5652
g2
(g6
S'3\x02\x00\x00'
p5653
tp5654
Rp5655
sVusing
p5656
g2
(g6
S'\x1a\x07\x00\x00'
p5657
tp5658
Rp5659
sVbenefit
p5660
g2
(g6
S'\xb3\x00\x00\x00'
p5661
tp5662
Rp5663
sVrecalls
p5664
g2
(g6
S'q\x05\x00\x00'
p5665
tp5666
Rp5667
sVtower
p5668
g2
(g6
S'\xdf\x06\x00\x00'
p5669
tp5670
Rp5671
sVhacks
p5672
g2
(g6
S'\x0f\x03\x00\x00'
p5673
tp5674
Rp5675
sVviral
p5676
g2
(g6
S'+\x07\x00\x00'
p5677
tp5678
Rp5679
sVlegal
p5680
g2
(g6
S'\xe9\x03\x00\x00'
p5681
tp5682
Rp5683
sVmoon
p5684
g2
(g6
S'g\x04\x00\x00'
p5685
tp5686
Rp5687
sVprovider
p5688
g2
(g6
S'L\x05\x00\x00'
p5689
tp5690
Rp5691
sVwelcome
p5692
g2
(g6
S'U\x07\x00\x00'
p5693
tp5694
Rp5695
sVbusiness
p5696
g2
(g6
S'\xf8\x00\x00\x00'
p5697
tp5698
Rp5699
sVsixth
p5700
g2
(g6
S'\x1a\x06\x00\x00'
p5701
tp5702
Rp5703
sVthrow
p5704
g2
(g6
S'\xc9\x06\x00\x00'
p5705
tp5706
Rp5707
sVbeaches
p5708
g2
(g6
S'\xa9\x00\x00\x00'
p5709
tp5710
Rp5711
sVdatacenter
p5712
g2
(g6
S'\xd1\x01\x00\x00'
p5713
tp5714
Rp5715
sVoh
p5716
g2
(g6
S'\xa2\x04\x00\x00'
p5717
tp5718
Rp5719
sVjeep
p5720
g2
(g6
S'\xa7\x03\x00\x00'
p5721
tp5722
Rp5723
sVmuslims
p5724
g2
(g6
S'z\x04\x00\x00'
p5725
tp5726
Rp5727
sVkarat
p5728
g2
(g6
S'\xb7\x03\x00\x00'
p5729
tp5730
Rp5731
sVstand
p5732
g2
(g6
S'R\x06\x00\x00'
p5733
tp5734
Rp5735
sVos
p5736
g2
(g6
S'\xb3\x04\x00\x00'
p5737
tp5738
Rp5739
sVsnapchat
p5740
g2
(g6
S'+\x06\x00\x00'
p5741
tp5742
Rp5743
sVrising
p5744
g2
(g6
S'\xad\x05\x00\x00'
p5745
tp5746
Rp5747
sVresponds
p5748
g2
(g6
S'\x96\x05\x00\x00'
p5749
tp5750
Rp5751
sVprepare
p5752
g2
(g6
S')\x05\x00\x00'
p5753
tp5754
Rp5755
sVarea
p5756
g2
(g6
S'|\x00\x00\x00'
p5757
tp5758
Rp5759
sVaren
p5760
g2
(g6
S'}\x00\x00\x00'
p5761
tp5762
Rp5763
sVlos
p5764
g2
(g6
S'\t\x04\x00\x00'
p5765
tp5766
Rp5767
sVvalley
p5768
g2
(g6
S'\x1e\x07\x00\x00'
p5769
tp5770
Rp5771
sVbillion
p5772
g2
(g6
S'\xbb\x00\x00\x00'
p5773
tp5774
Rp5775
sVtrying
p5776
g2
(g6
S'\xff\x06\x00\x00'
p5777
tp5778
Rp5779
sVbucket
p5780
g2
(g6
S'\xeb\x00\x00\x00'
p5781
tp5782
Rp5783
sVtaste
p5784
g2
(g6
S'\xa6\x06\x00\x00'
p5785
tp5786
Rp5787
sVsales
p5788
g2
(g6
S'\xc5\x05\x00\x00'
p5789
tp5790
Rp5791
sVmoves
p5792
g2
(g6
S'm\x04\x00\x00'
p5793
tp5794
Rp5795
sVblues
p5796
g2
(g6
S'\xca\x00\x00\x00'
p5797
tp5798
Rp5799
sVdeserve
p5800
g2
(g6
S'\xee\x01\x00\x00'
p5801
tp5802
Rp5803
sVstorage
p5804
g2
(g6
S'e\x06\x00\x00'
p5805
tp5806
Rp5807
sVtrack
p5808
g2
(g6
S'\xe3\x06\x00\x00'
p5809
tp5810
Rp5811
sVincluded
p5812
g2
(g6
S'j\x03\x00\x00'
p5813
tp5814
Rp5815
sVbuilding
p5816
g2
(g6
S'\xf0\x00\x00\x00'
p5817
tp5818
Rp5819
sVcalls
p5820
g2
(g6
S'\x05\x01\x00\x00'
p5821
tp5822
Rp5823
sVwife
p5824
g2
(g6
S'`\x07\x00\x00'
p5825
tp5826
Rp5827
sVmonth
p5828
g2
(g6
S'e\x04\x00\x00'
p5829
tp5830
Rp5831
sVconcept
p5832
g2
(g6
S'\x85\x01\x00\x00'
p5833
tp5834
Rp5835
sVfollow
p5836
g2
(g6
S'\xbc\x02\x00\x00'
p5837
tp5838
Rp5839
sVcarpet
p5840
g2
(g6
S'\x18\x01\x00\x00'
p5841
tp5842
Rp5843
sVicons
p5844
g2
(g6
S'[\x03\x00\x00'
p5845
tp5846
Rp5847
sVprogram
p5848
g2
(g6
S'G\x05\x00\x00'
p5849
tp5850
Rp5851
sVsafety
p5852
g2
(g6
S'\xc2\x05\x00\x00'
p5853
tp5854
Rp5855
sVwoman
p5856
g2
(g6
S'n\x07\x00\x00'
p5857
tp5858
Rp5859
sVsong
p5860
g2
(g6
S'9\x06\x00\x00'
p5861
tp5862
Rp5863
sVfar
p5864
g2
(g6
S'\x8e\x02\x00\x00'
p5865
tp5866
Rp5867
sVhorror
p5868
g2
(g6
S'I\x03\x00\x00'
p5869
tp5870
Rp5871
sVworst
p5872
g2
(g6
S'z\x07\x00\x00'
p5873
tp5874
Rp5875
sVdecide
p5876
g2
(g6
S'\xdd\x01\x00\x00'
p5877
tp5878
Rp5879
sVlist
p5880
g2
(g6
S'\xfa\x03\x00\x00'
p5881
tp5882
Rp5883
sVstudy
p5884
g2
(g6
S'{\x06\x00\x00'
p5885
tp5886
Rp5887
sVcookies
p5888
g2
(g6
S'\x99\x01\x00\x00'
p5889
tp5890
Rp5891
sVinstagram
p5892
g2
(g6
S'\x85\x03\x00\x00'
p5893
tp5894
Rp5895
sVtea
p5896
g2
(g6
S'\xa8\x06\x00\x00'
p5897
tp5898
Rp5899
sVstreets
p5900
g2
(g6
S'n\x06\x00\x00'
p5901
tp5902
Rp5903
sVted
p5904
g2
(g6
S'\xb2\x06\x00\x00'
p5905
tp5906
Rp5907
sVtee
p5908
g2
(g6
S'\xb3\x06\x00\x00'
p5909
tp5910
Rp5911
sVcasual
p5912
g2
(g6
S'\x1e\x01\x00\x00'
p5913
tp5914
Rp5915
sVinvesting
p5916
g2
(g6
S'\x94\x03\x00\x00'
p5917
tp5918
Rp5919
sVsun
p5920
g2
(g6
S'\x86\x06\x00\x00'
p5921
tp5922
Rp5923
sVlawrence
p5924
g2
(g6
S'\xdd\x03\x00\x00'
p5925
tp5926
Rp5927
sVanniversary
p5928
g2
(g6
S'k\x00\x00\x00'
p5929
tp5930
Rp5931
sVversion
p5932
g2
(g6
S'"\x07\x00\x00'
p5933
tp5934
Rp5935
sVlearned
p5936
g2
(g6
S'\xe4\x03\x00\x00'
p5937
tp5938
Rp5939
sVanswers
p5940
g2
(g6
S'q\x00\x00\x00'
p5941
tp5942
Rp5943
sVstrong
p5944
g2
(g6
S's\x06\x00\x00'
p5945
tp5946
Rp5947
sVnaval
p5948
g2
(g6
S'\x81\x04\x00\x00'
p5949
tp5950
Rp5951
sVahead
p5952
g2
(g6
S'R\x00\x00\x00'
p5953
tp5954
Rp5955
sVinspired
p5956
g2
(g6
S'\x82\x03\x00\x00'
p5957
tp5958
Rp5959
sVgear
p5960
g2
(g6
S'\xdd\x02\x00\x00'
p5961
tp5962
Rp5963
sVreal
p5964
g2
(g6
S'l\x05\x00\x00'
p5965
tp5966
Rp5967
sVfamily
p5968
g2
(g6
S'\x8a\x02\x00\x00'
p5969
tp5970
Rp5971
sVtoys
p5972
g2
(g6
S'\xe2\x06\x00\x00'
p5973
tp5974
Rp5975
sVtakes
p5976
g2
(g6
S'\x9f\x06\x00\x00'
p5977
tp5978
Rp5979
sVmarkets
p5980
g2
(g6
S'/\x04\x00\x00'
p5981
tp5982
Rp5983
sVknows
p5984
g2
(g6
S'\xce\x03\x00\x00'
p5985
tp5986
Rp5987
sVdefinition
p5988
g2
(g6
S'\xe2\x01\x00\x00'
p5989
tp5990
Rp5991
sVglam
p5992
g2
(g6
S'\xed\x02\x00\x00'
p5993
tp5994
Rp5995
sVknown
p5996
g2
(g6
S'\xcd\x03\x00\x00'
p5997
tp5998
Rp5999
sVglad
p6000
g2
(g6
S'\xec\x02\x00\x00'
p6001
tp6002
Rp6003
sVhelped
p6004
g2
(g6
S')\x03\x00\x00'
p6005
tp6006
Rp6007
sVvr
p6008
g2
(g6
S'6\x07\x00\x00'
p6009
tp6010
Rp6011
sVflorals
p6012
g2
(g6
S'\xb7\x02\x00\x00'
p6013
tp6014
Rp6015
sVhistory
p6016
g2
(g6
S'8\x03\x00\x00'
p6017
tp6018
Rp6019
sVbicultural
p6020
g2
(g6
S'\xb7\x00\x00\x00'
p6021
tp6022
Rp6023
sVembarrassing
p6024
g2
(g6
S'H\x02\x00\x00'
p6025
tp6026
Rp6027
sVpartner
p6028
g2
(g6
S'\xcc\x04\x00\x00'
p6029
tp6030
Rp6031
sVairplane
p6032
g2
(g6
S'W\x00\x00\x00'
p6033
tp6034
Rp6035
sVbreaking
p6036
g2
(g6
S'\xde\x00\x00\x00'
p6037
tp6038
Rp6039
sVexplains
p6040
g2
(g6
S'}\x02\x00\x00'
p6041
tp6042
Rp6043
sVsandwich
p6044
g2
(g6
S'\xc9\x05\x00\x00'
p6045
tp6046
Rp6047
sVsneak
p6048
g2
(g6
S'-\x06\x00\x00'
p6049
tp6050
Rp6051
sVtries
p6052
g2
(g6
S'\xf7\x06\x00\x00'
p6053
tp6054
Rp6055
sVadventure
p6056
g2
(g6
S'M\x00\x00\x00'
p6057
tp6058
Rp6059
sVchoice
p6060
g2
(g6
S'D\x01\x00\x00'
p6061
tp6062
Rp6063
sVshort
p6064
g2
(g6
S'\x0f\x06\x00\x00'
p6065
tp6066
Rp6067
sVbugs
p6068
g2
(g6
S'\xee\x00\x00\x00'
p6069
tp6070
Rp6071
sVshade
p6072
g2
(g6
S'\xfb\x05\x00\x00'
p6073
tp6074
Rp6075
sVdream
p6076
g2
(g6
S'"\x02\x00\x00'
p6077
tp6078
Rp6079
sVseptember
p6080
g2
(g6
S'\xf1\x05\x00\x00'
p6081
tp6082
Rp6083
sVsoon
p6084
g2
(g6
S';\x06\x00\x00'
p6085
tp6086
Rp6087
sVhighlighted
p6088
g2
(g6
S'4\x03\x00\x00'
p6089
tp6090
Rp6091
sVactually
p6092
g2
(g6
S'@\x00\x00\x00'
p6093
tp6094
Rp6095
sVresort
p6096
g2
(g6
S'\x94\x05\x00\x00'
p6097
tp6098
Rp6099
sVsystems
p6100
g2
(g6
S'\x9a\x06\x00\x00'
p6101
tp6102
Rp6103
sVsomebody
p6104
g2
(g6
S'7\x06\x00\x00'
p6105
tp6106
Rp6107
sVfood
p6108
g2
(g6
S'\xbe\x02\x00\x00'
p6109
tp6110
Rp6111
sVhackathon
p6112
g2
(g6
S'\x0e\x03\x00\x00'
p6113
tp6114
Rp6115
sVcommunities
p6116
g2
(g6
S'}\x01\x00\x00'
p6117
tp6118
Rp6119
sVrefresh
p6120
g2
(g6
S'\x82\x05\x00\x00'
p6121
tp6122
Rp6123
sVtrailer
p6124
g2
(g6
S'\xe6\x06\x00\x00'
p6125
tp6126
Rp6127
sVweight
p6128
g2
(g6
S'T\x07\x00\x00'
p6129
tp6130
Rp6131
sVgeneration
p6132
g2
(g6
S'\xe0\x02\x00\x00'
p6133
tp6134
Rp6135
sVpablo
p6136
g2
(g6
S'\xbc\x04\x00\x00'
p6137
tp6138
Rp6139
sVevent
p6140
g2
(g6
S'i\x02\x00\x00'
p6141
tp6142
Rp6143
sVbullied
p6144
g2
(g6
S'\xf3\x00\x00\x00'
p6145
tp6146
Rp6147
sV4pm
p6148
g2
(g6
S"'\x00\x00\x00"
p6149
tp6150
Rp6151
sVsoaps
p6152
g2
(g6
S'/\x06\x00\x00'
p6153
tp6154
Rp6155
sVfiber
p6156
g2
(g6
S'\x9e\x02\x00\x00'
p6157
tp6158
Rp6159
sVfriday
p6160
g2
(g6
S'\xcc\x02\x00\x00'
p6161
tp6162
Rp6163
sVhouses
p6164
g2
(g6
S'R\x03\x00\x00'
p6165
tp6166
Rp6167
sVreason
p6168
g2
(g6
S'o\x05\x00\x00'
p6169
tp6170
Rp6171
sVcookie
p6172
g2
(g6
S'\x98\x01\x00\x00'
p6173
tp6174
Rp6175
sVask
p6176
g2
(g6
S'\x84\x00\x00\x00'
p6177
tp6178
Rp6179
sVteach
p6180
g2
(g6
S'\xa9\x06\x00\x00'
p6181
tp6182
Rp6183
sVpup
p6184
g2
(g6
S'O\x05\x00\x00'
p6185
tp6186
Rp6187
sVamerican
p6188
g2
(g6
S'b\x00\x00\x00'
p6189
tp6190
Rp6191
sVthreat
p6192
g2
(g6
S'\xc7\x06\x00\x00'
p6193
tp6194
Rp6195
sVsyria
p6196
g2
(g6
S'\x99\x06\x00\x00'
p6197
tp6198
Rp6199
sVmr
p6200
g2
(g6
S'p\x04\x00\x00'
p6201
tp6202
Rp6203
sVfeel
p6204
g2
(g6
S'\x97\x02\x00\x00'
p6205
tp6206
Rp6207
sVdominating
p6208
g2
(g6
S'\x13\x02\x00\x00'
p6209
tp6210
Rp6211
sVcolombia
p6212
g2
(g6
S'l\x01\x00\x00'
p6213
tp6214
Rp6215
sVeffortless
p6216
g2
(g6
S'A\x02\x00\x00'
p6217
tp6218
Rp6219
sVtraveler
p6220
g2
(g6
S'\xed\x06\x00\x00'
p6221
tp6222
Rp6223
sVmiss
p6224
g2
(g6
S'Q\x04\x00\x00'
p6225
tp6226
Rp6227
sVstory
p6228
g2
(g6
S'i\x06\x00\x00'
p6229
tp6230
Rp6231
sVleading
p6232
g2
(g6
S'\xe1\x03\x00\x00'
p6233
tp6234
Rp6235
sVstore
p6236
g2
(g6
S'f\x06\x00\x00'
p6237
tp6238
Rp6239
sVselling
p6240
g2
(g6
S'\xee\x05\x00\x00'
p6241
tp6242
Rp6243
sVhotel
p6244
g2
(g6
S'M\x03\x00\x00'
p6245
tp6246
Rp6247
sValbums
p6248
g2
(g6
S'[\x00\x00\x00'
p6249
tp6250
Rp6251
sVking
p6252
g2
(g6
S'\xc6\x03\x00\x00'
p6253
tp6254
Rp6255
sVfinancing
p6256
g2
(g6
S'\xa9\x02\x00\x00'
p6257
tp6258
Rp6259
sVdouble
p6260
g2
(g6
S'\x1c\x02\x00\x00'
p6261
tp6262
Rp6263
sVneeds
p6264
g2
(g6
S'\x85\x04\x00\x00'
p6265
tp6266
Rp6267
sValike
p6268
g2
(g6
S'^\x00\x00\x00'
p6269
tp6270
Rp6271
sVphilly
p6272
g2
(g6
S'\xec\x04\x00\x00'
p6273
tp6274
Rp6275
sVvulnerable
p6276
g2
(g6
S'8\x07\x00\x00'
p6277
tp6278
Rp6279
sVfinding
p6280
g2
(g6
S'\xaa\x02\x00\x00'
p6281
tp6282
Rp6283
sVadded
p6284
g2
(g6
S'C\x00\x00\x00'
p6285
tp6286
Rp6287
sVquote
p6288
g2
(g6
S']\x05\x00\x00'
p6289
tp6290
Rp6291
sVsets
p6292
g2
(g6
S'\xf7\x05\x00\x00'
p6293
tp6294
Rp6295
sVmacy
p6296
g2
(g6
S'\x1a\x04\x00\x00'
p6297
tp6298
Rp6299
sV75
p6300
g2
(g6
S'1\x00\x00\x00'
p6301
tp6302
Rp6303
sV70
p6304
g2
(g6
S'.\x00\x00\x00'
p6305
tp6306
Rp6307
sVgilt
p6308
g2
(g6
S'\xe7\x02\x00\x00'
p6309
tp6310
Rp6311
sVapproved
p6312
g2
(g6
S'z\x00\x00\x00'
p6313
tp6314
Rp6315
sVwindows
p6316
g2
(g6
S'd\x07\x00\x00'
p6317
tp6318
Rp6319
sVsnapping
p6320
g2
(g6
S',\x06\x00\x00'
p6321
tp6322
Rp6323
sVclean
p6324
g2
(g6
S'S\x01\x00\x00'
p6325
tp6326
Rp6327
sVhyper
p6328
g2
(g6
S'Y\x03\x00\x00'
p6329
tp6330
Rp6331
sVipads
p6332
g2
(g6
S'\x99\x03\x00\x00'
p6333
tp6334
Rp6335
sVetsy
p6336
g2
(g6
S'e\x02\x00\x00'
p6337
tp6338
Rp6339
sVnorthern
p6340
g2
(g6
S'\x92\x04\x00\x00'
p6341
tp6342
Rp6343
sVjustice
p6344
g2
(g6
S'\xb5\x03\x00\x00'
p6345
tp6346
Rp6347
sVsharing
p6348
g2
(g6
S'\x03\x06\x00\x00'
p6349
tp6350
Rp6351
sVflights
p6352
g2
(g6
S'\xb5\x02\x00\x00'
p6353
tp6354
Rp6355
sVpretty
p6356
g2
(g6
S'1\x05\x00\x00'
p6357
tp6358
Rp6359
sVcircle
p6360
g2
(g6
S'J\x01\x00\x00'
p6361
tp6362
Rp6363
sVhit
p6364
g2
(g6
S'9\x03\x00\x00'
p6365
tp6366
Rp6367
sVkind
p6368
g2
(g6
S'\xc5\x03\x00\x00'
p6369
tp6370
Rp6371
sVfamous
p6372
g2
(g6
S'\x8b\x02\x00\x00'
p6373
tp6374
Rp6375
sVfeels
p6376
g2
(g6
S'\x99\x02\x00\x00'
p6377
tp6378
Rp6379
sVwithdrawal
p6380
g2
(g6
S'm\x07\x00\x00'
p6381
tp6382
Rp6383
sVsustainable
p6384
g2
(g6
S'\x94\x06\x00\x00'
p6385
tp6386
Rp6387
sVart
p6388
g2
(g6
S'\x81\x00\x00\x00'
p6389
tp6390
Rp6391
sVintelligence
p6392
g2
(g6
S'\x8a\x03\x00\x00'
p6393
tp6394
Rp6395
sVculture
p6396
g2
(g6
S'\xb9\x01\x00\x00'
p6397
tp6398
Rp6399
sVengineers
p6400
g2
(g6
S'U\x02\x00\x00'
p6401
tp6402
Rp6403
sVoyelowo
p6404
g2
(g6
S'\xbb\x04\x00\x00'
p6405
tp6406
Rp6407
sVcrisp
p6408
g2
(g6
S'\xb4\x01\x00\x00'
p6409
tp6410
Rp6411
sVwon
p6412
g2
(g6
S'p\x07\x00\x00'
p6413
tp6414
Rp6415
sVuse
p6416
g2
(g6
S'\x16\x07\x00\x00'
p6417
tp6418
Rp6419
sVprobably
p6420
g2
(g6
S'?\x05\x00\x00'
p6421
tp6422
Rp6423
sVlatin
p6424
g2
(g6
S'\xd9\x03\x00\x00'
p6425
tp6426
Rp6427
sVsold
p6428
g2
(g6
S'4\x06\x00\x00'
p6429
tp6430
Rp6431
sVattention
p6432
g2
(g6
S'\x8d\x00\x00\x00'
p6433
tp6434
Rp6435
sVleague
p6436
g2
(g6
S'\xe2\x03\x00\x00'
p6437
tp6438
Rp6439
sVcurated
p6440
g2
(g6
S'\xbb\x01\x00\x00'
p6441
tp6442
Rp6443
sVsecrets
p6444
g2
(g6
S'\xe4\x05\x00\x00'
p6445
tp6446
Rp6447
sVbuzz
p6448
g2
(g6
S'\xfd\x00\x00\x00'
p6449
tp6450
Rp6451
sVfinds
p6452
g2
(g6
S'\xab\x02\x00\x00'
p6453
tp6454
Rp6455
sVspree
p6456
g2
(g6
S'L\x06\x00\x00'
p6457
tp6458
Rp6459
sVbulger
p6460
g2
(g6
S'\xf2\x00\x00\x00'
p6461
tp6462
Rp6463
sVreasons
p6464
g2
(g6
S'p\x05\x00\x00'
p6465
tp6466
Rp6467
sVsweet
p6468
g2
(g6
S'\x97\x06\x00\x00'
p6469
tp6470
Rp6471
sVmission
p6472
g2
(g6
S'R\x04\x00\x00'
p6473
tp6474
Rp6475
sVprimetime
p6476
g2
(g6
S'7\x05\x00\x00'
p6477
tp6478
Rp6479
sVdescribed
p6480
g2
(g6
S'\xed\x01\x00\x00'
p6481
tp6482
Rp6483
sVpolitical
p6484
g2
(g6
S'\x13\x05\x00\x00'
p6485
tp6486
Rp6487
sVstrategy
p6488
g2
(g6
S'j\x06\x00\x00'
p6489
tp6490
Rp6491
sVpc
p6492
g2
(g6
S'\xda\x04\x00\x00'
p6493
tp6494
Rp6495
sVpm
p6496
g2
(g6
S'\x0f\x05\x00\x00'
p6497
tp6498
Rp6499
sVflight
p6500
g2
(g6
S'\xb4\x02\x00\x00'
p6501
tp6502
Rp6503
sVprecision
p6504
g2
(g6
S'$\x05\x00\x00'
p6505
tp6506
Rp6507
sVlives
p6508
g2
(g6
S'\xfe\x03\x00\x00'
p6509
tp6510
Rp6511
sVdemand
p6512
g2
(g6
S'\xe9\x01\x00\x00'
p6513
tp6514
Rp6515
sVloon
p6516
g2
(g6
S'\x08\x04\x00\x00'
p6517
tp6518
Rp6519
sVlook
p6520
g2
(g6
S'\x05\x04\x00\x00'
p6521
tp6522
Rp6523
sVfrozen
p6524
g2
(g6
S'\xd1\x02\x00\x00'
p6525
tp6526
Rp6527
sVballoons
p6528
g2
(g6
S'\xa3\x00\x00\x00'
p6529
tp6530
Rp6531
sVsmart
p6532
g2
(g6
S'$\x06\x00\x00'
p6533
tp6534
Rp6535
sVguide
p6536
g2
(g6
S'\t\x03\x00\x00'
p6537
tp6538
Rp6539
sVkidizoom
p6540
g2
(g6
S'\xc2\x03\x00\x00'
p6541
tp6542
Rp6543
sVready
p6544
g2
(g6
S'k\x05\x00\x00'
p6545
tp6546
Rp6547
sVrid
p6548
g2
(g6
S'\xa7\x05\x00\x00'
p6549
tp6550
Rp6551
sVgrand
p6552
g2
(g6
S'\xfe\x02\x00\x00'
p6553
tp6554
Rp6555
sVhigher
p6556
g2
(g6
S'3\x03\x00\x00'
p6557
tp6558
Rp6559
sVused
p6560
g2
(g6
S'\x17\x07\x00\x00'
p6561
tp6562
Rp6563
sVbonus
p6564
g2
(g6
S'\xd1\x00\x00\x00'
p6565
tp6566
Rp6567
sVholidays
p6568
g2
(g6
S'?\x03\x00\x00'
p6569
tp6570
Rp6571
sV000
p6572
g2
(g6
S'\x00\x00\x00\x00'
p6573
tp6574
Rp6575
sVuses
p6576
g2
(g6
S'\x19\x07\x00\x00'
p6577
tp6578
Rp6579
sVlower
p6580
g2
(g6
S'\x11\x04\x00\x00'
p6581
tp6582
Rp6583
sVedge
p6584
g2
(g6
S'=\x02\x00\x00'
p6585
tp6586
Rp6587
sVknow
p6588
g2
(g6
S'\xcb\x03\x00\x00'
p6589
tp6590
Rp6591
sVquestions
p6592
g2
(g6
S'Y\x05\x00\x00'
p6593
tp6594
Rp6595
sVtablet
p6596
g2
(g6
S'\x9c\x06\x00\x00'
p6597
tp6598
Rp6599
sVtransformation
p6600
g2
(g6
S'\xe9\x06\x00\x00'
p6601
tp6602
Rp6603
sVcustomers
p6604
g2
(g6
S'\xbf\x01\x00\x00'
p6605
tp6606
Rp6607
sVmarch
p6608
g2
(g6
S'-\x04\x00\x00'
p6609
tp6610
Rp6611
sVgame
p6612
g2
(g6
S'\xd5\x02\x00\x00'
p6613
tp6614
Rp6615
sV76c
p6616
g2
(g6
S'2\x00\x00\x00'
p6617
tp6618
Rp6619
sVshaped
p6620
g2
(g6
S'\xfe\x05\x00\x00'
p6621
tp6622
Rp6623
sVshapes
p6624
g2
(g6
S'\xff\x05\x00\x00'
p6625
tp6626
Rp6627
sVsafest
p6628
g2
(g6
S'\xc1\x05\x00\x00'
p6629
tp6630
Rp6631
sVpopular
p6632
g2
(g6
S'\x15\x05\x00\x00'
p6633
tp6634
Rp6635
sVessential
p6636
g2
(g6
S'a\x02\x00\x00'
p6637
tp6638
Rp6639
sVparade
p6640
g2
(g6
S'\xc5\x04\x00\x00'
p6641
tp6642
Rp6643
sVarrived
p6644
g2
(g6
S'\x7f\x00\x00\x00'
p6645
tp6646
Rp6647
sVstreaming
p6648
g2
(g6
S'l\x06\x00\x00'
p6649
tp6650
Rp6651
sVtrends
p6652
g2
(g6
S'\xf4\x06\x00\x00'
p6653
tp6654
Rp6655
sVeconomic
p6656
g2
(g6
S';\x02\x00\x00'
p6657
tp6658
Rp6659
sVluxe
p6660
g2
(g6
S'\x16\x04\x00\x00'
p6661
tp6662
Rp6663
sVinnovation
p6664
g2
(g6
S'{\x03\x00\x00'
p6665
tp6666
Rp6667
sVrun
p6668
g2
(g6
S'\xbb\x05\x00\x00'
p6669
tp6670
Rp6671
sVstep
p6672
g2
(g6
S'a\x06\x00\x00'
p6673
tp6674
Rp6675
sVshine
p6676
g2
(g6
S'\x07\x06\x00\x00'
p6677
tp6678
Rp6679
sVhandbags
p6680
g2
(g6
S'\x12\x03\x00\x00'
p6681
tp6682
Rp6683
sVentrepreneurs
p6684
g2
(g6
S'^\x02\x00\x00'
p6685
tp6686
Rp6687
sV73
p6688
g2
(g6
S'0\x00\x00\x00'
p6689
tp6690
Rp6691
sVcomplimentary
p6692
g2
(g6
S'\x82\x01\x00\x00'
p6693
tp6694
Rp6695
sVseeing
p6696
g2
(g6
S'\xe8\x05\x00\x00'
p6697
tp6698
Rp6699
sVservices
p6700
g2
(g6
S'\xf5\x05\x00\x00'
p6701
tp6702
Rp6703
sVcomputer
p6704
g2
(g6
S'\x83\x01\x00\x00'
p6705
tp6706
Rp6707
sVquestion
p6708
g2
(g6
S'X\x05\x00\x00'
p6709
tp6710
Rp6711
sVstatistica
p6712
g2
(g6
S'^\x06\x00\x00'
p6713
tp6714
Rp6715
sVheritage
p6716
g2
(g6
S'.\x03\x00\x00'
p6717
tp6718
Rp6719
sVxps
p6720
g2
(g6
S'\x7f\x07\x00\x00'
p6721
tp6722
Rp6723
sVmountains
p6724
g2
(g6
S'j\x04\x00\x00'
p6725
tp6726
Rp6727
sVmobile
p6728
g2
(g6
S'U\x04\x00\x00'
p6729
tp6730
Rp6731
sVboards
p6732
g2
(g6
S'\xcb\x00\x00\x00'
p6733
tp6734
Rp6735
sVclear
p6736
g2
(g6
S'T\x01\x00\x00'
p6737
tp6738
Rp6739
sVdoesn
p6740
g2
(g6
S'\x10\x02\x00\x00'
p6741
tp6742
Rp6743
sVgecko
p6744
g2
(g6
S'\xde\x02\x00\x00'
p6745
tp6746
Rp6747
sVancestors
p6748
g2
(g6
S'f\x00\x00\x00'
p6749
tp6750
Rp6751
sVpeace
p6752
g2
(g6
S'\xdc\x04\x00\x00'
p6753
tp6754
Rp6755
sVdepartment
p6756
g2
(g6
S'\xeb\x01\x00\x00'
p6757
tp6758
Rp6759
sVnice
p6760
g2
(g6
S'\x8e\x04\x00\x00'
p6761
tp6762
Rp6763
sVusers
p6764
g2
(g6
S'\x18\x07\x00\x00'
p6765
tp6766
Rp6767
sVhelping
p6768
g2
(g6
S'*\x03\x00\x00'
p6769
tp6770
Rp6771
sVyoutube
p6772
g2
(g6
S'\x8b\x07\x00\x00'
p6773
tp6774
Rp6775
sVdepth
p6776
g2
(g6
S'\xec\x01\x00\x00'
p6777
tp6778
Rp6779
sVbeers
p6780
g2
(g6
S'\xaf\x00\x00\x00'
p6781
tp6782
Rp6783
sVavoid
p6784
g2
(g6
S'\x98\x00\x00\x00'
p6785
tp6786
Rp6787
sVdvr
p6788
g2
(g6
S'0\x02\x00\x00'
p6789
tp6790
Rp6791
sVdesserts
p6792
g2
(g6
S'\xf5\x01\x00\x00'
p6793
tp6794
Rp6795
sVhhttgs
p6796
g2
(g6
S'1\x03\x00\x00'
p6797
tp6798
Rp6799
sVgm
p6800
g2
(g6
S'\xf3\x02\x00\x00'
p6801
tp6802
Rp6803
sVkate
p6804
g2
(g6
S'\xb8\x03\x00\x00'
p6805
tp6806
Rp6807
sVissues
p6808
g2
(g6
S'\x9f\x03\x00\x00'
p6809
tp6810
Rp6811
sVfriendly
p6812
g2
(g6
S'\xce\x02\x00\x00'
p6813
tp6814
Rp6815
sVfacebook
p6816
g2
(g6
S'\x86\x02\x00\x00'
p6817
tp6818
Rp6819
sVtelling
p6820
g2
(g6
S'\xb6\x06\x00\x00'
p6821
tp6822
Rp6823
sVdrinking
p6824
g2
(g6
S'%\x02\x00\x00'
p6825
tp6826
Rp6827
sVgender
p6828
g2
(g6
S'\xdf\x02\x00\x00'
p6829
tp6830
Rp6831
sVryan
p6832
g2
(g6
S'\xbe\x05\x00\x00'
p6833
tp6834
Rp6835
sVdeals
p6836
g2
(g6
S'\xd7\x01\x00\x00'
p6837
tp6838
Rp6839
sVbooth
p6840
g2
(g6
S'\xd4\x00\x00\x00'
p6841
tp6842
Rp6843
sVpicked
p6844
g2
(g6
S'\xf6\x04\x00\x00'
p6845
tp6846
Rp6847
sVdownload
p6848
g2
(g6
S'\x1e\x02\x00\x00'
p6849
tp6850
Rp6851
sVclick
p6852
g2
(g6
S'V\x01\x00\x00'
p6853
tp6854
Rp6855
sVc9010
p6856
g2
(g6
S'\xfe\x00\x00\x00'
p6857
tp6858
Rp6859
sVwaiting
p6860
g2
(g6
S';\x07\x00\x00'
p6861
tp6862
Rp6863
sVcozy
p6864
g2
(g6
S'\xa8\x01\x00\x00'
p6865
tp6866
Rp6867
sVcommercial
p6868
g2
(g6
S'x\x01\x00\x00'
p6869
tp6870
Rp6871
sVexplore
p6872
g2
(g6
S'~\x02\x00\x00'
p6873
tp6874
Rp6875
sVfocused
p6876
g2
(g6
S'\xba\x02\x00\x00'
p6877
tp6878
Rp6879
sVexpansion
p6880
g2
(g6
S'u\x02\x00\x00'
p6881
tp6882
Rp6883
sVsexy
p6884
g2
(g6
S'\xfa\x05\x00\x00'
p6885
tp6886
Rp6887
sVpresale
p6888
g2
(g6
S'+\x05\x00\x00'
p6889
tp6890
Rp6891
sVshades
p6892
g2
(g6
S'\xfc\x05\x00\x00'
p6893
tp6894
Rp6895
sVsuggests
p6896
g2
(g6
S'\x83\x06\x00\x00'
p6897
tp6898
Rp6899
sVproducts
p6900
g2
(g6
S'E\x05\x00\x00'
p6901
tp6902
Rp6903
sVwin
p6904
g2
(g6
S'b\x07\x00\x00'
p6905
tp6906
Rp6907
sVapp
p6908
g2
(g6
S'u\x00\x00\x00'
p6909
tp6910
Rp6911
sVapply
p6912
g2
(g6
S'x\x00\x00\x00'
p6913
tp6914
Rp6915
sVsinging
p6916
g2
(g6
S'\x16\x06\x00\x00'
p6917
tp6918
Rp6919
sVcloud
p6920
g2
(g6
S'`\x01\x00\x00'
p6921
tp6922
Rp6923
sVfed
p6924
g2
(g6
S'\x96\x02\x00\x00'
p6925
tp6926
Rp6927
sVstream
p6928
g2
(g6
S'k\x06\x00\x00'
p6929
tp6930
Rp6931
sVhudson
p6932
g2
(g6
S'T\x03\x00\x00'
p6933
tp6934
Rp6935
sVcamera
p6936
g2
(g6
S'\x07\x01\x00\x00'
p6937
tp6938
Rp6939
sVvehicle
p6940
g2
(g6
S' \x07\x00\x00'
p6941
tp6942
Rp6943
sVreflects
p6944
g2
(g6
S'\x81\x05\x00\x00'
p6945
tp6946
Rp6947
sVclever
p6948
g2
(g6
S'U\x01\x00\x00'
p6949
tp6950
Rp6951
sVstarted
p6952
g2
(g6
S'X\x06\x00\x00'
p6953
tp6954
Rp6955
sVwomen
p6956
g2
(g6
S'o\x07\x00\x00'
p6957
tp6958
Rp6959
sVride
p6960
g2
(g6
S'\xa8\x05\x00\x00'
p6961
tp6962
Rp6963
sVfreedom
p6964
g2
(g6
S'\xca\x02\x00\x00'
p6965
tp6966
Rp6967
sVmeet
p6968
g2
(g6
S';\x04\x00\x00'
p6969
tp6970
Rp6971
sVproof
p6972
g2
(g6
S'I\x05\x00\x00'
p6973
tp6974
Rp6975
sVcontrol
p6976
g2
(g6
S'\x96\x01\x00\x00'
p6977
tp6978
Rp6979
sVproviders
p6980
g2
(g6
S'M\x05\x00\x00'
p6981
tp6982
Rp6983
sVrecognized
p6984
g2
(g6
S'v\x05\x00\x00'
p6985
tp6986
Rp6987
sVinaugural
p6988
g2
(g6
S'i\x03\x00\x00'
p6989
tp6990
Rp6991
sVbrian
p6992
g2
(g6
S'\xe1\x00\x00\x00'
p6993
tp6994
Rp6995
sVlight
p6996
g2
(g6
S'\xf2\x03\x00\x00'
p6997
tp6998
Rp6999
sVcapsule
p7000
g2
(g6
S'\r\x01\x00\x00'
p7001
tp7002
Rp7003
sVscoop
p7004
g2
(g6
S'\xd9\x05\x00\x00'
p7005
tp7006
Rp7007
sVhealthcare
p7008
g2
(g6
S'"\x03\x00\x00'
p7009
tp7010
Rp7011
sVswimming
p7012
g2
(g6
S'\x98\x06\x00\x00'
p7013
tp7014
Rp7015
sVfastest
p7016
g2
(g6
S'\x90\x02\x00\x00'
p7017
tp7018
Rp7019
sVbeauties
p7020
g2
(g6
S'\xaa\x00\x00\x00'
p7021
tp7022
Rp7023
sVticket
p7024
g2
(g6
S'\xcb\x06\x00\x00'
p7025
tp7026
Rp7027
sVcruise
p7028
g2
(g6
S'\xb7\x01\x00\x00'
p7029
tp7030
Rp7031
sVchoose
p7032
g2
(g6
S'E\x01\x00\x00'
p7033
tp7034
Rp7035
sVcovered
p7036
g2
(g6
S'\xa6\x01\x00\x00'
p7037
tp7038
Rp7039
sVholiday
p7040
g2
(g6
S'>\x03\x00\x00'
p7041
tp7042
Rp7043
sVcrash
p7044
g2
(g6
S'\xaa\x01\x00\x00'
p7045
tp7046
Rp7047
sVauto
p7048
g2
(g6
S'\x92\x00\x00\x00'
p7049
tp7050
Rp7051
sVpractice
p7052
g2
(g6
S'!\x05\x00\x00'
p7053
tp7054
Rp7055
sVnyc
p7056
g2
(g6
S'\x96\x04\x00\x00'
p7057
tp7058
Rp7059
sVworlds
p7060
g2
(g6
S'y\x07\x00\x00'
p7061
tp7062
Rp7063
sVspeaks
p7064
g2
(g6
S'?\x06\x00\x00'
p7065
tp7066
Rp7067
sVuniversity
p7068
g2
(g6
S'\x0f\x07\x00\x00'
p7069
tp7070
Rp7071
sVnfl
p7072
g2
(g6
S'\x8d\x04\x00\x00'
p7073
tp7074
Rp7075
sVmode
p7076
g2
(g6
S'V\x04\x00\x00'
p7077
tp7078
Rp7079
sVbills
p7080
g2
(g6
S'\xbc\x00\x00\x00'
p7081
tp7082
Rp7083
sVstudios
p7084
g2
(g6
S'z\x06\x00\x00'
p7085
tp7086
Rp7087
sVglobe
p7088
g2
(g6
S'\xf1\x02\x00\x00'
p7089
tp7090
Rp7091
sV700
p7092
g2
(g6
S'/\x00\x00\x00'
p7093
tp7094
Rp7095
sV80
p7096
g2
(g6
S'3\x00\x00\x00'
p7097
tp7098
Rp7099
sVspecial
p7100
g2
(g6
S'@\x06\x00\x00'
p7101
tp7102
Rp7103
sVentertainment
p7104
g2
(g6
S']\x02\x00\x00'
p7105
tp7106
Rp7107
sVactivism
p7108
g2
(g6
S'>\x00\x00\x00'
p7109
tp7110
Rp7111
sVipod
p7112
g2
(g6
S'\x9c\x03\x00\x00'
p7113
tp7114
Rp7115
sVyork
p7116
g2
(g6
S'\x87\x07\x00\x00'
p7117
tp7118
Rp7119
sVchagne
p7120
g2
(g6
S',\x01\x00\x00'
p7121
tp7122
Rp7123
sVprincess
p7124
g2
(g6
S'8\x05\x00\x00'
p7125
tp7126
Rp7127
sVapplications
p7128
g2
(g6
S'w\x00\x00\x00'
p7129
tp7130
Rp7131
sVtimes
p7132
g2
(g6
S'\xd0\x06\x00\x00'
p7133
tp7134
Rp7135
sVpowerful
p7136
g2
(g6
S' \x05\x00\x00'
p7137
tp7138
Rp7139
sVquality
p7140
g2
(g6
S'U\x05\x00\x00'
p7141
tp7142
Rp7143
sVdestinations
p7144
g2
(g6
S'\xf6\x01\x00\x00'
p7145
tp7146
Rp7147
sVmanagement
p7148
g2
(g6
S"'\x04\x00\x00"
p7149
tp7150
Rp7151
sVrevealed
p7152
g2
(g6
S'\x9e\x05\x00\x00'
p7153
tp7154
Rp7155
sVperfectly
p7156
g2
(g6
S'\xe2\x04\x00\x00'
p7157
tp7158
Rp7159
sVfinal
p7160
g2
(g6
S'\xa5\x02\x00\x00'
p7161
tp7162
Rp7163
sVbieber
p7164
g2
(g6
S'\xb8\x00\x00\x00'
p7165
tp7166
Rp7167
sVjuly
p7168
g2
(g6
S'\xb3\x03\x00\x00'
p7169
tp7170
Rp7171
sVben
p7172
g2
(g6
S'\xb2\x00\x00\x00'
p7173
tp7174
Rp7175
sVconscious
p7176
g2
(g6
S'\x8f\x01\x00\x00'
p7177
tp7178
Rp7179
sVbed
p7180
g2
(g6
S'\xad\x00\x00\x00'
p7181
tp7182
Rp7183
sVneed
p7184
g2
(g6
S'\x84\x04\x00\x00'
p7185
tp7186
Rp7187
sVmedals
p7188
g2
(g6
S'9\x04\x00\x00'
p7189
tp7190
Rp7191
sVclash
p7192
g2
(g6
S'O\x01\x00\x00'
p7193
tp7194
Rp7195
sVcentre
p7196
g2
(g6
S')\x01\x00\x00'
p7197
tp7198
Rp7199
sVcollaboration
p7200
g2
(g6
S'i\x01\x00\x00'
p7201
tp7202
Rp7203
sVparenting
p7204
g2
(g6
S'\xc7\x04\x00\x00'
p7205
tp7206
Rp7207
sVconnected
p7208
g2
(g6
S'\x8c\x01\x00\x00'
p7209
tp7210
Rp7211
sVmansion
p7212
g2
(g6
S'*\x04\x00\x00'
p7213
tp7214
Rp7215
sVimpression
p7216
g2
(g6
S'f\x03\x00\x00'
p7217
tp7218
Rp7219
sVplanning
p7220
g2
(g6
S'\x02\x05\x00\x00'
p7221
tp7222
Rp7223
sVchicken
p7224
g2
(g6
S'<\x01\x00\x00'
p7225
tp7226
Rp7227
sVshoes
p7228
g2
(g6
S'\x0c\x06\x00\x00'
p7229
tp7230
Rp7231
sVpartners
p7232
g2
(g6
S'\xce\x04\x00\x00'
p7233
tp7234
Rp7235
sVmugs
p7236
g2
(g6
S'r\x04\x00\x00'
p7237
tp7238
Rp7239
sVwinner
p7240
g2
(g6
S'f\x07\x00\x00'
p7241
tp7242
Rp7243
sVcandidates
p7244
g2
(g6
S'\x0b\x01\x00\x00'
p7245
tp7246
Rp7247
sVemployee
p7248
g2
(g6
S'L\x02\x00\x00'
p7249
tp7250
Rp7251
sVlocal
p7252
g2
(g6
S'\x02\x04\x00\x00'
p7253
tp7254
Rp7255
sVlatinos
p7256
g2
(g6
S'\xda\x03\x00\x00'
p7257
tp7258
Rp7259
sVwatching
p7260
g2
(g6
S'G\x07\x00\x00'
p7261
tp7262
Rp7263
sVmidnight
p7264
g2
(g6
S'G\x04\x00\x00'
p7265
tp7266
Rp7267
sVdope
p7268
g2
(g6
S'\x1b\x02\x00\x00'
p7269
tp7270
Rp7271
sVones
p7272
g2
(g6
S'\xa5\x04\x00\x00'
p7273
tp7274
Rp7275
sVjoins
p7276
g2
(g6
S'\xb0\x03\x00\x00'
p7277
tp7278
Rp7279
sVevolution
p7280
g2
(g6
S'l\x02\x00\x00'
p7281
tp7282
Rp7283
sVplaces
p7284
g2
(g6
S'\xff\x04\x00\x00'
p7285
tp7286
Rp7287
sVqa
p7288
g2
(g6
S'T\x05\x00\x00'
p7289
tp7290
Rp7291
sVgrab
p7292
g2
(g6
S'\xfd\x02\x00\x00'
p7293
tp7294
Rp7295
sVview
p7296
g2
(g6
S'(\x07\x00\x00'
p7297
tp7298
Rp7299
sVspotted
p7300
g2
(g6
S'K\x06\x00\x00'
p7301
tp7302
Rp7303
sVavailable
p7304
g2
(g6
S'\x95\x00\x00\x00'
p7305
tp7306
Rp7307
sVcloser
p7308
g2
(g6
S'[\x01\x00\x00'
p7309
tp7310
Rp7311
sVcloset
p7312
g2
(g6
S']\x01\x00\x00'
p7313
tp7314
Rp7315
sVstate
p7316
g2
(g6
S'[\x06\x00\x00'
p7317
tp7318
Rp7319
sViot
p7320
g2
(g6
S'\x97\x03\x00\x00'
p7321
tp7322
Rp7323
sVimportance
p7324
g2
(g6
S'd\x03\x00\x00'
p7325
tp7326
Rp7327
sVjoy
p7328
g2
(g6
S'\xb2\x03\x00\x00'
p7329
tp7330
Rp7331
sVjob
p7332
g2
(g6
S'\xab\x03\x00\x00'
p7333
tp7334
Rp7335
sVjoe
p7336
g2
(g6
S'\xad\x03\x00\x00'
p7337
tp7338
Rp7339
sVthank
p7340
g2
(g6
S'\xbc\x06\x00\x00'
p7341
tp7342
Rp7343
sVhits
p7344
g2
(g6
S':\x03\x00\x00'
p7345
tp7346
Rp7347
sVpiece
p7348
g2
(g6
S'\xfa\x04\x00\x00'
p7349
tp7350
Rp7351
sVcareer
p7352
g2
(g6
S'\x15\x01\x00\x00'
p7353
tp7354
Rp7355
sVsmoothie
p7356
g2
(g6
S"'\x06\x00\x00"
p7357
tp7358
Rp7359
sVsucceed
p7360
g2
(g6
S'\x81\x06\x00\x00'
p7361
tp7362
Rp7363
sVexpand
p7364
g2
(g6
S't\x02\x00\x00'
p7365
tp7366
Rp7367
sVwalk
p7368
g2
(g6
S'=\x07\x00\x00'
p7369
tp7370
Rp7371
sVpreparedness
p7372
g2
(g6
S'*\x05\x00\x00'
p7373
tp7374
Rp7375
sVtable
p7376
g2
(g6
S'\x9b\x06\x00\x00'
p7377
tp7378
Rp7379
sVplatform
p7380
g2
(g6
S'\x06\x05\x00\x00'
p7381
tp7382
Rp7383
sVaddition
p7384
g2
(g6
S'F\x00\x00\x00'
p7385
tp7386
Rp7387
sVquiz
p7388
g2
(g6
S'\\\x05\x00\x00'
p7389
tp7390
Rp7391
sVtreat
p7392
g2
(g6
S'\xf1\x06\x00\x00'
p7393
tp7394
Rp7395
sVbbq
p7396
g2
(g6
S'\xa8\x00\x00\x00'
p7397
tp7398
Rp7399
sVtraveling
p7400
g2
(g6
S'\xef\x06\x00\x00'
p7401
tp7402
Rp7403
sVdiversity
p7404
g2
(g6
S'\x0c\x02\x00\x00'
p7405
tp7406
Rp7407
sVsmartphones
p7408
g2
(g6
S'&\x06\x00\x00'
p7409
tp7410
Rp7411
sVstunning
p7412
g2
(g6
S'}\x06\x00\x00'
p7413
tp7414
Rp7415
sVwild
p7416
g2
(g6
S'a\x07\x00\x00'
p7417
tp7418
Rp7419
sVlayer
p7420
g2
(g6
S'\xde\x03\x00\x00'
p7421
tp7422
Rp7423
sVsurface
p7424
g2
(g6
S'\x8f\x06\x00\x00'
p7425
tp7426
Rp7427
sVcapture
p7428
g2
(g6
S'\x0e\x01\x00\x00'
p7429
tp7430
Rp7431
sVhocus
p7432
g2
(g6
S';\x03\x00\x00'
p7433
tp7434
Rp7435
sVvintage
p7436
g2
(g6
S')\x07\x00\x00'
p7437
tp7438
Rp7439
sVmember
p7440
g2
(g6
S'=\x04\x00\x00'
p7441
tp7442
Rp7443
sVparts
p7444
g2
(g6
S'\xd0\x04\x00\x00'
p7445
tp7446
Rp7447
sVspeaker
p7448
g2
(g6
S'>\x06\x00\x00'
p7449
tp7450
Rp7451
sVlargest
p7452
g2
(g6
S'\xd6\x03\x00\x00'
p7453
tp7454
Rp7455
sVparty
p7456
g2
(g6
S'\xd1\x04\x00\x00'
p7457
tp7458
Rp7459
sVgets
p7460
g2
(g6
S'\xe1\x02\x00\x00'
p7461
tp7462
Rp7463
sVprivileged
p7464
g2
(g6
S';\x05\x00\x00'
p7465
tp7466
Rp7467
sVpremiere
p7468
g2
(g6
S'&\x05\x00\x00'
p7469
tp7470
Rp7471
sVcollab
p7472
g2
(g6
S'h\x01\x00\x00'
p7473
tp7474
Rp7475
sVautomation
p7476
g2
(g6
S'\x93\x00\x00\x00'
p7477
tp7478
Rp7479
sVstudent
p7480
g2
(g6
S'w\x06\x00\x00'
p7481
tp7482
Rp7483
sVfierce
p7484
g2
(g6
S'\x9f\x02\x00\x00'
p7485
tp7486
Rp7487
sVwhale
p7488
g2
(g6
S'Y\x07\x00\x00'
p7489
tp7490
Rp7491
sVrecords
p7492
g2
(g6
S'y\x05\x00\x00'
p7493
tp7494
Rp7495
sVincredible
p7496
g2
(g6
S'o\x03\x00\x00'
p7497
tp7498
Rp7499
sVboho
p7500
g2
(g6
S'\xce\x00\x00\x00'
p7501
tp7502
Rp7503
sVdrone
p7504
g2
(g6
S'+\x02\x00\x00'
p7505
tp7506
Rp7507
sVconquer
p7508
g2
(g6
S'\x8e\x01\x00\x00'
p7509
tp7510
Rp7511
sVtcs
p7512
g2
(g6
S'\xa7\x06\x00\x00'
p7513
tp7514
Rp7515
sVmistakes
p7516
g2
(g6
S'S\x04\x00\x00'
p7517
tp7518
Rp7519
sV40
p7520
g2
(g6
S'&\x00\x00\x00'
p7521
tp7522
Rp7523
sVconsole
p7524
g2
(g6
S'\x91\x01\x00\x00'
p7525
tp7526
Rp7527
sVdiscuss
p7528
g2
(g6
S'\x07\x02\x00\x00'
p7529
tp7530
Rp7531
sVlured
p7532
g2
(g6
S'\x15\x04\x00\x00'
p7533
tp7534
Rp7535
sVadoption
p7536
g2
(g6
S'I\x00\x00\x00'
p7537
tp7538
Rp7539
sVusage
p7540
g2
(g6
S'\x14\x07\x00\x00'
p7541
tp7542
Rp7543
sVkick
p7544
g2
(g6
S'\xbf\x03\x00\x00'
p7545
tp7546
Rp7547
sVimmediately
p7548
g2
(g6
S'b\x03\x00\x00'
p7549
tp7550
Rp7551
sVdoughnut
p7552
g2
(g6
S'\x1d\x02\x00\x00'
p7553
tp7554
Rp7555
sVloss
p7556
g2
(g6
S'\n\x04\x00\x00'
p7557
tp7558
Rp7559
sVlost
p7560
g2
(g6
S'\x0b\x04\x00\x00'
p7561
tp7562
Rp7563
sVring
p7564
g2
(g6
S'\xab\x05\x00\x00'
p7565
tp7566
Rp7567
sVsized
p7568
g2
(g6
S'\x1c\x06\x00\x00'
p7569
tp7570
Rp7571
sVdidn
p7572
g2
(g6
S'\xfe\x01\x00\x00'
p7573
tp7574
Rp7575
sVtwitter
p7576
g2
(g6
S'\x07\x07\x00\x00'
p7577
tp7578
Rp7579
sVplatforms
p7580
g2
(g6
S'\x07\x05\x00\x00'
p7581
tp7582
Rp7583
sVgrowth
p7584
g2
(g6
S'\x07\x03\x00\x00'
p7585
tp7586
Rp7587
sVshes
p7588
g2
(g6
S'\x05\x06\x00\x00'
p7589
tp7590
Rp7591
sVtrucker
p7592
g2
(g6
S'\xfa\x06\x00\x00'
p7593
tp7594
Rp7595
sVhome
p7596
g2
(g6
S'A\x03\x00\x00'
p7597
tp7598
Rp7599
sVemployment
p7600
g2
(g6
S'N\x02\x00\x00'
p7601
tp7602
Rp7603
sVsweepstakes
p7604
g2
(g6
S'\x96\x06\x00\x00'
p7605
tp7606
Rp7607
sVleader
p7608
g2
(g6
S'\xdf\x03\x00\x00'
p7609
tp7610
Rp7611
sVraise
p7612
g2
(g6
S'a\x05\x00\x00'
p7613
tp7614
Rp7615
sVrare
p7616
g2
(g6
S'd\x05\x00\x00'
p7617
tp7618
Rp7619
sVgetting
p7620
g2
(g6
S'\xe2\x02\x00\x00'
p7621
tp7622
Rp7623
sVperks
p7624
g2
(g6
S'\xe6\x04\x00\x00'
p7625
tp7626
Rp7627
sVtravelers
p7628
g2
(g6
S'\xee\x06\x00\x00'
p7629
tp7630
Rp7631
sVweather
p7632
g2
(g6
S'N\x07\x00\x00'
p7633
tp7634
Rp7635
sVartists
p7636
g2
(g6
S'\x83\x00\x00\x00'
p7637
tp7638
Rp7639
sVnetworking
p7640
g2
(g6
S'\x88\x04\x00\x00'
p7641
tp7642
Rp7643
sVapps
p7644
g2
(g6
S'{\x00\x00\x00'
p7645
tp7646
Rp7647
sVinner
p7648
g2
(g6
S'y\x03\x00\x00'
p7649
tp7650
Rp7651
sVnorth
p7652
g2
(g6
S'\x91\x04\x00\x00'
p7653
tp7654
Rp7655
sVgluten
p7656
g2
(g6
S'\xf2\x02\x00\x00'
p7657
tp7658
Rp7659
sVcherokee
p7660
g2
(g6
S':\x01\x00\x00'
p7661
tp7662
Rp7663
sVteaming
p7664
g2
(g6
S'\xae\x06\x00\x00'
p7665
tp7666
Rp7667
sVeat
p7668
g2
(g6
S'8\x02\x00\x00'
p7669
tp7670
Rp7671
sVhd
p7672
g2
(g6
S'\x1e\x03\x00\x00'
p7673
tp7674
Rp7675
sVsigned
p7676
g2
(g6
S'\x12\x06\x00\x00'
p7677
tp7678
Rp7679
sVrecord
p7680
g2
(g6
S'x\x05\x00\x00'
p7681
tp7682
Rp7683
sVstories
p7684
g2
(g6
S'h\x06\x00\x00'
p7685
tp7686
Rp7687
sVcake
p7688
g2
(g6
S'\x01\x01\x00\x00'
p7689
tp7690
Rp7691
sVperformed
p7692
g2
(g6
S'\xe4\x04\x00\x00'
p7693
tp7694
Rp7695
sVrumors
p7696
g2
(g6
S'\xba\x05\x00\x00'
p7697
tp7698
Rp7699
sVpercent
p7700
g2
(g6
S'\xe0\x04\x00\x00'
p7701
tp7702
Rp7703
sVmonitors
p7704
g2
(g6
S'b\x04\x00\x00'
p7705
tp7706
Rp7707
sVbook
p7708
g2
(g6
S'\xd2\x00\x00\x00'
p7709
tp7710
Rp7711
sVstar
p7712
g2
(g6
S'T\x06\x00\x00'
p7713
tp7714
Rp7715
sVstay
p7716
g2
(g6
S'`\x06\x00\x00'
p7717
tp7718
Rp7719
sVfriends
p7720
g2
(g6
S'\xcf\x02\x00\x00'
p7721
tp7722
Rp7723
sVsamsung
p7724
g2
(g6
S'\xc6\x05\x00\x00'
p7725
tp7726
Rp7727
sVranks
p7728
g2
(g6
S'c\x05\x00\x00'
p7729
tp7730
Rp7731
sVextras
p7732
g2
(g6
S'\x81\x02\x00\x00'
p7733
tp7734
Rp7735
sVvolumes
p7736
g2
(g6
S'3\x07\x00\x00'
p7737
tp7738
Rp7739
s.