(dp0
Vyellow
p1
cnumpy.core.multiarray
scalar
p2
(cnumpy
dtype
p3
(S'i4'
p4
I0
I1
tp5
Rp6
(I3
S'<'
p7
NNNI-1
I-1
I0
tp8
bS'\x97\t\x00\x00'
p9
tp10
Rp11
sVwoods
p12
g2
(g6
S'v\t\x00\x00'
p13
tp14
Rp15
sVhanging
p16
g2
(g6
S'\xec\x03\x00\x00'
p17
tp18
Rp19
sVbuddy
p20
g2
(g6
S'<\x01\x00\x00'
p21
tp22
Rp23
sVelectricity
p24
g2
(g6
S'\xcb\x02\x00\x00'
p25
tp26
Rp27
sVsweetest
p28
g2
(g6
S'I\x08\x00\x00'
p29
tp30
Rp31
sVpresents
p32
g2
(g6
S'r\x06\x00\x00'
p33
tp34
Rp35
sVussernm
p36
g2
(g6
S'\t\t\x00\x00'
p37
tp38
Rp39
sVcruising
p40
g2
(g6
S'"\x02\x00\x00'
p41
tp42
Rp43
sVrescue
p44
g2
(g6
S'\xdb\x06\x00\x00'
p45
tp46
Rp47
sVdell
p48
g2
(g6
S'U\x02\x00\x00'
p49
tp50
Rp51
sVupdates
p52
g2
(g6
S'\xfa\x08\x00\x00'
p53
tp54
Rp55
sVbringing
p56
g2
(g6
S'0\x01\x00\x00'
p57
tp58
Rp59
sVbaking
p60
g2
(g6
S'\xc9\x00\x00\x00'
p61
tp62
Rp63
sVprize
p64
g2
(g6
S'\x7f\x06\x00\x00'
p65
tp66
Rp67
sVcustomizable
p68
g2
(g6
S'*\x02\x00\x00'
p69
tp70
Rp71
sVcompanies
p72
g2
(g6
S'\xdb\x01\x00\x00'
p73
tp74
Rp75
sVwednesday
p76
g2
(g6
S'H\t\x00\x00'
p77
tp78
Rp79
sVups
p80
g2
(g6
S'\xfe\x08\x00\x00'
p81
tp82
Rp83
sVclothes
p84
g2
(g6
S'\xbf\x01\x00\x00'
p85
tp86
Rp87
sVforce
p88
g2
(g6
S'm\x03\x00\x00'
p89
tp90
Rp91
sVtired
p92
g2
(g6
S'\x9c\x08\x00\x00'
p93
tp94
Rp95
sVbacon
p96
g2
(g6
S'\xc1\x00\x00\x00'
p97
tp98
Rp99
sVelegant
p100
g2
(g6
S'\xcc\x02\x00\x00'
p101
tp102
Rp103
sVsecond
p104
g2
(g6
S'K\x07\x00\x00'
p105
tp106
Rp107
sVmonster
p108
g2
(g6
S'u\x05\x00\x00'
p109
tp110
Rp111
sVhate
p112
g2
(g6
S'\xf7\x03\x00\x00'
p113
tp114
Rp115
sVenchiladas
p116
g2
(g6
S'\xd5\x02\x00\x00'
p117
tp118
Rp119
sVfingers
p120
g2
(g6
S'S\x03\x00\x00'
p121
tp122
Rp123
sVlights
p124
g2
(g6
S'\xe7\x04\x00\x00'
p125
tp126
Rp127
sVnew
p128
g2
(g6
S'\xaa\x05\x00\x00'
p129
tp130
Rp131
sVhero
p132
g2
(g6
S'\x18\x04\x00\x00'
p133
tp134
Rp135
sVjoin
p136
g2
(g6
S'\x94\x04\x00\x00'
p137
tp138
Rp139
sVdory
p140
g2
(g6
S'\x9c\x02\x00\x00'
p141
tp142
Rp143
sVdrew
p144
g2
(g6
S'\xaa\x02\x00\x00'
p145
tp146
Rp147
sVhulk
p148
g2
(g6
S'G\x04\x00\x00'
p149
tp150
Rp151
sVdry
p152
g2
(g6
S'\xb4\x02\x00\x00'
p153
tp154
Rp155
sVluther
p156
g2
(g6
S'\x13\x05\x00\x00'
p157
tp158
Rp159
sVkids
p160
g2
(g6
S'\xac\x04\x00\x00'
p161
tp162
Rp163
sVreports
p164
g2
(g6
S'\xd9\x06\x00\x00'
p165
tp166
Rp167
sVcredit
p168
g2
(g6
S'\x1d\x02\x00\x00'
p169
tp170
Rp171
sVmilitary
p172
g2
(g6
S'U\x05\x00\x00'
p173
tp174
Rp175
sVpack
p176
g2
(g6
S'\xec\x05\x00\x00'
p177
tp178
Rp179
sVgolden
p180
g2
(g6
S'\xb9\x03\x00\x00'
p181
tp182
Rp183
sVbrought
p184
g2
(g6
S'5\x01\x00\x00'
p185
tp186
Rp187
sVguests
p188
g2
(g6
S'\xd8\x03\x00\x00'
p189
tp190
Rp191
sVarmy
p192
g2
(g6
S'\xa2\x00\x00\x00'
p193
tp194
Rp195
sVmusic
p196
g2
(g6
S'\x90\x05\x00\x00'
p197
tp198
Rp199
sVsurvive
p200
g2
(g6
S'C\x08\x00\x00'
p201
tp202
Rp203
sVnate
p204
g2
(g6
S'\x99\x05\x00\x00'
p205
tp206
Rp207
sVtell
p208
g2
(g6
S'q\x08\x00\x00'
p209
tp210
Rp211
sVrelax
p212
g2
(g6
S'\xd0\x06\x00\x00'
p213
tp214
Rp215
sVbrings
p216
g2
(g6
S'1\x01\x00\x00'
p217
tp218
Rp219
sVyahoo
p220
g2
(g6
S'\x90\t\x00\x00'
p221
tp222
Rp223
sV99
p224
g2
(g6
S'H\x00\x00\x00'
p225
tp226
Rp227
sVglass
p228
g2
(g6
S'\xab\x03\x00\x00'
p229
tp230
Rp231
sVberlin
p232
g2
(g6
S'\xe8\x00\x00\x00'
p233
tp234
Rp235
sVfriendsgiving
p236
g2
(g6
S'\x81\x03\x00\x00'
p237
tp238
Rp239
sVhole
p240
g2
(g6
S'+\x04\x00\x00'
p241
tp242
Rp243
sV94
p244
g2
(g6
S'F\x00\x00\x00'
p245
tp246
Rp247
sVlocked
p248
g2
(g6
S'\xfc\x04\x00\x00'
p249
tp250
Rp251
sVroom
p252
g2
(g6
S'\x01\x07\x00\x00'
p253
tp254
Rp255
sVmovies
p256
g2
(g6
S'\x84\x05\x00\x00'
p257
tp258
Rp259
sVroot
p260
g2
(g6
S'\x02\x07\x00\x00'
p261
tp262
Rp263
sVupdated
p264
g2
(g6
S'\xf9\x08\x00\x00'
p265
tp266
Rp267
sVdragons
p268
g2
(g6
S'\xa2\x02\x00\x00'
p269
tp270
Rp271
sVwant
p272
g2
(g6
S'1\t\x00\x00'
p273
tp274
Rp275
sVcookers
p276
g2
(g6
S'\xf5\x01\x00\x00'
p277
tp278
Rp279
sVabsolute
p280
g2
(g6
S'L\x00\x00\x00'
p281
tp282
Rp283
sVtravel
p284
g2
(g6
S'\xb7\x08\x00\x00'
p285
tp286
Rp287
sVfeature
p288
g2
(g6
S'6\x03\x00\x00'
p289
tp290
Rp291
sVmachine
p292
g2
(g6
S'\x16\x05\x00\x00'
p293
tp294
Rp295
sVhot
p296
g2
(g6
S'=\x04\x00\x00'
p297
tp298
Rp299
sVhop
p300
g2
(g6
S'6\x04\x00\x00'
p301
tp302
Rp303
sVanswer
p304
g2
(g6
S'\x90\x00\x00\x00'
p305
tp306
Rp307
sVgaming
p308
g2
(g6
S'\x92\x03\x00\x00'
p309
tp310
Rp311
sVrise
p312
g2
(g6
S'\xf2\x06\x00\x00'
p313
tp314
Rp315
sVbeauty
p316
g2
(g6
S'\xde\x00\x00\x00'
p317
tp318
Rp319
sVwrong
p320
g2
(g6
S'\x8d\t\x00\x00'
p321
tp322
Rp323
sVcuriosity
p324
g2
(g6
S'&\x02\x00\x00'
p325
tp326
Rp327
sVtypes
p328
g2
(g6
S'\xe9\x08\x00\x00'
p329
tp330
Rp331
sVshirt
p332
g2
(g6
S'{\x07\x00\x00'
p333
tp334
Rp335
sVwins
p336
g2
(g6
S'e\t\x00\x00'
p337
tp338
Rp339
sVseason
p340
g2
(g6
S'H\x07\x00\x00'
p341
tp342
Rp343
sVthink
p344
g2
(g6
S'\x84\x08\x00\x00'
p345
tp346
Rp347
sVmaintain
p348
g2
(g6
S'\x1e\x05\x00\x00'
p349
tp350
Rp351
sVwind
p352
g2
(g6
S'_\t\x00\x00'
p353
tp354
Rp355
sVwine
p356
g2
(g6
S'a\t\x00\x00'
p357
tp358
Rp359
sVfifa
p360
g2
(g6
S'F\x03\x00\x00'
p361
tp362
Rp363
sVdeck
p364
g2
(g6
S'J\x02\x00\x00'
p365
tp366
Rp367
sVupstream
p368
g2
(g6
S'\xff\x08\x00\x00'
p369
tp370
Rp371
sVkickoff
p372
g2
(g6
S'\xa8\x04\x00\x00'
p373
tp374
Rp375
sVkeyboard
p376
g2
(g6
S'\xa6\x04\x00\x00'
p377
tp378
Rp379
sVkong
p380
g2
(g6
S'\xbc\x04\x00\x00'
p381
tp382
Rp383
sVscoring
p384
g2
(g6
S'?\x07\x00\x00'
p385
tp386
Rp387
sVfit
p388
g2
(g6
S'X\x03\x00\x00'
p389
tp390
Rp391
sVfix
p392
g2
(g6
S'Z\x03\x00\x00'
p393
tp394
Rp395
sVcrew
p396
g2
(g6
S'\x1e\x02\x00\x00'
p397
tp398
Rp399
sVsurvivors
p400
g2
(g6
S'E\x08\x00\x00'
p401
tp402
Rp403
sVhidden
p404
g2
(g6
S' \x04\x00\x00'
p405
tp406
Rp407
sVcred
p408
g2
(g6
S'\x1b\x02\x00\x00'
p409
tp410
Rp411
sVeasier
p412
g2
(g6
S'\xbf\x02\x00\x00'
p413
tp414
Rp415
sVsilver
p416
g2
(g6
S'\x96\x07\x00\x00'
p417
tp418
Rp419
sVmeat
p420
g2
(g6
S'@\x05\x00\x00'
p421
tp422
Rp423
sVskills
p424
g2
(g6
S'\xa5\x07\x00\x00'
p425
tp426
Rp427
sVroast
p428
g2
(g6
S'\xf6\x06\x00\x00'
p429
tp430
Rp431
sVaddicted
p432
g2
(g6
S'[\x00\x00\x00'
p433
tp434
Rp435
sVwent
p436
g2
(g6
S'N\t\x00\x00'
p437
tp438
Rp439
sVbone
p440
g2
(g6
S'\x11\x01\x00\x00'
p441
tp442
Rp443
sVseries
p444
g2
(g6
S'_\x07\x00\x00'
p445
tp446
Rp447
sVsolution
p448
g2
(g6
S'\xc9\x07\x00\x00'
p449
tp450
Rp451
sVcarry
p452
g2
(g6
S'i\x01\x00\x00'
p453
tp454
Rp455
sVtaught
p456
g2
(g6
S'g\x08\x00\x00'
p457
tp458
Rp459
sVwhip
p460
g2
(g6
S'U\t\x00\x00'
p461
tp462
Rp463
sVrt
p464
g2
(g6
S'\t\x07\x00\x00'
p465
tp466
Rp467
sVtrending
p468
g2
(g6
S'\xbf\x08\x00\x00'
p469
tp470
Rp471
sVvelvet
p472
g2
(g6
S'\x11\t\x00\x00'
p473
tp474
Rp475
sVtomorrow
p476
g2
(g6
S'\xa0\x08\x00\x00'
p477
tp478
Rp479
sVsparkle
p480
g2
(g6
S'\xdb\x07\x00\x00'
p481
tp482
Rp483
sVturning
p484
g2
(g6
S'\xe0\x08\x00\x00'
p485
tp486
Rp487
sVcutest
p488
g2
(g6
S'0\x02\x00\x00'
p489
tp490
Rp491
sVfave
p492
g2
(g6
S'-\x03\x00\x00'
p493
tp494
Rp495
sVstruggle
p496
g2
(g6
S'"\x08\x00\x00'
p497
tp498
Rp499
sVr2
p500
g2
(g6
S'\xac\x06\x00\x00'
p501
tp502
Rp503
sVshelves
p504
g2
(g6
S't\x07\x00\x00'
p505
tp506
Rp507
sVstarts
p508
g2
(g6
S'\xfd\x07\x00\x00'
p509
tp510
Rp511
sVmoment
p512
g2
(g6
S'o\x05\x00\x00'
p513
tp514
Rp515
sVatt
p516
g2
(g6
S'\xad\x00\x00\x00'
p517
tp518
Rp519
sVswiping
p520
g2
(g6
S'K\x08\x00\x00'
p521
tp522
Rp523
sVarrived
p524
g2
(g6
S'\xa3\x00\x00\x00'
p525
tp526
Rp527
sVspeeds
p528
g2
(g6
S'\xe1\x07\x00\x00'
p529
tp530
Rp531
sVuser
p532
g2
(g6
S'\x05\t\x00\x00'
p533
tp534
Rp535
sVnaughty
p536
g2
(g6
S'\x9e\x05\x00\x00'
p537
tp538
Rp539
sVfeatures
p540
g2
(g6
S'8\x03\x00\x00'
p541
tp542
Rp543
sVgrade
p544
g2
(g6
S'\xc4\x03\x00\x00'
p545
tp546
Rp547
sVveggie
p548
g2
(g6
S'\x0f\t\x00\x00'
p549
tp550
Rp551
sVwalkers
p552
g2
(g6
S',\t\x00\x00'
p553
tp554
Rp555
sVprocreate
p556
g2
(g6
S'\x85\x06\x00\x00'
p557
tp558
Rp559
sVditch
p560
g2
(g6
S'\x8b\x02\x00\x00'
p561
tp562
Rp563
sV170
p564
g2
(g6
S'\x13\x00\x00\x00'
p565
tp566
Rp567
sVservice
p568
g2
(g6
S'`\x07\x00\x00'
p569
tp570
Rp571
sVengagement
p572
g2
(g6
S'\xdb\x02\x00\x00'
p573
tp574
Rp575
sVgirls
p576
g2
(g6
S'\xa7\x03\x00\x00'
p577
tp578
Rp579
sVneeded
p580
g2
(g6
S'\xa3\x05\x00\x00'
p581
tp582
Rp583
sVmaster
p584
g2
(g6
S'6\x05\x00\x00'
p585
tp586
Rp587
sVlisted
p588
g2
(g6
S'\xef\x04\x00\x00'
p589
tp590
Rp591
sVhollywood
p592
g2
(g6
S'.\x04\x00\x00'
p593
tp594
Rp595
sVlisten
p596
g2
(g6
S'\xf0\x04\x00\x00'
p597
tp598
Rp599
sVrewards
p600
g2
(g6
S'\xeb\x06\x00\x00'
p601
tp602
Rp603
sVgym
p604
g2
(g6
S'\xdd\x03\x00\x00'
p605
tp606
Rp607
sVstocking
p608
g2
(g6
S'\x10\x08\x00\x00'
p609
tp610
Rp611
sVbegins
p612
g2
(g6
S'\xe4\x00\x00\x00'
p613
tp614
Rp615
sVspoiler
p616
g2
(g6
S'\xe7\x07\x00\x00'
p617
tp618
Rp619
sVtree
p620
g2
(g6
S'\xbc\x08\x00\x00'
p621
tp622
Rp623
sVproject
p624
g2
(g6
S'\x89\x06\x00\x00'
p625
tp626
Rp627
sVmatter
p628
g2
(g6
S'8\x05\x00\x00'
p629
tp630
Rp631
sVstreet
p632
g2
(g6
S'\x1c\x08\x00\x00'
p633
tp634
Rp635
sVsilly
p636
g2
(g6
S'\x95\x07\x00\x00'
p637
tp638
Rp639
sVfeeling
p640
g2
(g6
S'>\x03\x00\x00'
p641
tp642
Rp643
sVacquisition
p644
g2
(g6
S'S\x00\x00\x00'
p645
tp646
Rp647
sVmini
p648
g2
(g6
S'[\x05\x00\x00'
p649
tp650
Rp651
sVexploring
p652
g2
(g6
S'\n\x03\x00\x00'
p653
tp654
Rp655
sVnadella
p656
g2
(g6
S'\x94\x05\x00\x00'
p657
tp658
Rp659
sVmodern
p660
g2
(g6
S'm\x05\x00\x00'
p661
tp662
Rp663
sVmind
p664
g2
(g6
S'X\x05\x00\x00'
p665
tp666
Rp667
sV100
p668
g2
(g6
S'\x03\x00\x00\x00'
p669
tp670
Rp671
sVseen
p672
g2
(g6
S'Q\x07\x00\x00'
p673
tp674
Rp675
sVtells
p676
g2
(g6
S'r\x08\x00\x00'
p677
tp678
Rp679
sVgives
p680
g2
(g6
S'\xa9\x03\x00\x00'
p681
tp682
Rp683
sVrudolph
p684
g2
(g6
S'\x0c\x07\x00\x00'
p685
tp686
Rp687
sVthrilled
p688
g2
(g6
S'\x8c\x08\x00\x00'
p689
tp690
Rp691
sVtheatres
p692
g2
(g6
S'\x7f\x08\x00\x00'
p693
tp694
Rp695
sVregular
p696
g2
(g6
S'\xcd\x06\x00\x00'
p697
tp698
Rp699
sVmouth
p700
g2
(g6
S'\x81\x05\x00\x00'
p701
tp702
Rp703
sVorganization
p704
g2
(g6
S'\xdf\x05\x00\x00'
p705
tp706
Rp707
sVepisode
p708
g2
(g6
S'\xe5\x02\x00\x00'
p709
tp710
Rp711
sVdog
p712
g2
(g6
S'\x94\x02\x00\x00'
p713
tp714
Rp715
sVspend
p716
g2
(g6
S'\xe2\x07\x00\x00'
p717
tp718
Rp719
sVpoints
p720
g2
(g6
S'R\x06\x00\x00'
p721
tp722
Rp723
sVtech
p724
g2
(g6
S'm\x08\x00\x00'
p725
tp726
Rp727
sVpsst
p728
g2
(g6
S'\x90\x06\x00\x00'
p729
tp730
Rp731
sVcame
p732
g2
(g6
S'W\x01\x00\x00'
p733
tp734
Rp735
sVmarvel
p736
g2
(g6
S'1\x05\x00\x00'
p737
tp738
Rp739
sVsaying
p740
g2
(g6
S'/\x07\x00\x00'
p741
tp742
Rp743
sVpriv
p744
g2
(g6
S'}\x06\x00\x00'
p745
tp746
Rp747
sVlessons
p748
g2
(g6
S'\xdd\x04\x00\x00'
p749
tp750
Rp751
sVorleans
p752
g2
(g6
S'\xe1\x05\x00\x00'
p753
tp754
Rp755
sVbusy
p756
g2
(g6
S'H\x01\x00\x00'
p757
tp758
Rp759
sVmenu
p760
g2
(g6
S'K\x05\x00\x00'
p761
tp762
Rp763
sVexplain
p764
g2
(g6
S'\x06\x03\x00\x00'
p765
tp766
Rp767
sV699
p768
g2
(g6
S'?\x00\x00\x00'
p769
tp770
Rp771
sVmens
p772
g2
(g6
S'J\x05\x00\x00'
p773
tp774
Rp775
sVfolks
p776
g2
(g6
S'f\x03\x00\x00'
p777
tp778
Rp779
sVwearing
p780
g2
(g6
S'A\t\x00\x00'
p781
tp782
Rp783
sVbroetry
p784
g2
(g6
S'3\x01\x00\x00'
p785
tp786
Rp787
sVstop
p788
g2
(g6
S'\x13\x08\x00\x00'
p789
tp790
Rp791
sVtips
p792
g2
(g6
S'\x9b\x08\x00\x00'
p793
tp794
Rp795
sVearn
p796
g2
(g6
S'\xbc\x02\x00\x00'
p797
tp798
Rp799
sVbar
p800
g2
(g6
S'\xcd\x00\x00\x00'
p801
tp802
Rp803
sVbag
p804
g2
(g6
S'\xc5\x00\x00\x00'
p805
tp806
Rp807
sVbad
p808
g2
(g6
S'\xc2\x00\x00\x00'
p809
tp810
Rp811
sVheirloom
p812
g2
(g6
S'\r\x04\x00\x00'
p813
tp814
Rp815
sVbest
p816
g2
(g6
S'\xe9\x00\x00\x00'
p817
tp818
Rp819
sVlots
p820
g2
(g6
S'\x07\x05\x00\x00'
p821
tp822
Rp823
sVirs
p824
g2
(g6
S'y\x04\x00\x00'
p825
tp826
Rp827
sVscore
p828
g2
(g6
S'>\x07\x00\x00'
p829
tp830
Rp831
sVprada
p832
g2
(g6
S'f\x06\x00\x00'
p833
tp834
Rp835
sVyogurt
p836
g2
(g6
S'\x9a\t\x00\x00'
p837
tp838
Rp839
sVwears
p840
g2
(g6
S'B\t\x00\x00'
p841
tp842
Rp843
sVnature
p844
g2
(g6
S'\x9d\x05\x00\x00'
p845
tp846
Rp847
sVpicking
p848
g2
(g6
S'%\x06\x00\x00'
p849
tp850
Rp851
sVhundreds
p852
g2
(g6
S'I\x04\x00\x00'
p853
tp854
Rp855
sVplanner
p856
g2
(g6
S'C\x06\x00\x00'
p857
tp858
Rp859
sVtablet
p860
g2
(g6
S'R\x08\x00\x00'
p861
tp862
Rp863
sVcountry
p864
g2
(g6
S'\t\x02\x00\x00'
p865
tp866
Rp867
sVadventures
p868
g2
(g6
S'e\x00\x00\x00'
p869
tp870
Rp871
sVplanned
p872
g2
(g6
S'B\x06\x00\x00'
p873
tp874
Rp875
sVasked
p876
g2
(g6
S'\xa9\x00\x00\x00'
p877
tp878
Rp879
sVpre
p880
g2
(g6
S'g\x06\x00\x00'
p881
tp882
Rp883
sVactive
p884
g2
(g6
S'V\x00\x00\x00'
p885
tp886
Rp887
sVperiscope
p888
g2
(g6
S'\x17\x06\x00\x00'
p889
tp890
Rp891
sVpath
p892
g2
(g6
S'\x01\x06\x00\x00'
p893
tp894
Rp895
sVbrotato
p896
g2
(g6
S'4\x01\x00\x00'
p897
tp898
Rp899
sVtraveling
p900
g2
(g6
S'\xb8\x08\x00\x00'
p901
tp902
Rp903
sVputs
p904
g2
(g6
S'\x9d\x06\x00\x00'
p905
tp906
Rp907
sVfri
p908
g2
(g6
S'{\x03\x00\x00'
p909
tp910
Rp911
sVtiny
p912
g2
(g6
S'\x99\x08\x00\x00'
p913
tp914
Rp915
sVsaute
p916
g2
(g6
S')\x07\x00\x00'
p917
tp918
Rp919
sVfry
p920
g2
(g6
S'\x87\x03\x00\x00'
p921
tp922
Rp923
sVlovely
p924
g2
(g6
S'\n\x05\x00\x00'
p925
tp926
Rp927
sVpro
p928
g2
(g6
S'\x81\x06\x00\x00'
p929
tp930
Rp931
sVlife
p932
g2
(g6
S'\xe4\x04\x00\x00'
p933
tp934
Rp935
sVmushroom
p936
g2
(g6
S'\x8f\x05\x00\x00'
p937
tp938
Rp939
sVchild
p940
g2
(g6
S'\x9f\x01\x00\x00'
p941
tp942
Rp943
sVspin
p944
g2
(g6
S'\xe5\x07\x00\x00'
p945
tp946
Rp947
sVchill
p948
g2
(g6
S'\xa1\x01\x00\x00'
p949
tp950
Rp951
sVtastes
p952
g2
(g6
S'e\x08\x00\x00'
p953
tp954
Rp955
sVnear
p956
g2
(g6
S'\x9f\x05\x00\x00'
p957
tp958
Rp959
sVstudy
p960
g2
(g6
S'&\x08\x00\x00'
p961
tp962
Rp963
sVchilling
p964
g2
(g6
S'\xa2\x01\x00\x00'
p965
tp966
Rp967
sVseven
p968
g2
(g6
S'h\x07\x00\x00'
p969
tp970
Rp971
sVchanged
p972
g2
(g6
S'\x8a\x01\x00\x00'
p973
tp974
Rp975
sVplayed
p976
g2
(g6
S'H\x06\x00\x00'
p977
tp978
Rp979
sVditching
p980
g2
(g6
S'\x8c\x02\x00\x00'
p981
tp982
Rp983
sVplayer
p984
g2
(g6
S'I\x06\x00\x00'
p985
tp986
Rp987
sVim
p988
g2
(g6
S'V\x04\x00\x00'
p989
tp990
Rp991
sVid
p992
g2
(g6
S'Q\x04\x00\x00'
p993
tp994
Rp995
sVfeed
p996
g2
(g6
S'<\x03\x00\x00'
p997
tp998
Rp999
sVgrown
p1000
g2
(g6
S'\xd4\x03\x00\x00'
p1001
tp1002
Rp1003
sVpinning
p1004
g2
(g6
S'5\x06\x00\x00'
p1005
tp1006
Rp1007
sVhong
p1008
g2
(g6
S'4\x04\x00\x00'
p1009
tp1010
Rp1011
sVthings
p1012
g2
(g6
S'\x83\x08\x00\x00'
p1013
tp1014
Rp1015
sVdebuted
p1016
g2
(g6
S'H\x02\x00\x00'
p1017
tp1018
Rp1019
sVcraigslist
p1020
g2
(g6
S'\x15\x02\x00\x00'
p1021
tp1022
Rp1023
sVeffortlessly
p1024
g2
(g6
S'\xc7\x02\x00\x00'
p1025
tp1026
Rp1027
sVkim
p1028
g2
(g6
S'\xaf\x04\x00\x00'
p1029
tp1030
Rp1031
sVtune
p1032
g2
(g6
S'\xda\x08\x00\x00'
p1033
tp1034
Rp1035
sVkid
p1036
g2
(g6
S'\xaa\x04\x00\x00'
p1037
tp1038
Rp1039
sVyoure
p1040
g2
(g6
S'\x9e\t\x00\x00'
p1041
tp1042
Rp1043
sVburgers
p1044
g2
(g6
S'E\x01\x00\x00'
p1045
tp1046
Rp1047
sVclaims
p1048
g2
(g6
S'\xaf\x01\x00\x00'
p1049
tp1050
Rp1051
sVleft
p1052
g2
(g6
S'\xd7\x04\x00\x00'
p1053
tp1054
Rp1055
sVjust
p1056
g2
(g6
S'\x9f\x04\x00\x00'
p1057
tp1058
Rp1059
sVsleepy
p1060
g2
(g6
S'\xaa\x07\x00\x00'
p1061
tp1062
Rp1063
sVfacts
p1064
g2
(g6
S'\x16\x03\x00\x00'
p1065
tp1066
Rp1067
sVyes
p1068
g2
(g6
S'\x98\t\x00\x00'
p1069
tp1070
Rp1071
sVdining
p1072
g2
(g6
S'y\x02\x00\x00'
p1073
tp1074
Rp1075
sVpotential
p1076
g2
(g6
S'_\x06\x00\x00'
p1077
tp1078
Rp1079
sVeasy
p1080
g2
(g6
S'\xc0\x02\x00\x00'
p1081
tp1082
Rp1083
sVprison
p1084
g2
(g6
S'|\x06\x00\x00'
p1085
tp1086
Rp1087
sV1110c
p1088
g2
(g6
S'\x07\x00\x00\x00'
p1089
tp1090
Rp1091
sVsave
p1092
g2
(g6
S'*\x07\x00\x00'
p1093
tp1094
Rp1095
sVhat
p1096
g2
(g6
S'\xf6\x03\x00\x00'
p1097
tp1098
Rp1099
sVpossible
p1100
g2
(g6
S'Y\x06\x00\x00'
p1101
tp1102
Rp1103
sVunique
p1104
g2
(g6
S'\xf1\x08\x00\x00'
p1105
tp1106
Rp1107
sVdreams
p1108
g2
(g6
S'\xa6\x02\x00\x00'
p1109
tp1110
Rp1111
sVnevermind
p1112
g2
(g6
S'\xa9\x05\x00\x00'
p1113
tp1114
Rp1115
sVsteps
p1116
g2
(g6
S'\x0c\x08\x00\x00'
p1117
tp1118
Rp1119
sVright
p1120
g2
(g6
S'\xef\x06\x00\x00'
p1121
tp1122
Rp1123
sVold
p1124
g2
(g6
S'\xcf\x05\x00\x00'
p1125
tp1126
Rp1127
sVpeople
p1128
g2
(g6
S'\x10\x06\x00\x00'
p1129
tp1130
Rp1131
sVdear
p1132
g2
(g6
S'E\x02\x00\x00'
p1133
tp1134
Rp1135
sVunit
p1136
g2
(g6
S'\xf2\x08\x00\x00'
p1137
tp1138
Rp1139
sVbold
p1140
g2
(g6
S'\x10\x01\x00\x00'
p1141
tp1142
Rp1143
sVstarring
p1144
g2
(g6
S'\xf7\x07\x00\x00'
p1145
tp1146
Rp1147
sVmemorable
p1148
g2
(g6
S'H\x05\x00\x00'
p1149
tp1150
Rp1151
sVafternoon
p1152
g2
(g6
S'i\x00\x00\x00'
p1153
tp1154
Rp1155
sVislands
p1156
g2
(g6
S'{\x04\x00\x00'
p1157
tp1158
Rp1159
sVhospital
p1160
g2
(g6
S':\x04\x00\x00'
p1161
tp1162
Rp1163
sVmanagers
p1164
g2
(g6
S"'\x05\x00\x00"
p1165
tp1166
Rp1167
sVson
p1168
g2
(g6
S'\xcf\x07\x00\x00'
p1169
tp1170
Rp1171
sVthankful
p1172
g2
(g6
S'z\x08\x00\x00'
p1173
tp1174
Rp1175
sVwhatd
p1176
g2
(g6
S'Q\t\x00\x00'
p1177
tp1178
Rp1179
sVwrap
p1180
g2
(g6
S'\x87\t\x00\x00'
p1181
tp1182
Rp1183
sVkilgrave
p1184
g2
(g6
S'\xad\x04\x00\x00'
p1185
tp1186
Rp1187
sVleaf
p1188
g2
(g6
S'\xd3\x04\x00\x00'
p1189
tp1190
Rp1191
sVgreatness
p1192
g2
(g6
S'\xcc\x03\x00\x00'
p1193
tp1194
Rp1195
sVhappy
p1196
g2
(g6
S'\xf1\x03\x00\x00'
p1197
tp1198
Rp1199
sVoffer
p1200
g2
(g6
S'\xc8\x05\x00\x00'
p1201
tp1202
Rp1203
sVcongratulations
p1204
g2
(g6
S'\xe7\x01\x00\x00'
p1205
tp1206
Rp1207
sVinside
p1208
g2
(g6
S'd\x04\x00\x00'
p1209
tp1210
Rp1211
sVdevices
p1212
g2
(g6
S'k\x02\x00\x00'
p1213
tp1214
Rp1215
sVpanels
p1216
g2
(g6
S'\xf5\x05\x00\x00'
p1217
tp1218
Rp1219
sVdelete
p1220
g2
(g6
S'N\x02\x00\x00'
p1221
tp1222
Rp1223
sV150
p1224
g2
(g6
S'\x0e\x00\x00\x00'
p1225
tp1226
Rp1227
sVlater
p1228
g2
(g6
S'\xc9\x04\x00\x00'
p1229
tp1230
Rp1231
sVclassic
p1232
g2
(g6
S'\xb2\x01\x00\x00'
p1233
tp1234
Rp1235
sVdrive
p1236
g2
(g6
S'\xad\x02\x00\x00'
p1237
tp1238
Rp1239
sVfantography
p1240
g2
(g6
S'$\x03\x00\x00'
p1241
tp1242
Rp1243
sVdevelopers
p1244
g2
(g6
S'i\x02\x00\x00'
p1245
tp1246
Rp1247
sVsmell
p1248
g2
(g6
S'\xb8\x07\x00\x00'
p1249
tp1250
Rp1251
sVroll
p1252
g2
(g6
S'\xff\x06\x00\x00'
p1253
tp1254
Rp1255
sVwishlist
p1256
g2
(g6
S'k\t\x00\x00'
p1257
tp1258
Rp1259
sVdiet
p1260
g2
(g6
S'r\x02\x00\x00'
p1261
tp1262
Rp1263
sVwars
p1264
g2
(g6
S'7\t\x00\x00'
p1265
tp1266
Rp1267
sVstockings
p1268
g2
(g6
S'\x11\x08\x00\x00'
p1269
tp1270
Rp1271
sVmuslims
p1272
g2
(g6
S'\x91\x05\x00\x00'
p1273
tp1274
Rp1275
sVweekend
p1276
g2
(g6
S'J\t\x00\x00'
p1277
tp1278
Rp1279
sVbillion
p1280
g2
(g6
S'\xf4\x00\x00\x00'
p1281
tp1282
Rp1283
sVhappening
p1284
g2
(g6
S'\xee\x03\x00\x00'
p1285
tp1286
Rp1287
sV98
p1288
g2
(g6
S'G\x00\x00\x00'
p1289
tp1290
Rp1291
sVdaily
p1292
g2
(g6
S'5\x02\x00\x00'
p1293
tp1294
Rp1295
sVjacket
p1296
g2
(g6
S'\x82\x04\x00\x00'
p1297
tp1298
Rp1299
sVtime
p1300
g2
(g6
S'\x95\x08\x00\x00'
p1301
tp1302
Rp1303
sVchain
p1304
g2
(g6
S'\x86\x01\x00\x00'
p1305
tp1306
Rp1307
sVreviewers
p1308
g2
(g6
S'\xe6\x06\x00\x00'
p1309
tp1310
Rp1311
sVtheaters
p1312
g2
(g6
S'~\x08\x00\x00'
p1313
tp1314
Rp1315
sVhold
p1316
g2
(g6
S'*\x04\x00\x00'
p1317
tp1318
Rp1319
sVyummy
p1320
g2
(g6
S'\xa1\t\x00\x00'
p1321
tp1322
Rp1323
sVfather
p1324
g2
(g6
S'+\x03\x00\x00'
p1325
tp1326
Rp1327
sVcountdown
p1328
g2
(g6
S'\x07\x02\x00\x00'
p1329
tp1330
Rp1331
sVanswered
p1332
g2
(g6
S'\x91\x00\x00\x00'
p1333
tp1334
Rp1335
sVfinally
p1336
g2
(g6
S'O\x03\x00\x00'
p1337
tp1338
Rp1339
sVveterans
p1340
g2
(g6
S'\x13\t\x00\x00'
p1341
tp1342
Rp1343
sVyeast
p1344
g2
(g6
S'\x96\t\x00\x00'
p1345
tp1346
Rp1347
sVchoice
p1348
g2
(g6
S'\xa5\x01\x00\x00'
p1349
tp1350
Rp1351
sVword
p1352
g2
(g6
S'w\t\x00\x00'
p1353
tp1354
Rp1355
sVminute
p1356
g2
(g6
S']\x05\x00\x00'
p1357
tp1358
Rp1359
sVepic
p1360
g2
(g6
S'\xe4\x02\x00\x00'
p1361
tp1362
Rp1363
sVdie
p1364
g2
(g6
S'p\x02\x00\x00'
p1365
tp1366
Rp1367
sVdig
p1368
g2
(g6
S'v\x02\x00\x00'
p1369
tp1370
Rp1371
sVleave
p1372
g2
(g6
S'\xd6\x04\x00\x00'
p1373
tp1374
Rp1375
sVsolved
p1376
g2
(g6
S'\xcc\x07\x00\x00'
p1377
tp1378
Rp1379
sVteam
p1380
g2
(g6
S'l\x08\x00\x00'
p1381
tp1382
Rp1383
sVdip
p1384
g2
(g6
S'{\x02\x00\x00'
p1385
tp1386
Rp1387
sVround
p1388
g2
(g6
S'\x06\x07\x00\x00'
p1389
tp1390
Rp1391
sVdroid
p1392
g2
(g6
S'\xb1\x02\x00\x00'
p1393
tp1394
Rp1395
sVtrails
p1396
g2
(g6
S'\xb4\x08\x00\x00'
p1397
tp1398
Rp1399
sVsteaks
p1400
g2
(g6
S'\x04\x08\x00\x00'
p1401
tp1402
Rp1403
sVeating
p1404
g2
(g6
S'\xc2\x02\x00\x00'
p1405
tp1406
Rp1407
sVheadset
p1408
g2
(g6
S'\x02\x04\x00\x00'
p1409
tp1410
Rp1411
sVheres
p1412
g2
(g6
S'\x16\x04\x00\x00'
p1413
tp1414
Rp1415
sVinternational
p1416
g2
(g6
S'q\x04\x00\x00'
p1417
tp1418
Rp1419
sVfilled
p1420
g2
(g6
S'I\x03\x00\x00'
p1421
tp1422
Rp1423
sVmakeup
p1424
g2
(g6
S'#\x05\x00\x00'
p1425
tp1426
Rp1427
sVupgrade
p1428
g2
(g6
S'\xfb\x08\x00\x00'
p1429
tp1430
Rp1431
sVaddress
p1432
g2
(g6
S'^\x00\x00\x00'
p1433
tp1434
Rp1435
sVbox
p1436
g2
(g6
S'\x1e\x01\x00\x00'
p1437
tp1438
Rp1439
sVboy
p1440
g2
(g6
S'\x1f\x01\x00\x00'
p1441
tp1442
Rp1443
sVsuggestion
p1444
g2
(g6
S'0\x08\x00\x00'
p1445
tp1446
Rp1447
sVboo
p1448
g2
(g6
S'\x13\x01\x00\x00'
p1449
tp1450
Rp1451
sVbob
p1452
g2
(g6
S'\x0c\x01\x00\x00'
p1453
tp1454
Rp1455
sVlove
p1456
g2
(g6
S'\x08\x05\x00\x00'
p1457
tp1458
Rp1459
sVprefer
p1460
g2
(g6
S'h\x06\x00\x00'
p1461
tp1462
Rp1463
sVeverybody
p1464
g2
(g6
S'\xf2\x02\x00\x00'
p1465
tp1466
Rp1467
sVworking
p1468
g2
(g6
S'z\t\x00\x00'
p1469
tp1470
Rp1471
sVangry
p1472
g2
(g6
S'\x87\x00\x00\x00'
p1473
tp1474
Rp1475
sVvisit
p1476
g2
(g6
S'#\t\x00\x00'
p1477
tp1478
Rp1479
sVfrance
p1480
g2
(g6
S'v\x03\x00\x00'
p1481
tp1482
Rp1483
sVwondering
p1484
g2
(g6
S't\t\x00\x00'
p1485
tp1486
Rp1487
sVloving
p1488
g2
(g6
S'\r\x05\x00\x00'
p1489
tp1490
Rp1491
sVintroducing
p1492
g2
(g6
S's\x04\x00\x00'
p1493
tp1494
Rp1495
sVsharing
p1496
g2
(g6
S'o\x07\x00\x00'
p1497
tp1498
Rp1499
sVvisual
p1500
g2
(g6
S'$\t\x00\x00'
p1501
tp1502
Rp1503
sVfly
p1504
g2
(g6
S'd\x03\x00\x00'
p1505
tp1506
Rp1507
sVreviews
p1508
g2
(g6
S'\xe7\x06\x00\x00'
p1509
tp1510
Rp1511
sVwallet
p1512
g2
(g6
S'.\t\x00\x00'
p1513
tp1514
Rp1515
sVmaking
p1516
g2
(g6
S'$\x05\x00\x00'
p1517
tp1518
Rp1519
sVregltd
p1520
g2
(g6
S'\xcb\x06\x00\x00'
p1521
tp1522
Rp1523
sVcrazy
p1524
g2
(g6
S'\x17\x02\x00\x00'
p1525
tp1526
Rp1527
sVawesome
p1528
g2
(g6
S'\xbc\x00\x00\x00'
p1529
tp1530
Rp1531
sVpink
p1532
g2
(g6
S'4\x06\x00\x00'
p1533
tp1534
Rp1535
sVwinter
p1536
g2
(g6
S'f\t\x00\x00'
p1537
tp1538
Rp1539
sVpiled
p1540
g2
(g6
S'1\x06\x00\x00'
p1541
tp1542
Rp1543
sVs2
p1544
g2
(g6
S'\x13\x07\x00\x00'
p1545
tp1546
Rp1547
sVs6
p1548
g2
(g6
S'\x15\x07\x00\x00'
p1549
tp1550
Rp1551
sVs5
p1552
g2
(g6
S'\x14\x07\x00\x00'
p1553
tp1554
Rp1555
sVsunday
p1556
g2
(g6
S'4\x08\x00\x00'
p1557
tp1558
Rp1559
sVelephant
p1560
g2
(g6
S'\xcd\x02\x00\x00'
p1561
tp1562
Rp1563
sVnyc
p1564
g2
(g6
S'\xc0\x05\x00\x00'
p1565
tp1566
Rp1567
sVunforgettable
p1568
g2
(g6
S'\xf0\x08\x00\x00'
p1569
tp1570
Rp1571
sVdesigner
p1572
g2
(g6
S'b\x02\x00\x00'
p1573
tp1574
Rp1575
sVspot
p1576
g2
(g6
S'\xec\x07\x00\x00'
p1577
tp1578
Rp1579
sVlatte
p1580
g2
(g6
S'\xcb\x04\x00\x00'
p1581
tp1582
Rp1583
sVapplications
p1584
g2
(g6
S'\x9a\x00\x00\x00'
p1585
tp1586
Rp1587
sVmac
p1588
g2
(g6
S'\x15\x05\x00\x00'
p1589
tp1590
Rp1591
sVmad
p1592
g2
(g6
S'\x18\x05\x00\x00'
p1593
tp1594
Rp1595
sVdate
p1596
g2
(g6
S'>\x02\x00\x00'
p1597
tp1598
Rp1599
sVjourneymaker
p1600
g2
(g6
S'\x98\x04\x00\x00'
p1601
tp1602
Rp1603
sVmaybe
p1604
g2
(g6
S'9\x05\x00\x00'
p1605
tp1606
Rp1607
sVtale
p1608
g2
(g6
S']\x08\x00\x00'
p1609
tp1610
Rp1611
sVswitch
p1612
g2
(g6
S'M\x08\x00\x00'
p1613
tp1614
Rp1615
sVdefinitions
p1616
g2
(g6
S'M\x02\x00\x00'
p1617
tp1618
Rp1619
sVsf
p1620
g2
(g6
S'j\x07\x00\x00'
p1621
tp1622
Rp1623
sVcute
p1624
g2
(g6
S'-\x02\x00\x00'
p1625
tp1626
Rp1627
sVshield
p1628
g2
(g6
S'v\x07\x00\x00'
p1629
tp1630
Rp1631
sVhaute
p1632
g2
(g6
S'\xf9\x03\x00\x00'
p1633
tp1634
Rp1635
sVyears
p1636
g2
(g6
S'\x95\t\x00\x00'
p1637
tp1638
Rp1639
sVcourse
p1640
g2
(g6
S'\x0e\x02\x00\x00'
p1641
tp1642
Rp1643
sVepisodes
p1644
g2
(g6
S'\xe6\x02\x00\x00'
p1645
tp1646
Rp1647
sVpitch
p1648
g2
(g6
S'8\x06\x00\x00'
p1649
tp1650
Rp1651
sVthumb
p1652
g2
(g6
S'\x91\x08\x00\x00'
p1653
tp1654
Rp1655
sVamazing
p1656
g2
(g6
S'}\x00\x00\x00'
p1657
tp1658
Rp1659
sVfaves
p1660
g2
(g6
S'.\x03\x00\x00'
p1661
tp1662
Rp1663
sVmail
p1664
g2
(g6
S'\x1c\x05\x00\x00'
p1665
tp1666
Rp1667
sVmain
p1668
g2
(g6
S'\x1d\x05\x00\x00'
p1669
tp1670
Rp1671
sVpetition
p1672
g2
(g6
S'\x1b\x06\x00\x00'
p1673
tp1674
Rp1675
sVviews
p1676
g2
(g6
S'\x1a\t\x00\x00'
p1677
tp1678
Rp1679
sVsooner
p1680
g2
(g6
S'\xd3\x07\x00\x00'
p1681
tp1682
Rp1683
sVnation
p1684
g2
(g6
S'\x9a\x05\x00\x00'
p1685
tp1686
Rp1687
sVlunch
p1688
g2
(g6
S'\x11\x05\x00\x00'
p1689
tp1690
Rp1691
sVdidn
p1692
g2
(g6
S'o\x02\x00\x00'
p1693
tp1694
Rp1695
sVrock
p1696
g2
(g6
S'\xfb\x06\x00\x00'
p1697
tp1698
Rp1699
sVsquare
p1700
g2
(g6
S'\xf0\x07\x00\x00'
p1701
tp1702
Rp1703
sVgirl
p1704
g2
(g6
S'\xa6\x03\x00\x00'
p1705
tp1706
Rp1707
sVmorning
p1708
g2
(g6
S'y\x05\x00\x00'
p1709
tp1710
Rp1711
sVliving
p1712
g2
(g6
S'\xf7\x04\x00\x00'
p1713
tp1714
Rp1715
sVcanvas
p1716
g2
(g6
S']\x01\x00\x00'
p1717
tp1718
Rp1719
sVgamers
p1720
g2
(g6
S'\x90\x03\x00\x00'
p1721
tp1722
Rp1723
sVblu
p1724
g2
(g6
S'\x06\x01\x00\x00'
p1725
tp1726
Rp1727
sVblower
p1728
g2
(g6
S'\x05\x01\x00\x00'
p1729
tp1730
Rp1731
sVinternet
p1732
g2
(g6
S'r\x04\x00\x00'
p1733
tp1734
Rp1735
sVdominate
p1736
g2
(g6
S'\x96\x02\x00\x00'
p1737
tp1738
Rp1739
sVcorrect
p1740
g2
(g6
S'\xfe\x01\x00\x00'
p1741
tp1742
Rp1743
sVddiydon
p1744
g2
(g6
S'B\x02\x00\x00'
p1745
tp1746
Rp1747
sVmillion
p1748
g2
(g6
S'W\x05\x00\x00'
p1749
tp1750
Rp1751
sVquite
p1752
g2
(g6
S'\xa9\x06\x00\x00'
p1753
tp1754
Rp1755
sVcomplicated
p1756
g2
(g6
S'\xe2\x01\x00\x00'
p1757
tp1758
Rp1759
sVvinyl
p1760
g2
(g6
S'\x1c\t\x00\x00'
p1761
tp1762
Rp1763
sVgrandma
p1764
g2
(g6
S'\xc6\x03\x00\x00'
p1765
tp1766
Rp1767
sVkeith
p1768
g2
(g6
S'\xa4\x04\x00\x00'
p1769
tp1770
Rp1771
sVadvance
p1772
g2
(g6
S'c\x00\x00\x00'
p1773
tp1774
Rp1775
sVquestion
p1776
g2
(g6
S'\xa5\x06\x00\x00'
p1777
tp1778
Rp1779
sVthing
p1780
g2
(g6
S'\x82\x08\x00\x00'
p1781
tp1782
Rp1783
sVpepperoni
p1784
g2
(g6
S'\x13\x06\x00\x00'
p1785
tp1786
Rp1787
sVcheese
p1788
g2
(g6
S'\x99\x01\x00\x00'
p1789
tp1790
Rp1791
sVsaving
p1792
g2
(g6
S'+\x07\x00\x00'
p1793
tp1794
Rp1795
sVitthe
p1796
g2
(g6
S'\x7f\x04\x00\x00'
p1797
tp1798
Rp1799
sVnutritional
p1800
g2
(g6
S'\xbe\x05\x00\x00'
p1801
tp1802
Rp1803
sVamericans
p1804
g2
(g6
S'\x81\x00\x00\x00'
p1805
tp1806
Rp1807
sVlong
p1808
g2
(g6
S'\xfd\x04\x00\x00'
p1809
tp1810
Rp1811
sVsounds
p1812
g2
(g6
S'\xd7\x07\x00\x00'
p1813
tp1814
Rp1815
sVopen
p1816
g2
(g6
S'\xd3\x05\x00\x00'
p1817
tp1818
Rp1819
sVcheesy
p1820
g2
(g6
S'\x9a\x01\x00\x00'
p1821
tp1822
Rp1823
sVcity
p1824
g2
(g6
S'\xad\x01\x00\x00'
p1825
tp1826
Rp1827
sVlittle
p1828
g2
(g6
S'\xf4\x04\x00\x00'
p1829
tp1830
Rp1831
sV1x
p1832
g2
(g6
S'\x1d\x00\x00\x00'
p1833
tp1834
Rp1835
sVshoppers
p1836
g2
(g6
S'\x82\x07\x00\x00'
p1837
tp1838
Rp1839
sVtexas
p1840
g2
(g6
S'w\x08\x00\x00'
p1841
tp1842
Rp1843
sVwilliams
p1844
g2
(g6
S'\\\t\x00\x00'
p1845
tp1846
Rp1847
sVeyes
p1848
g2
(g6
S'\x0f\x03\x00\x00'
p1849
tp1850
Rp1851
sV11
p1852
g2
(g6
S'\x05\x00\x00\x00'
p1853
tp1854
Rp1855
sV10
p1856
g2
(g6
S'\x02\x00\x00\x00'
p1857
tp1858
Rp1859
sV13
p1860
g2
(g6
S'\n\x00\x00\x00'
p1861
tp1862
Rp1863
sV12
p1864
g2
(g6
S'\x08\x00\x00\x00'
p1865
tp1866
Rp1867
sV15
p1868
g2
(g6
S'\r\x00\x00\x00'
p1869
tp1870
Rp1871
sV14
p1872
g2
(g6
S'\x0c\x00\x00\x00'
p1873
tp1874
Rp1875
sV17
p1876
g2
(g6
S'\x12\x00\x00\x00'
p1877
tp1878
Rp1879
sV16
p1880
g2
(g6
S'\x10\x00\x00\x00'
p1881
tp1882
Rp1883
sV19
p1884
g2
(g6
S'\x15\x00\x00\x00'
p1885
tp1886
Rp1887
sV18
p1888
g2
(g6
S'\x14\x00\x00\x00'
p1889
tp1890
Rp1891
sVgotta
p1892
g2
(g6
S'\xc2\x03\x00\x00'
p1893
tp1894
Rp1895
sVfuture
p1896
g2
(g6
S'\x8b\x03\x00\x00'
p1897
tp1898
Rp1899
sVcollege
p1900
g2
(g6
S'\xca\x01\x00\x00'
p1901
tp1902
Rp1903
sVturned
p1904
g2
(g6
S'\xdf\x08\x00\x00'
p1905
tp1906
Rp1907
sVargument
p1908
g2
(g6
S'\xa1\x00\x00\x00'
p1909
tp1910
Rp1911
sVdash
p1912
g2
(g6
S'=\x02\x00\x00'
p1913
tp1914
Rp1915
sVsaw
p1916
g2
(g6
S'-\x07\x00\x00'
p1917
tp1918
Rp1919
sVtranslate
p1920
g2
(g6
S'\xb6\x08\x00\x00'
p1921
tp1922
Rp1923
sVupgrading
p1924
g2
(g6
S'\xfd\x08\x00\x00'
p1925
tp1926
Rp1927
sVnote
p1928
g2
(g6
S'\xb6\x05\x00\x00'
p1929
tp1930
Rp1931
sVbailey
p1932
g2
(g6
S'\xc7\x00\x00\x00'
p1933
tp1934
Rp1935
sVperformance
p1936
g2
(g6
S'\x16\x06\x00\x00'
p1937
tp1938
Rp1939
sVswitching
p1940
g2
(g6
S'N\x08\x00\x00'
p1941
tp1942
Rp1943
sVultimate
p1944
g2
(g6
S'\xea\x08\x00\x00'
p1945
tp1946
Rp1947
sV200
p1948
g2
(g6
S'\x1f\x00\x00\x00'
p1949
tp1950
Rp1951
sVknew
p1952
g2
(g6
S'\xb7\x04\x00\x00'
p1953
tp1954
Rp1955
sVpair
p1956
g2
(g6
S'\xf3\x05\x00\x00'
p1957
tp1958
Rp1959
sVespecially
p1960
g2
(g6
S'\xec\x02\x00\x00'
p1961
tp1962
Rp1963
sVsurprising
p1964
g2
(g6
S'A\x08\x00\x00'
p1965
tp1966
Rp1967
sVsale
p1968
g2
(g6
S'\x1a\x07\x00\x00'
p1969
tp1970
Rp1971
sVmanaging
p1972
g2
(g6
S'(\x05\x00\x00'
p1973
tp1974
Rp1975
sVsalt
p1976
g2
(g6
S'\x1d\x07\x00\x00'
p1977
tp1978
Rp1979
sVshop
p1980
g2
(g6
S'\x81\x07\x00\x00'
p1981
tp1982
Rp1983
sVshot
p1984
g2
(g6
S'\x85\x07\x00\x00'
p1985
tp1986
Rp1987
sVcaturday
p1988
g2
(g6
S'v\x01\x00\x00'
p1989
tp1990
Rp1991
sVbright
p1992
g2
(g6
S'.\x01\x00\x00'
p1993
tp1994
Rp1995
sVshoe
p1996
g2
(g6
S'|\x07\x00\x00'
p1997
tp1998
Rp1999
sVcorner
p2000
g2
(g6
S'\xfd\x01\x00\x00'
p2001
tp2002
Rp2003
sVslow
p2004
g2
(g6
S'\xaf\x07\x00\x00'
p2005
tp2006
Rp2007
sVgoing
p2008
g2
(g6
S'\xb6\x03\x00\x00'
p2009
tp2010
Rp2011
sVblack
p2012
g2
(g6
S'\xfd\x00\x00\x00'
p2013
tp2014
Rp2015
sVstomp
p2016
g2
(g6
S'\x12\x08\x00\x00'
p2017
tp2018
Rp2019
sVgen
p2020
g2
(g6
S'\x9a\x03\x00\x00'
p2021
tp2022
Rp2023
sVgem
p2024
g2
(g6
S'\x99\x03\x00\x00'
p2025
tp2026
Rp2027
sVprime
p2028
g2
(g6
S'y\x06\x00\x00'
p2029
tp2030
Rp2031
sVseared
p2032
g2
(g6
S'G\x07\x00\x00'
p2033
tp2034
Rp2035
sVsettings
p2036
g2
(g6
S'g\x07\x00\x00'
p2037
tp2038
Rp2039
sVborrow
p2040
g2
(g6
S'\x1c\x01\x00\x00'
p2041
tp2042
Rp2043
sVworried
p2044
g2
(g6
S'~\t\x00\x00'
p2045
tp2046
Rp2047
sVmiles
p2048
g2
(g6
S'T\x05\x00\x00'
p2049
tp2050
Rp2051
sVworries
p2052
g2
(g6
S'\x7f\t\x00\x00'
p2053
tp2054
Rp2055
sVfinishing
p2056
g2
(g6
S'V\x03\x00\x00'
p2057
tp2058
Rp2059
sVworrying
p2060
g2
(g6
S'\x81\t\x00\x00'
p2061
tp2062
Rp2063
sVmilling
p2064
g2
(g6
S'V\x05\x00\x00'
p2065
tp2066
Rp2067
sVbreathtaking
p2068
g2
(g6
S'*\x01\x00\x00'
p2069
tp2070
Rp2071
sVseat
p2072
g2
(g6
S'J\x07\x00\x00'
p2073
tp2074
Rp2075
sVwonder
p2076
g2
(g6
S'q\t\x00\x00'
p2077
tp2078
Rp2079
sVsites
p2080
g2
(g6
S'\xa0\x07\x00\x00'
p2081
tp2082
Rp2083
sVpump
p2084
g2
(g6
S'\x94\x06\x00\x00'
p2085
tp2086
Rp2087
sVscreen
p2088
g2
(g6
S'A\x07\x00\x00'
p2089
tp2090
Rp2091
sVplanes
p2092
g2
(g6
S'@\x06\x00\x00'
p2093
tp2094
Rp2095
sVjr
p2096
g2
(g6
S'\x9a\x04\x00\x00'
p2097
tp2098
Rp2099
sVkilling
p2100
g2
(g6
S'\xae\x04\x00\x00'
p2101
tp2102
Rp2103
sVawards
p2104
g2
(g6
S'\xba\x00\x00\x00'
p2105
tp2106
Rp2107
sVcoupons
p2108
g2
(g6
S'\x0c\x02\x00\x00'
p2109
tp2110
Rp2111
sVaccording
p2112
g2
(g6
S'P\x00\x00\x00'
p2113
tp2114
Rp2115
sVtour
p2116
g2
(g6
S'\xac\x08\x00\x00'
p2117
tp2118
Rp2119
sVcancer
p2120
g2
(g6
S'[\x01\x00\x00'
p2121
tp2122
Rp2123
sVboat
p2124
g2
(g6
S'\x0b\x01\x00\x00'
p2125
tp2126
Rp2127
sVbetter
p2128
g2
(g6
S'\xeb\x00\x00\x00'
p2129
tp2130
Rp2131
sVcamembert
p2132
g2
(g6
S'X\x01\x00\x00'
p2133
tp2134
Rp2135
sVvacation
p2136
g2
(g6
S'\r\t\x00\x00'
p2137
tp2138
Rp2139
sVmark
p2140
g2
(g6
S'-\x05\x00\x00'
p2141
tp2142
Rp2143
sVcombined
p2144
g2
(g6
S'\xcf\x01\x00\x00'
p2145
tp2146
Rp2147
sVmars
p2148
g2
(g6
S'.\x05\x00\x00'
p2149
tp2150
Rp2151
sVmary
p2152
g2
(g6
S'2\x05\x00\x00'
p2153
tp2154
Rp2155
sVwants
p2156
g2
(g6
S'3\t\x00\x00'
p2157
tp2158
Rp2159
sVgraveyard
p2160
g2
(g6
S'\xc9\x03\x00\x00'
p2161
tp2162
Rp2163
sVlaptops
p2164
g2
(g6
S'\xc4\x04\x00\x00'
p2165
tp2166
Rp2167
sVphotos
p2168
g2
(g6
S'!\x06\x00\x00'
p2169
tp2170
Rp2171
sVwake
p2172
g2
(g6
S'+\t\x00\x00'
p2173
tp2174
Rp2175
sVweeks
p2176
g2
(g6
S'L\t\x00\x00'
p2177
tp2178
Rp2179
sVsound
p2180
g2
(g6
S'\xd6\x07\x00\x00'
p2181
tp2182
Rp2183
sVjetpacks
p2184
g2
(g6
S'\x8f\x04\x00\x00'
p2185
tp2186
Rp2187
sVsituation
p2188
g2
(g6
S'\xa1\x07\x00\x00'
p2189
tp2190
Rp2191
sVcafes
p2192
g2
(g6
S'P\x01\x00\x00'
p2193
tp2194
Rp2195
sVhills
p2196
g2
(g6
S'#\x04\x00\x00'
p2197
tp2198
Rp2199
sVtechnology
p2200
g2
(g6
S'n\x08\x00\x00'
p2201
tp2202
Rp2203
sVeveryday
p2204
g2
(g6
S'\xf3\x02\x00\x00'
p2205
tp2206
Rp2207
sVcomments
p2208
g2
(g6
S'\xd8\x01\x00\x00'
p2209
tp2210
Rp2211
sVbags
p2212
g2
(g6
S'\xc6\x00\x00\x00'
p2213
tp2214
Rp2215
sVdifferent
p2216
g2
(g6
S'u\x02\x00\x00'
p2217
tp2218
Rp2219
sVdoctor
p2220
g2
(g6
S'\x90\x02\x00\x00'
p2221
tp2222
Rp2223
sVpepe
p2224
g2
(g6
S'\x11\x06\x00\x00'
p2225
tp2226
Rp2227
sVlava
p2228
g2
(g6
S'\xce\x04\x00\x00'
p2229
tp2230
Rp2231
sVstepped
p2232
g2
(g6
S'\x0b\x08\x00\x00'
p2233
tp2234
Rp2235
sVemojis
p2236
g2
(g6
S'\xd1\x02\x00\x00'
p2237
tp2238
Rp2239
sVworkout
p2240
g2
(g6
S'{\t\x00\x00'
p2241
tp2242
Rp2243
sVimprove
p2244
g2
(g6
S'Z\x04\x00\x00'
p2245
tp2246
Rp2247
sVextended
p2248
g2
(g6
S'\x0b\x03\x00\x00'
p2249
tp2250
Rp2251
sVassist
p2252
g2
(g6
S'\xaa\x00\x00\x00'
p2253
tp2254
Rp2255
sVcollide
p2256
g2
(g6
S'\xcb\x01\x00\x00'
p2257
tp2258
Rp2259
sVrunning
p2260
g2
(g6
S'\x11\x07\x00\x00'
p2261
tp2262
Rp2263
sVtotally
p2264
g2
(g6
S'\xa8\x08\x00\x00'
p2265
tp2266
Rp2267
sVsupports
p2268
g2
(g6
S':\x08\x00\x00'
p2269
tp2270
Rp2271
sVdisregards
p2272
g2
(g6
S'\x88\x02\x00\x00'
p2273
tp2274
Rp2275
sVaccountable
p2276
g2
(g6
S'R\x00\x00\x00'
p2277
tp2278
Rp2279
sVcosts
p2280
g2
(g6
S'\x01\x02\x00\x00'
p2281
tp2282
Rp2283
sVsolve
p2284
g2
(g6
S'\xcb\x07\x00\x00'
p2285
tp2286
Rp2287
sVgenie
p2288
g2
(g6
S'\x9b\x03\x00\x00'
p2289
tp2290
Rp2291
sVsummer
p2292
g2
(g6
S'2\x08\x00\x00'
p2293
tp2294
Rp2295
sVoutdoor
p2296
g2
(g6
S'\xe3\x05\x00\x00'
p2297
tp2298
Rp2299
sVmoney
p2300
g2
(g6
S't\x05\x00\x00'
p2301
tp2302
Rp2303
sVsights
p2304
g2
(g6
S'\x92\x07\x00\x00'
p2305
tp2306
Rp2307
sVrest
p2308
g2
(g6
S'\xe1\x06\x00\x00'
p2309
tp2310
Rp2311
sVflavor
p2312
g2
(g6
S'^\x03\x00\x00'
p2313
tp2314
Rp2315
sVguys
p2316
g2
(g6
S'\xdc\x03\x00\x00'
p2317
tp2318
Rp2319
sVweekly
p2320
g2
(g6
S'K\t\x00\x00'
p2321
tp2322
Rp2323
sVrover
p2324
g2
(g6
S'\x07\x07\x00\x00'
p2325
tp2326
Rp2327
sVmcdonald
p2328
g2
(g6
S':\x05\x00\x00'
p2329
tp2330
Rp2331
sVskies
p2332
g2
(g6
S'\xa4\x07\x00\x00'
p2333
tp2334
Rp2335
sVmovie
p2336
g2
(g6
S'\x83\x05\x00\x00'
p2337
tp2338
Rp2339
sVdark
p2340
g2
(g6
S'<\x02\x00\x00'
p2341
tp2342
Rp2343
sVpop
p2344
g2
(g6
S'U\x06\x00\x00'
p2345
tp2346
Rp2347
sVmom
p2348
g2
(g6
S'n\x05\x00\x00'
p2349
tp2350
Rp2351
sVworld
p2352
g2
(g6
S'}\t\x00\x00'
p2353
tp2354
Rp2355
sVdare
p2356
g2
(g6
S':\x02\x00\x00'
p2357
tp2358
Rp2359
sVnose
p2360
g2
(g6
S'\xb5\x05\x00\x00'
p2361
tp2362
Rp2363
sVtvs
p2364
g2
(g6
S'\xe3\x08\x00\x00'
p2365
tp2366
Rp2367
sVimages
p2368
g2
(g6
S'W\x04\x00\x00'
p2369
tp2370
Rp2371
sVdiving
p2372
g2
(g6
S'\x8e\x02\x00\x00'
p2373
tp2374
Rp2375
sVthinks
p2376
g2
(g6
S'\x86\x08\x00\x00'
p2377
tp2378
Rp2379
sVtote
p2380
g2
(g6
S'\xa9\x08\x00\x00'
p2381
tp2382
Rp2383
sVmemories
p2384
g2
(g6
S'I\x05\x00\x00'
p2385
tp2386
Rp2387
sVbiased
p2388
g2
(g6
S'\xef\x00\x00\x00'
p2389
tp2390
Rp2391
sVpower
p2392
g2
(g6
S'b\x06\x00\x00'
p2393
tp2394
Rp2395
sVseconds
p2396
g2
(g6
S'L\x07\x00\x00'
p2397
tp2398
Rp2399
sViconic
p2400
g2
(g6
S'O\x04\x00\x00'
p2401
tp2402
Rp2403
sVthrowback
p2404
g2
(g6
S'\x8f\x08\x00\x00'
p2405
tp2406
Rp2407
sVhelping
p2408
g2
(g6
S'\x13\x04\x00\x00'
p2409
tp2410
Rp2411
sVhomekit
p2412
g2
(g6
S'0\x04\x00\x00'
p2413
tp2414
Rp2415
sVpackage
p2416
g2
(g6
S'\xed\x05\x00\x00'
p2417
tp2418
Rp2419
sVisland
p2420
g2
(g6
S'z\x04\x00\x00'
p2421
tp2422
Rp2423
sVindustry
p2424
g2
(g6
S'`\x04\x00\x00'
p2425
tp2426
Rp2427
sVcapable
p2428
g2
(g6
S'_\x01\x00\x00'
p2429
tp2430
Rp2431
sVfavorite
p2432
g2
(g6
S'0\x03\x00\x00'
p2433
tp2434
Rp2435
sVmixer
p2436
g2
(g6
S'g\x05\x00\x00'
p2437
tp2438
Rp2439
sVpractical
p2440
g2
(g6
S'd\x06\x00\x00'
p2441
tp2442
Rp2443
sVact
p2444
g2
(g6
S'T\x00\x00\x00'
p2445
tp2446
Rp2447
sVmean
p2448
g2
(g6
S'<\x05\x00\x00'
p2449
tp2450
Rp2451
sVroad
p2452
g2
(g6
S'\xf4\x06\x00\x00'
p2453
tp2454
Rp2455
sVcoupon
p2456
g2
(g6
S'\x0b\x02\x00\x00'
p2457
tp2458
Rp2459
sVdistracted
p2460
g2
(g6
S'\x8a\x02\x00\x00'
p2461
tp2462
Rp2463
sVmondays
p2464
g2
(g6
S's\x05\x00\x00'
p2465
tp2466
Rp2467
sVrecommends
p2468
g2
(g6
S'\xc4\x06\x00\x00'
p2469
tp2470
Rp2471
sVcortana
p2472
g2
(g6
S'\xff\x01\x00\x00'
p2473
tp2474
Rp2475
sVstrikes
p2476
g2
(g6
S'\x1e\x08\x00\x00'
p2477
tp2478
Rp2479
sVannouncement
p2480
g2
(g6
S'\x8c\x00\x00\x00'
p2481
tp2482
Rp2483
sVskins
p2484
g2
(g6
S'\xa6\x07\x00\x00'
p2485
tp2486
Rp2487
sVbuying
p2488
g2
(g6
S'J\x01\x00\x00'
p2489
tp2490
Rp2491
sVpull
p2492
g2
(g6
S'\x92\x06\x00\x00'
p2493
tp2494
Rp2495
sVoctober
p2496
g2
(g6
S'\xc7\x05\x00\x00'
p2497
tp2498
Rp2499
sVshrimpressive
p2500
g2
(g6
S'\x8f\x07\x00\x00'
p2501
tp2502
Rp2503
sVunveils
p2504
g2
(g6
S'\xf6\x08\x00\x00'
p2505
tp2506
Rp2507
sVdirty
p2508
g2
(g6
S'~\x02\x00\x00'
p2509
tp2510
Rp2511
sVtrips
p2512
g2
(g6
S'\xc9\x08\x00\x00'
p2513
tp2514
Rp2515
sVgone
p2516
g2
(g6
S'\xbb\x03\x00\x00'
p2517
tp2518
Rp2519
sVad
p2520
g2
(g6
S'X\x00\x00\x00'
p2521
tp2522
Rp2523
sVah
p2524
g2
(g6
S'n\x00\x00\x00'
p2525
tp2526
Rp2527
sVtshirt
p2528
g2
(g6
S'\xd8\x08\x00\x00'
p2529
tp2530
Rp2531
sVwatched
p2532
g2
(g6
S'9\t\x00\x00'
p2533
tp2534
Rp2535
sVghosts
p2536
g2
(g6
S'\x9f\x03\x00\x00'
p2537
tp2538
Rp2539
sVfilm
p2540
g2
(g6
S'J\x03\x00\x00'
p2541
tp2542
Rp2543
sVdrivers
p2544
g2
(g6
S'\xaf\x02\x00\x00'
p2545
tp2546
Rp2547
sVhybrid
p2548
g2
(g6
S'M\x04\x00\x00'
p2549
tp2550
Rp2551
sVtight
p2552
g2
(g6
S'\x93\x08\x00\x00'
p2553
tp2554
Rp2555
sVpuppy
p2556
g2
(g6
S'\x97\x06\x00\x00'
p2557
tp2558
Rp2559
sVshaun
p2560
g2
(g6
S'q\x07\x00\x00'
p2561
tp2562
Rp2563
sVhey
p2564
g2
(g6
S'\x1a\x04\x00\x00'
p2565
tp2566
Rp2567
sVforgot
p2568
g2
(g6
S'p\x03\x00\x00'
p2569
tp2570
Rp2571
sVgifts
p2572
g2
(g6
S'\xa3\x03\x00\x00'
p2573
tp2574
Rp2575
sVa2
p2576
g2
(g6
S'I\x00\x00\x00'
p2577
tp2578
Rp2579
sVa9
p2580
g2
(g6
S'J\x00\x00\x00'
p2581
tp2582
Rp2583
sVtricky
p2584
g2
(g6
S'\xc4\x08\x00\x00'
p2585
tp2586
Rp2587
sVremote
p2588
g2
(g6
S'\xd4\x06\x00\x00'
p2589
tp2590
Rp2591
sVhaving
p2592
g2
(g6
S'\xfd\x03\x00\x00'
p2593
tp2594
Rp2595
sVmass
p2596
g2
(g6
S'5\x05\x00\x00'
p2597
tp2598
Rp2599
sVadam
p2600
g2
(g6
S'Y\x00\x00\x00'
p2601
tp2602
Rp2603
sValright
p2604
g2
(g6
S'{\x00\x00\x00'
p2605
tp2606
Rp2607
sVlupita
p2608
g2
(g6
S'\x12\x05\x00\x00'
p2609
tp2610
Rp2611
sVstarting
p2612
g2
(g6
S'\xfc\x07\x00\x00'
p2613
tp2614
Rp2615
sVoriginal
p2616
g2
(g6
S'\xe0\x05\x00\x00'
p2617
tp2618
Rp2619
sVnhhttg
p2620
g2
(g6
S'\xaf\x05\x00\x00'
p2621
tp2622
Rp2623
sVshazam
p2624
g2
(g6
S'r\x07\x00\x00'
p2625
tp2626
Rp2627
sVconsider
p2628
g2
(g6
S'\xeb\x01\x00\x00'
p2629
tp2630
Rp2631
sVfounder
p2632
g2
(g6
S'u\x03\x00\x00'
p2633
tp2634
Rp2635
sVbeware
p2636
g2
(g6
S'\xee\x00\x00\x00'
p2637
tp2638
Rp2639
sVtalks
p2640
g2
(g6
S'`\x08\x00\x00'
p2641
tp2642
Rp2643
sVrecaps
p2644
g2
(g6
S'\xbd\x06\x00\x00'
p2645
tp2646
Rp2647
sVtv
p2648
g2
(g6
S'\xe2\x08\x00\x00'
p2649
tp2650
Rp2651
sVts
p2652
g2
(g6
S'\xd7\x08\x00\x00'
p2653
tp2654
Rp2655
sVtail
p2656
g2
(g6
S'W\x08\x00\x00'
p2657
tp2658
Rp2659
sVsmile
p2660
g2
(g6
S'\xb9\x07\x00\x00'
p2661
tp2662
Rp2663
sVenjoying
p2664
g2
(g6
S'\xde\x02\x00\x00'
p2665
tp2666
Rp2667
sVfall
p2668
g2
(g6
S'\x19\x03\x00\x00'
p2669
tp2670
Rp2671
sVdifference
p2672
g2
(g6
S't\x02\x00\x00'
p2673
tp2674
Rp2675
sVcable
p2676
g2
(g6
S'N\x01\x00\x00'
p2677
tp2678
Rp2679
sVcelebrity
p2680
g2
(g6
S'}\x01\x00\x00'
p2681
tp2682
Rp2683
sVsand
p2684
g2
(g6
S' \x07\x00\x00'
p2685
tp2686
Rp2687
sVsmall
p2688
g2
(g6
S'\xb0\x07\x00\x00'
p2689
tp2690
Rp2691
sV20th
p2692
g2
(g6
S'#\x00\x00\x00'
p2693
tp2694
Rp2695
sVgang
p2696
g2
(g6
S'\x93\x03\x00\x00'
p2697
tp2698
Rp2699
sVpast
p2700
g2
(g6
S'\xfe\x05\x00\x00'
p2701
tp2702
Rp2703
sVburger
p2704
g2
(g6
S'D\x01\x00\x00'
p2705
tp2706
Rp2707
sVrichard
p2708
g2
(g6
S'\xed\x06\x00\x00'
p2709
tp2710
Rp2711
sVclock
p2712
g2
(g6
S'\xba\x01\x00\x00'
p2713
tp2714
Rp2715
sVscientists
p2716
g2
(g6
S'<\x07\x00\x00'
p2717
tp2718
Rp2719
sVhours
p2720
g2
(g6
S'A\x04\x00\x00'
p2721
tp2722
Rp2723
sVnovember
p2724
g2
(g6
S'\xbb\x05\x00\x00'
p2725
tp2726
Rp2727
sVlegend
p2728
g2
(g6
S'\xd9\x04\x00\x00'
p2729
tp2730
Rp2731
sVsearch
p2732
g2
(g6
S'D\x07\x00\x00'
p2733
tp2734
Rp2735
sVexperience
p2736
g2
(g6
S'\x02\x03\x00\x00'
p2737
tp2738
Rp2739
sVpics
p2740
g2
(g6
S'(\x06\x00\x00'
p2741
tp2742
Rp2743
sVprior
p2744
g2
(g6
S'{\x06\x00\x00'
p2745
tp2746
Rp2747
sVhealthier
p2748
g2
(g6
S'\x04\x04\x00\x00'
p2749
tp2750
Rp2751
sVpick
p2752
g2
(g6
S'#\x06\x00\x00'
p2753
tp2754
Rp2755
sVaction
p2756
g2
(g6
S'U\x00\x00\x00'
p2757
tp2758
Rp2759
sVnarrow
p2760
g2
(g6
S'\x98\x05\x00\x00'
p2761
tp2762
Rp2763
sVvip
p2764
g2
(g6
S'\x1e\t\x00\x00'
p2765
tp2766
Rp2767
sVselect
p2768
g2
(g6
S'S\x07\x00\x00'
p2769
tp2770
Rp2771
sVparmigiano
p2772
g2
(g6
S'\xfa\x05\x00\x00'
p2773
tp2774
Rp2775
sVexp11
p2776
g2
(g6
S'\xfe\x02\x00\x00'
p2777
tp2778
Rp2779
sVteen
p2780
g2
(g6
S'p\x08\x00\x00'
p2781
tp2782
Rp2783
sVdiamond
p2784
g2
(g6
S'm\x02\x00\x00'
p2785
tp2786
Rp2787
sVcompany
p2788
g2
(g6
S'\xdc\x01\x00\x00'
p2789
tp2790
Rp2791
sVgold
p2792
g2
(g6
S'\xb7\x03\x00\x00'
p2793
tp2794
Rp2795
sVmaryland
p2796
g2
(g6
S'3\x05\x00\x00'
p2797
tp2798
Rp2799
sVtown
p2800
g2
(g6
S'\xad\x08\x00\x00'
p2801
tp2802
Rp2803
sVkeeping
p2804
g2
(g6
S'\xa3\x04\x00\x00'
p2805
tp2806
Rp2807
sVhour
p2808
g2
(g6
S'@\x04\x00\x00'
p2809
tp2810
Rp2811
sVscience
p2812
g2
(g6
S';\x07\x00\x00'
p2813
tp2814
Rp2815
sVhuge
p2816
g2
(g6
S'F\x04\x00\x00'
p2817
tp2818
Rp2819
sVscarlett
p2820
g2
(g6
S'4\x07\x00\x00'
p2821
tp2822
Rp2823
sVlearn
p2824
g2
(g6
S'\xd4\x04\x00\x00'
p2825
tp2826
Rp2827
sVembrace
p2828
g2
(g6
S'\xcf\x02\x00\x00'
p2829
tp2830
Rp2831
sVbeautiful
p2832
g2
(g6
S'\xdd\x00\x00\x00'
p2833
tp2834
Rp2835
sVpurchases
p2836
g2
(g6
S'\x99\x06\x00\x00'
p2837
tp2838
Rp2839
sVscan
p2840
g2
(g6
S'1\x07\x00\x00'
p2841
tp2842
Rp2843
sVshare
p2844
g2
(g6
S'm\x07\x00\x00'
p2845
tp2846
Rp2847
sVstates
p2848
g2
(g6
S'\xff\x07\x00\x00'
p2849
tp2850
Rp2851
sVnumbers
p2852
g2
(g6
S'\xbd\x05\x00\x00'
p2853
tp2854
Rp2855
sVsense
p2856
g2
(g6
S'Z\x07\x00\x00'
p2857
tp2858
Rp2859
sVdress
p2860
g2
(g6
S'\xa7\x02\x00\x00'
p2861
tp2862
Rp2863
sVbogo
p2864
g2
(g6
S'\x0e\x01\x00\x00'
p2865
tp2866
Rp2867
sVcomfort
p2868
g2
(g6
S'\xd4\x01\x00\x00'
p2869
tp2870
Rp2871
sVisn
p2872
g2
(g6
S'|\x04\x00\x00'
p2873
tp2874
Rp2875
sVplans
p2876
g2
(g6
S'E\x06\x00\x00'
p2877
tp2878
Rp2879
sVjumping
p2880
g2
(g6
S'\x9d\x04\x00\x00'
p2881
tp2882
Rp2883
sVsoundtrack
p2884
g2
(g6
S'\xd8\x07\x00\x00'
p2885
tp2886
Rp2887
sVplane
p2888
g2
(g6
S'?\x06\x00\x00'
p2889
tp2890
Rp2891
sVblood
p2892
g2
(g6
S'\x04\x01\x00\x00'
p2893
tp2894
Rp2895
sVwaves
p2896
g2
(g6
S'<\t\x00\x00'
p2897
tp2898
Rp2899
sVregister
p2900
g2
(g6
S'\xca\x06\x00\x00'
p2901
tp2902
Rp2903
sVpay
p2904
g2
(g6
S'\x08\x06\x00\x00'
p2905
tp2906
Rp2907
sVplaying
p2908
g2
(g6
S'J\x06\x00\x00'
p2909
tp2910
Rp2911
sVtrade
p2912
g2
(g6
S'\xb1\x08\x00\x00'
p2913
tp2914
Rp2915
sVstylus
p2916
g2
(g6
S',\x08\x00\x00'
p2917
tp2918
Rp2919
sVbrie
p2920
g2
(g6
S'-\x01\x00\x00'
p2921
tp2922
Rp2923
sV24
p2924
g2
(g6
S'(\x00\x00\x00'
p2925
tp2926
Rp2927
sV20
p2928
g2
(g6
S'\x1e\x00\x00\x00'
p2929
tp2930
Rp2931
sV21
p2932
g2
(g6
S'$\x00\x00\x00'
p2933
tp2934
Rp2935
sV22
p2936
g2
(g6
S'&\x00\x00\x00'
p2937
tp2938
Rp2939
sV23
p2940
g2
(g6
S"'\x00\x00\x00"
p2941
tp2942
Rp2943
sV28
p2944
g2
(g6
S'*\x00\x00\x00'
p2945
tp2946
Rp2947
sV29
p2948
g2
(g6
S'+\x00\x00\x00'
p2949
tp2950
Rp2951
sVlate
p2952
g2
(g6
S'\xc8\x04\x00\x00'
p2953
tp2954
Rp2955
sVruining
p2956
g2
(g6
S'\r\x07\x00\x00'
p2957
tp2958
Rp2959
sVbraise
p2960
g2
(g6
S'#\x01\x00\x00'
p2961
tp2962
Rp2963
sVsauce
p2964
g2
(g6
S'(\x07\x00\x00'
p2965
tp2966
Rp2967
sVhumans
p2968
g2
(g6
S'H\x04\x00\x00'
p2969
tp2970
Rp2971
sVicymi
p2972
g2
(g6
S'P\x04\x00\x00'
p2973
tp2974
Rp2975
sVpuzzle
p2976
g2
(g6
S'\x9e\x06\x00\x00'
p2977
tp2978
Rp2979
sVfeatured
p2980
g2
(g6
S'7\x03\x00\x00'
p2981
tp2982
Rp2983
sVmicro
p2984
g2
(g6
S'O\x05\x00\x00'
p2985
tp2986
Rp2987
sVnotes
p2988
g2
(g6
S'\xb8\x05\x00\x00'
p2989
tp2990
Rp2991
sVhouse
p2992
g2
(g6
S'B\x04\x00\x00'
p2993
tp2994
Rp2995
sVcomin
p2996
g2
(g6
S'\xd6\x01\x00\x00'
p2997
tp2998
Rp2999
sVidea
p3000
g2
(g6
S'R\x04\x00\x00'
p3001
tp3002
Rp3003
sVconnect
p3004
g2
(g6
S'\xe8\x01\x00\x00'
p3005
tp3006
Rp3007
sVblues
p3008
g2
(g6
S'\x08\x01\x00\x00'
p3009
tp3010
Rp3011
sVinsurance
p3012
g2
(g6
S'n\x04\x00\x00'
p3013
tp3014
Rp3015
sVreally
p3016
g2
(g6
S'\xb9\x06\x00\x00'
p3017
tp3018
Rp3019
sVlovers
p3020
g2
(g6
S'\x0b\x05\x00\x00'
p3021
tp3022
Rp3023
sVmissed
p3024
g2
(g6
S'a\x05\x00\x00'
p3025
tp3026
Rp3027
sVtailgating
p3028
g2
(g6
S'X\x08\x00\x00'
p3029
tp3030
Rp3031
sVresearch
p3032
g2
(g6
S'\xdc\x06\x00\x00'
p3033
tp3034
Rp3035
sVtoy
p3036
g2
(g6
S'\xae\x08\x00\x00'
p3037
tp3038
Rp3039
sVmembers
p3040
g2
(g6
S'F\x05\x00\x00'
p3041
tp3042
Rp3043
sVdefinition
p3044
g2
(g6
S'L\x02\x00\x00'
p3045
tp3046
Rp3047
sVowners
p3048
g2
(g6
S'\xeb\x05\x00\x00'
p3049
tp3050
Rp3051
sVbenefits
p3052
g2
(g6
S'\xe7\x00\x00\x00'
p3053
tp3054
Rp3055
sVlego
p3056
g2
(g6
S'\xda\x04\x00\x00'
p3057
tp3058
Rp3059
sVpilots
p3060
g2
(g6
S'2\x06\x00\x00'
p3061
tp3062
Rp3063
sVgif
p3064
g2
(g6
S'\xa0\x03\x00\x00'
p3065
tp3066
Rp3067
sVmajor
p3068
g2
(g6
S'\x1f\x05\x00\x00'
p3069
tp3070
Rp3071
sVnumber
p3072
g2
(g6
S'\xbc\x05\x00\x00'
p3073
tp3074
Rp3075
sVguess
p3076
g2
(g6
S'\xd5\x03\x00\x00'
p3077
tp3078
Rp3079
sVguest
p3080
g2
(g6
S'\xd7\x03\x00\x00'
p3081
tp3082
Rp3083
sVintroduction
p3084
g2
(g6
S't\x04\x00\x00'
p3085
tp3086
Rp3087
sV5th
p3088
g2
(g6
S';\x00\x00\x00'
p3089
tp3090
Rp3091
sVstatement
p3092
g2
(g6
S'\xfe\x07\x00\x00'
p3093
tp3094
Rp3095
sVpark
p3096
g2
(g6
S'\xf9\x05\x00\x00'
p3097
tp3098
Rp3099
sV30terms
p3100
g2
(g6
S'-\x00\x00\x00'
p3101
tp3102
Rp3103
sVappreciation
p3104
g2
(g6
S'\x9c\x00\x00\x00'
p3105
tp3106
Rp3107
sVlivestream
p3108
g2
(g6
S'\xf6\x04\x00\x00'
p3109
tp3110
Rp3111
sVbelieve
p3112
g2
(g6
S'\xe6\x00\x00\x00'
p3113
tp3114
Rp3115
sVobama
p3116
g2
(g6
S'\xc2\x05\x00\x00'
p3117
tp3118
Rp3119
sVapplebee
p3120
g2
(g6
S'\x97\x00\x00\x00'
p3121
tp3122
Rp3123
sVinteractive
p3124
g2
(g6
S'o\x04\x00\x00'
p3125
tp3126
Rp3127
sVmagical
p3128
g2
(g6
S'\x1a\x05\x00\x00'
p3129
tp3130
Rp3131
sVdaredevils
p3132
g2
(g6
S';\x02\x00\x00'
p3133
tp3134
Rp3135
sVmeltdown
p3136
g2
(g6
S'D\x05\x00\x00'
p3137
tp3138
Rp3139
sVorders
p3140
g2
(g6
S'\xdc\x05\x00\x00'
p3141
tp3142
Rp3143
sVsell
p3144
g2
(g6
S'X\x07\x00\x00'
p3145
tp3146
Rp3147
sVmountain
p3148
g2
(g6
S'~\x05\x00\x00'
p3149
tp3150
Rp3151
sVbuilt
p3152
g2
(g6
S'?\x01\x00\x00'
p3153
tp3154
Rp3155
sVself
p3156
g2
(g6
S'U\x07\x00\x00'
p3157
tp3158
Rp3159
sVbuild
p3160
g2
(g6
S'=\x01\x00\x00'
p3161
tp3162
Rp3163
sVmurray
p3164
g2
(g6
S'\x8e\x05\x00\x00'
p3165
tp3166
Rp3167
sVplay
p3168
g2
(g6
S'G\x06\x00\x00'
p3169
tp3170
Rp3171
sVeggs
p3172
g2
(g6
S'\xc9\x02\x00\x00'
p3173
tp3174
Rp3175
sVwalt
p3176
g2
(g6
S'/\t\x00\x00'
p3177
tp3178
Rp3179
sVplan
p3180
g2
(g6
S'>\x06\x00\x00'
p3181
tp3182
Rp3183
sVservices
p3184
g2
(g6
S'a\x07\x00\x00'
p3185
tp3186
Rp3187
sVchard
p3188
g2
(g6
S'\x8e\x01\x00\x00'
p3189
tp3190
Rp3191
sVshhhhhhh
p3192
g2
(g6
S'u\x07\x00\x00'
p3193
tp3194
Rp3195
sVreward
p3196
g2
(g6
S'\xe9\x06\x00\x00'
p3197
tp3198
Rp3199
sVmammoth
p3200
g2
(g6
S'%\x05\x00\x00'
p3201
tp3202
Rp3203
sVbullseye
p3204
g2
(g6
S'A\x01\x00\x00'
p3205
tp3206
Rp3207
sVexp
p3208
g2
(g6
S'\xfd\x02\x00\x00'
p3209
tp3210
Rp3211
sVmicrosoft
p3212
g2
(g6
S'P\x05\x00\x00'
p3213
tp3214
Rp3215
sVjoining
p3216
g2
(g6
S'\x95\x04\x00\x00'
p3217
tp3218
Rp3219
sVthomas
p3220
g2
(g6
S'\x88\x08\x00\x00'
p3221
tp3222
Rp3223
sVgolf
p3224
g2
(g6
S'\xba\x03\x00\x00'
p3225
tp3226
Rp3227
sVsession
p3228
g2
(g6
S'b\x07\x00\x00'
p3229
tp3230
Rp3231
sVootd
p3232
g2
(g6
S'\xd2\x05\x00\x00'
p3233
tp3234
Rp3235
sVheadlines
p3236
g2
(g6
S'\x00\x04\x00\x00'
p3237
tp3238
Rp3239
sVfine
p3240
g2
(g6
S'R\x03\x00\x00'
p3241
tp3242
Rp3243
sVoverwhelmed
p3244
g2
(g6
S'\xe8\x05\x00\x00'
p3245
tp3246
Rp3247
sVwraps
p3248
g2
(g6
S'\x8a\t\x00\x00'
p3249
tp3250
Rp3251
sVwriter
p3252
g2
(g6
S'\x8c\t\x00\x00'
p3253
tp3254
Rp3255
sVweve
p3256
g2
(g6
S'P\t\x00\x00'
p3257
tp3258
Rp3259
sVdistance
p3260
g2
(g6
S'\x89\x02\x00\x00'
p3261
tp3262
Rp3263
sVluke
p3264
g2
(g6
S'\x10\x05\x00\x00'
p3265
tp3266
Rp3267
sVcheaper
p3268
g2
(g6
S'\x95\x01\x00\x00'
p3269
tp3270
Rp3271
sVcourage
p3272
g2
(g6
S'\r\x02\x00\x00'
p3273
tp3274
Rp3275
sVremove
p3276
g2
(g6
S'\xd5\x06\x00\x00'
p3277
tp3278
Rp3279
sVcommon
p3280
g2
(g6
S'\xd9\x01\x00\x00'
p3281
tp3282
Rp3283
sVriver
p3284
g2
(g6
S'\xf3\x06\x00\x00'
p3285
tp3286
Rp3287
sVbody
p3288
g2
(g6
S'\r\x01\x00\x00'
p3289
tp3290
Rp3291
sVset
p3292
g2
(g6
S'd\x07\x00\x00'
p3293
tp3294
Rp3295
sVsep
p3296
g2
(g6
S'[\x07\x00\x00'
p3297
tp3298
Rp3299
sVsex
p3300
g2
(g6
S'i\x07\x00\x00'
p3301
tp3302
Rp3303
sVsea
p3304
g2
(g6
S'C\x07\x00\x00'
p3305
tp3306
Rp3307
sVcozy
p3308
g2
(g6
S'\x14\x02\x00\x00'
p3309
tp3310
Rp3311
sVmovin
p3312
g2
(g6
S'\x85\x05\x00\x00'
p3313
tp3314
Rp3315
sVshatterproof
p3316
g2
(g6
S'p\x07\x00\x00'
p3317
tp3318
Rp3319
sVpickup
p3320
g2
(g6
S"'\x06\x00\x00"
p3321
tp3322
Rp3323
sVsoulmate
p3324
g2
(g6
S'\xd5\x07\x00\x00'
p3325
tp3326
Rp3327
sVprepped
p3328
g2
(g6
S'o\x06\x00\x00'
p3329
tp3330
Rp3331
sVavailable
p3332
g2
(g6
S'\xb5\x00\x00\x00'
p3333
tp3334
Rp3335
sVpunch
p3336
g2
(g6
S'\x96\x06\x00\x00'
p3337
tp3338
Rp3339
sVpatti
p3340
g2
(g6
S'\x03\x06\x00\x00'
p3341
tp3342
Rp3343
sVlet
p3344
g2
(g6
S'\xde\x04\x00\x00'
p3345
tp3346
Rp3347
sVpatty
p3348
g2
(g6
S'\x04\x06\x00\x00'
p3349
tp3350
Rp3351
sVload
p3352
g2
(g6
S'\xf9\x04\x00\x00'
p3353
tp3354
Rp3355
sVpoint
p3356
g2
(g6
S'Q\x06\x00\x00'
p3357
tp3358
Rp3359
sVsimple
p3360
g2
(g6
S'\x97\x07\x00\x00'
p3361
tp3362
Rp3363
sVcommunity
p3364
g2
(g6
S'\xda\x01\x00\x00'
p3365
tp3366
Rp3367
sVcoincidence
p3368
g2
(g6
S'\xc6\x01\x00\x00'
p3369
tp3370
Rp3371
sVsimply
p3372
g2
(g6
S'\x98\x07\x00\x00'
p3373
tp3374
Rp3375
sVraise
p3376
g2
(g6
S'\xb0\x06\x00\x00'
p3377
tp3378
Rp3379
sVcreate
p3380
g2
(g6
S'\x18\x02\x00\x00'
p3381
tp3382
Rp3383
sVhitting
p3384
g2
(g6
S'(\x04\x00\x00'
p3385
tp3386
Rp3387
sVunderstand
p3388
g2
(g6
S'\xef\x08\x00\x00'
p3389
tp3390
Rp3391
sVprices
p3392
g2
(g6
S'w\x06\x00\x00'
p3393
tp3394
Rp3395
sVtalking
p3396
g2
(g6
S'_\x08\x00\x00'
p3397
tp3398
Rp3399
sVadmire
p3400
g2
(g6
S'_\x00\x00\x00'
p3401
tp3402
Rp3403
sVfun
p3404
g2
(g6
S'\x89\x03\x00\x00'
p3405
tp3406
Rp3407
sVrobin
p3408
g2
(g6
S'\xf8\x06\x00\x00'
p3409
tp3410
Rp3411
sVreal
p3412
g2
(g6
S'\xb6\x06\x00\x00'
p3413
tp3414
Rp3415
sVpound
p3416
g2
(g6
S'`\x06\x00\x00'
p3417
tp3418
Rp3419
sVmoto
p3420
g2
(g6
S'|\x05\x00\x00'
p3421
tp3422
Rp3423
sVtriple
p3424
g2
(g6
S'\xc7\x08\x00\x00'
p3425
tp3426
Rp3427
sVchase
p3428
g2
(g6
S'\x93\x01\x00\x00'
p3429
tp3430
Rp3431
sVrules
p3432
g2
(g6
S'\x0f\x07\x00\x00'
p3433
tp3434
Rp3435
sVproducts
p3436
g2
(g6
S'\x86\x06\x00\x00'
p3437
tp3438
Rp3439
sVray
p3440
g2
(g6
S'\xb3\x06\x00\x00'
p3441
tp3442
Rp3443
sVday
p3444
g2
(g6
S'@\x02\x00\x00'
p3445
tp3446
Rp3447
sVyesterday
p3448
g2
(g6
S'\x99\t\x00\x00'
p3449
tp3450
Rp3451
sValert
p3452
g2
(g6
S'w\x00\x00\x00'
p3453
tp3454
Rp3455
sVstack
p3456
g2
(g6
S'\xf1\x07\x00\x00'
p3457
tp3458
Rp3459
sVspent
p3460
g2
(g6
S'\xe3\x07\x00\x00'
p3461
tp3462
Rp3463
sVpicks
p3464
g2
(g6
S'&\x06\x00\x00'
p3465
tp3466
Rp3467
sVperson
p3468
g2
(g6
S'\x18\x06\x00\x00'
p3469
tp3470
Rp3471
sVswiss
p3472
g2
(g6
S'L\x08\x00\x00'
p3473
tp3474
Rp3475
sV87c
p3476
g2
(g6
S'E\x00\x00\x00'
p3477
tp3478
Rp3479
sVwearable
p3480
g2
(g6
S'@\t\x00\x00'
p3481
tp3482
Rp3483
sVcut
p3484
g2
(g6
S',\x02\x00\x00'
p3485
tp3486
Rp3487
sVcup
p3488
g2
(g6
S'$\x02\x00\x00'
p3489
tp3490
Rp3491
sVsurprises
p3492
g2
(g6
S'@\x08\x00\x00'
p3493
tp3494
Rp3495
sVtfw
p3496
g2
(g6
S'x\x08\x00\x00'
p3497
tp3498
Rp3499
sVsnag
p3500
g2
(g6
S'\xbc\x07\x00\x00'
p3501
tp3502
Rp3503
sVmakers
p3504
g2
(g6
S'!\x05\x00\x00'
p3505
tp3506
Rp3507
sVsource
p3508
g2
(g6
S'\xd9\x07\x00\x00'
p3509
tp3510
Rp3511
sVparents
p3512
g2
(g6
S'\xf8\x05\x00\x00'
p3513
tp3514
Rp3515
sVlocation
p3516
g2
(g6
S'\xfb\x04\x00\x00'
p3517
tp3518
Rp3519
sVhomeland
p3520
g2
(g6
S'1\x04\x00\x00'
p3521
tp3522
Rp3523
sVexcited
p3524
g2
(g6
S'\xf7\x02\x00\x00'
p3525
tp3526
Rp3527
sVsurprised
p3528
g2
(g6
S'?\x08\x00\x00'
p3529
tp3530
Rp3531
sVsmartwatches
p3532
g2
(g6
S'\xb6\x07\x00\x00'
p3533
tp3534
Rp3535
sVbig
p3536
g2
(g6
S'\xf1\x00\x00\x00'
p3537
tp3538
Rp3539
sVcouple
p3540
g2
(g6
S'\n\x02\x00\x00'
p3541
tp3542
Rp3543
sVbib
p3544
g2
(g6
S'\xf0\x00\x00\x00'
p3545
tp3546
Rp3547
sVtweaks
p3548
g2
(g6
S'\xe4\x08\x00\x00'
p3549
tp3550
Rp3551
sVcuteness
p3552
g2
(g6
S'.\x02\x00\x00'
p3553
tp3554
Rp3555
sVfalcon
p3556
g2
(g6
S'\x18\x03\x00\x00'
p3557
tp3558
Rp3559
sVbit
p3560
g2
(g6
S'\xfb\x00\x00\x00'
p3561
tp3562
Rp3563
sVstylish
p3564
g2
(g6
S'+\x08\x00\x00'
p3565
tp3566
Rp3567
sVgoogle
p3568
g2
(g6
S'\xc0\x03\x00\x00'
p3569
tp3570
Rp3571
sVspring
p3572
g2
(g6
S'\xef\x07\x00\x00'
p3573
tp3574
Rp3575
sVmartian
p3576
g2
(g6
S'/\x05\x00\x00'
p3577
tp3578
Rp3579
sVpricing
p3580
g2
(g6
S'x\x06\x00\x00'
p3581
tp3582
Rp3583
sVapply
p3584
g2
(g6
S'\x9b\x00\x00\x00'
p3585
tp3586
Rp3587
sVpen
p3588
g2
(g6
S'\x0f\x06\x00\x00'
p3589
tp3590
Rp3591
sVdating
p3592
g2
(g6
S'?\x02\x00\x00'
p3593
tp3594
Rp3595
sVshooters
p3596
g2
(g6
S'\x80\x07\x00\x00'
p3597
tp3598
Rp3599
sVpatient
p3600
g2
(g6
S'\x02\x06\x00\x00'
p3601
tp3602
Rp3603
sVbb
p3604
g2
(g6
S'\xd4\x00\x00\x00'
p3605
tp3606
Rp3607
sVbo
p3608
g2
(g6
S'\t\x01\x00\x00'
p3609
tp3610
Rp3611
sVagreement
p3612
g2
(g6
S'm\x00\x00\x00'
p3613
tp3614
Rp3615
sVbj
p3616
g2
(g6
S'\xfc\x00\x00\x00'
p3617
tp3618
Rp3619
sVfeelings
p3620
g2
(g6
S'?\x03\x00\x00'
p3621
tp3622
Rp3623
sVbw
p3624
g2
(g6
S'M\x01\x00\x00'
p3625
tp3626
Rp3627
sVsanta
p3628
g2
(g6
S'$\x07\x00\x00'
p3629
tp3630
Rp3631
sVgoods
p3632
g2
(g6
S'\xbf\x03\x00\x00'
p3633
tp3634
Rp3635
sVnetflix
p3636
g2
(g6
S'\xa6\x05\x00\x00'
p3637
tp3638
Rp3639
sVdrama
p3640
g2
(g6
S'\xa3\x02\x00\x00'
p3641
tp3642
Rp3643
sVdeserves
p3644
g2
(g6
S'_\x02\x00\x00'
p3645
tp3646
Rp3647
sVlesson
p3648
g2
(g6
S'\xdc\x04\x00\x00'
p3649
tp3650
Rp3651
sVcustom
p3652
g2
(g6
S"'\x02\x00\x00"
p3653
tp3654
Rp3655
sVinfected
p3656
g2
(g6
S'a\x04\x00\x00'
p3657
tp3658
Rp3659
sVsuit
p3660
g2
(g6
S'1\x08\x00\x00'
p3661
tp3662
Rp3663
sVforward
p3664
g2
(g6
S't\x03\x00\x00'
p3665
tp3666
Rp3667
sVbored
p3668
g2
(g6
S'\x19\x01\x00\x00'
p3669
tp3670
Rp3671
sVopens
p3672
g2
(g6
S'\xd5\x05\x00\x00'
p3673
tp3674
Rp3675
sVposter
p3676
g2
(g6
S'[\x06\x00\x00'
p3677
tp3678
Rp3679
sVatlantic
p3680
g2
(g6
S'\xab\x00\x00\x00'
p3681
tp3682
Rp3683
sVdon
p3684
g2
(g6
S'\x98\x02\x00\x00'
p3685
tp3686
Rp3687
sVline
p3688
g2
(g6
S'\xec\x04\x00\x00'
p3689
tp3690
Rp3691
sVdirected
p3692
g2
(g6
S'|\x02\x00\x00'
p3693
tp3694
Rp3695
sVplanet
p3696
g2
(g6
S'A\x06\x00\x00'
p3697
tp3698
Rp3699
sVexploration
p3700
g2
(g6
S'\x08\x03\x00\x00'
p3701
tp3702
Rp3703
sVautonomous
p3704
g2
(g6
S'\xb2\x00\x00\x00'
p3705
tp3706
Rp3707
sValarm
p3708
g2
(g6
S't\x00\x00\x00'
p3709
tp3710
Rp3711
sVshowtime
p3712
g2
(g6
S'\x8c\x07\x00\x00'
p3713
tp3714
Rp3715
sVglobally
p3716
g2
(g6
S'\xad\x03\x00\x00'
p3717
tp3718
Rp3719
sVsingle
p3720
g2
(g6
S'\x9a\x07\x00\x00'
p3721
tp3722
Rp3723
sVcure
p3724
g2
(g6
S'%\x02\x00\x00'
p3725
tp3726
Rp3727
sVchat
p3728
g2
(g6
S'\x94\x01\x00\x00'
p3729
tp3730
Rp3731
sVwork
p3732
g2
(g6
S'x\t\x00\x00'
p3733
tp3734
Rp3735
sVdefinitely
p3736
g2
(g6
S'K\x02\x00\x00'
p3737
tp3738
Rp3739
sVdungarees
p3740
g2
(g6
S'\xb7\x02\x00\x00'
p3741
tp3742
Rp3743
sVfavourite
p3744
g2
(g6
S'2\x03\x00\x00'
p3745
tp3746
Rp3747
sVrobots
p3748
g2
(g6
S'\xfa\x06\x00\x00'
p3749
tp3750
Rp3751
sVprepared
p3752
g2
(g6
S'm\x06\x00\x00'
p3753
tp3754
Rp3755
sVsmartthings
p3756
g2
(g6
S'\xb4\x07\x00\x00'
p3757
tp3758
Rp3759
sVsides
p3760
g2
(g6
S'\x91\x07\x00\x00'
p3761
tp3762
Rp3763
sVago
p3764
g2
(g6
S'k\x00\x00\x00'
p3765
tp3766
Rp3767
sValgorithm
p3768
g2
(g6
S'y\x00\x00\x00'
p3769
tp3770
Rp3771
sVcooker
p3772
g2
(g6
S'\xf4\x01\x00\x00'
p3773
tp3774
Rp3775
sVage
p3776
g2
(g6
S'j\x00\x00\x00'
p3777
tp3778
Rp3779
sV2003
p3780
g2
(g6
S' \x00\x00\x00'
p3781
tp3782
Rp3783
sVbeverage
p3784
g2
(g6
S'\xed\x00\x00\x00'
p3785
tp3786
Rp3787
sVfresh
p3788
g2
(g6
S'z\x03\x00\x00'
p3789
tp3790
Rp3791
sVhello
p3792
g2
(g6
S'\x10\x04\x00\x00'
p3793
tp3794
Rp3795
sVcode
p3796
g2
(g6
S'\xc4\x01\x00\x00'
p3797
tp3798
Rp3799
sVjason
p3800
g2
(g6
S'\x87\x04\x00\x00'
p3801
tp3802
Rp3803
sVhint
p3804
g2
(g6
S'$\x04\x00\x00'
p3805
tp3806
Rp3807
sVhunger
p3808
g2
(g6
S'J\x04\x00\x00'
p3809
tp3810
Rp3811
sVyoung
p3812
g2
(g6
S'\x9d\t\x00\x00'
p3813
tp3814
Rp3815
sVsend
p3816
g2
(g6
S'Y\x07\x00\x00'
p3817
tp3818
Rp3819
sVhelps
p3820
g2
(g6
S'\x14\x04\x00\x00'
p3821
tp3822
Rp3823
sVdislike
p3824
g2
(g6
S'\x85\x02\x00\x00'
p3825
tp3826
Rp3827
sVlabels
p3828
g2
(g6
S'\xbe\x04\x00\x00'
p3829
tp3830
Rp3831
sVdessert
p3832
g2
(g6
S'c\x02\x00\x00'
p3833
tp3834
Rp3835
sVcontinues
p3836
g2
(g6
S'\xef\x01\x00\x00'
p3837
tp3838
Rp3839
sVmixing
p3840
g2
(g6
S'h\x05\x00\x00'
p3841
tp3842
Rp3843
sVanimals
p3844
g2
(g6
S'\x88\x00\x00\x00'
p3845
tp3846
Rp3847
sVentire
p3848
g2
(g6
S'\xe3\x02\x00\x00'
p3849
tp3850
Rp3851
sVmagic
p3852
g2
(g6
S'\x19\x05\x00\x00'
p3853
tp3854
Rp3855
sVexperiencing
p3856
g2
(g6
S'\x04\x03\x00\x00'
p3857
tp3858
Rp3859
sVtry
p3860
g2
(g6
S'\xd4\x08\x00\x00'
p3861
tp3862
Rp3863
sVrace
p3864
g2
(g6
S'\xad\x06\x00\x00'
p3865
tp3866
Rp3867
sVhavent
p3868
g2
(g6
S'\xfb\x03\x00\x00'
p3869
tp3870
Rp3871
sVvideo
p3872
g2
(g6
S'\x17\t\x00\x00'
p3873
tp3874
Rp3875
sVchicago
p3876
g2
(g6
S'\x9d\x01\x00\x00'
p3877
tp3878
Rp3879
sVgiving
p3880
g2
(g6
S'\xaa\x03\x00\x00'
p3881
tp3882
Rp3883
sVaccess
p3884
g2
(g6
S'M\x00\x00\x00'
p3885
tp3886
Rp3887
sVbird
p3888
g2
(g6
S'\xf8\x00\x00\x00'
p3889
tp3890
Rp3891
sV3d
p3892
g2
(g6
S'2\x00\x00\x00'
p3893
tp3894
Rp3895
sVgathered
p3896
g2
(g6
S'\x95\x03\x00\x00'
p3897
tp3898
Rp3899
sVdelivering
p3900
g2
(g6
S'S\x02\x00\x00'
p3901
tp3902
Rp3903
sVsing
p3904
g2
(g6
S'\x99\x07\x00\x00'
p3905
tp3906
Rp3907
sVgreat
p3908
g2
(g6
S'\xca\x03\x00\x00'
p3909
tp3910
Rp3911
sVlitchfield
p3912
g2
(g6
S'\xf3\x04\x00\x00'
p3913
tp3914
Rp3915
sV31
p3916
g2
(g6
S'.\x00\x00\x00'
p3917
tp3918
Rp3919
sV30
p3920
g2
(g6
S',\x00\x00\x00'
p3921
tp3922
Rp3923
sV37
p3924
g2
(g6
S'1\x00\x00\x00'
p3925
tp3926
Rp3927
sV35
p3928
g2
(g6
S'/\x00\x00\x00'
p3929
tp3930
Rp3931
sVsurvey
p3932
g2
(g6
S'B\x08\x00\x00'
p3933
tp3934
Rp3935
sVsword
p3936
g2
(g6
S'O\x08\x00\x00'
p3937
tp3938
Rp3939
sVpopcorn
p3940
g2
(g6
S'V\x06\x00\x00'
p3941
tp3942
Rp3943
sVmakes
p3944
g2
(g6
S'"\x05\x00\x00'
p3945
tp3946
Rp3947
sVgrower
p3948
g2
(g6
S'\xd3\x03\x00\x00'
p3949
tp3950
Rp3951
sVthats
p3952
g2
(g6
S'}\x08\x00\x00'
p3953
tp3954
Rp3955
sVnamed
p3956
g2
(g6
S'\x95\x05\x00\x00'
p3957
tp3958
Rp3959
sVsiri
p3960
g2
(g6
S'\x9d\x07\x00\x00'
p3961
tp3962
Rp3963
sVresolutions
p3964
g2
(g6
S'\xdf\x06\x00\x00'
p3965
tp3966
Rp3967
sVsugar
p3968
g2
(g6
S'.\x08\x00\x00'
p3969
tp3970
Rp3971
sVtools
p3972
g2
(g6
S'\xa5\x08\x00\x00'
p3973
tp3974
Rp3975
sVconfidence
p3976
g2
(g6
S'\xe5\x01\x00\x00'
p3977
tp3978
Rp3979
sVflat
p3980
g2
(g6
S']\x03\x00\x00'
p3981
tp3982
Rp3983
sVdoubt
p3984
g2
(g6
S'\x9e\x02\x00\x00'
p3985
tp3986
Rp3987
sVupcoming
p3988
g2
(g6
S'\xf7\x08\x00\x00'
p3989
tp3990
Rp3991
sVtax
p3992
g2
(g6
S'h\x08\x00\x00'
p3993
tp3994
Rp3995
sVtrail
p3996
g2
(g6
S'\xb2\x08\x00\x00'
p3997
tp3998
Rp3999
sVprizes
p4000
g2
(g6
S'\x80\x06\x00\x00'
p4001
tp4002
Rp4003
sVbaby
p4004
g2
(g6
S'\xbd\x00\x00\x00'
p4005
tp4006
Rp4007
sVcustomer
p4008
g2
(g6
S'(\x02\x00\x00'
p4009
tp4010
Rp4011
sVaccount
p4012
g2
(g6
S'Q\x00\x00\x00'
p4013
tp4014
Rp4015
sVchallenge
p4016
g2
(g6
S'\x87\x01\x00\x00'
p4017
tp4018
Rp4019
sVfetch
p4020
g2
(g6
S'C\x03\x00\x00'
p4021
tp4022
Rp4023
sVproportions
p4024
g2
(g6
S'\x8b\x06\x00\x00'
p4025
tp4026
Rp4027
sVpieces
p4028
g2
(g6
S'.\x06\x00\x00'
p4029
tp4030
Rp4031
sVhigh
p4032
g2
(g6
S'!\x04\x00\x00'
p4033
tp4034
Rp4035
sVpaws
p4036
g2
(g6
S'\x07\x06\x00\x00'
p4037
tp4038
Rp4039
sVformations
p4040
g2
(g6
S'r\x03\x00\x00'
p4041
tp4042
Rp4043
sVwinners
p4044
g2
(g6
S'c\t\x00\x00'
p4045
tp4046
Rp4047
sVmysteries
p4048
g2
(g6
S'\x92\x05\x00\x00'
p4049
tp4050
Rp4051
sVcomedy
p4052
g2
(g6
S'\xd2\x01\x00\x00'
p4053
tp4054
Rp4055
sVstock
p4056
g2
(g6
S'\x0f\x08\x00\x00'
p4057
tp4058
Rp4059
sVprofile
p4060
g2
(g6
S'\x87\x06\x00\x00'
p4061
tp4062
Rp4063
sVcollection
p4064
g2
(g6
S'\xc9\x01\x00\x00'
p4065
tp4066
Rp4067
sVos
p4068
g2
(g6
S'\xe2\x05\x00\x00'
p4069
tp4070
Rp4071
sVbing
p4072
g2
(g6
S'\xf6\x00\x00\x00'
p4073
tp4074
Rp4075
sVsit
p4076
g2
(g6
S'\x9e\x07\x00\x00'
p4077
tp4078
Rp4079
sVlines
p4080
g2
(g6
S'\xed\x04\x00\x00'
p4081
tp4082
Rp4083
sVrobot
p4084
g2
(g6
S'\xf9\x06\x00\x00'
p4085
tp4086
Rp4087
sVtackle
p4088
g2
(g6
S'T\x08\x00\x00'
p4089
tp4090
Rp4091
sVkrabby
p4092
g2
(g6
S'\xbd\x04\x00\x00'
p4093
tp4094
Rp4095
sVhappiest
p4096
g2
(g6
S'\xf0\x03\x00\x00'
p4097
tp4098
Rp4099
sVgalaxy
p4100
g2
(g6
S'\x8e\x03\x00\x00'
p4101
tp4102
Rp4103
sVperfect
p4104
g2
(g6
S'\x14\x06\x00\x00'
p4105
tp4106
Rp4107
sVlb
p4108
g2
(g6
S'\xd0\x04\x00\x00'
p4109
tp4110
Rp4111
sVll
p4112
g2
(g6
S'\xf8\x04\x00\x00'
p4113
tp4114
Rp4115
sVlabor
p4116
g2
(g6
S'\xbf\x04\x00\x00'
p4117
tp4118
Rp4119
sV2015
p4120
g2
(g6
S'!\x00\x00\x00'
p4121
tp4122
Rp4123
sV2016
p4124
g2
(g6
S'"\x00\x00\x00'
p4125
tp4126
Rp4127
sVhealth
p4128
g2
(g6
S'\x03\x04\x00\x00'
p4129
tp4130
Rp4131
sVdad
p4132
g2
(g6
S'4\x02\x00\x00'
p4133
tp4134
Rp4135
sVdan
p4136
g2
(g6
S'7\x02\x00\x00'
p4137
tp4138
Rp4139
sVcutting
p4140
g2
(g6
S'1\x02\x00\x00'
p4141
tp4142
Rp4143
sVsay
p4144
g2
(g6
S'.\x07\x00\x00'
p4145
tp4146
Rp4147
sVrotation
p4148
g2
(g6
S'\x03\x07\x00\x00'
p4149
tp4150
Rp4151
sVrealize
p4152
g2
(g6
S'\xb8\x06\x00\x00'
p4153
tp4154
Rp4155
sVminimalist
p4156
g2
(g6
S'\\\x05\x00\x00'
p4157
tp4158
Rp4159
sVwrangler
p4160
g2
(g6
S'\x86\t\x00\x00'
p4161
tp4162
Rp4163
sVfrittata
p4164
g2
(g6
S'\x85\x03\x00\x00'
p4165
tp4166
Rp4167
sVdoing
p4168
g2
(g6
S'\x95\x02\x00\x00'
p4169
tp4170
Rp4171
sVstrip
p4172
g2
(g6
S'\x1f\x08\x00\x00'
p4173
tp4174
Rp4175
sVbooks
p4176
g2
(g6
S'\x15\x01\x00\x00'
p4177
tp4178
Rp4179
sVdisco
p4180
g2
(g6
S'\x7f\x02\x00\x00'
p4181
tp4182
Rp4183
sVdesert
p4184
g2
(g6
S'^\x02\x00\x00'
p4185
tp4186
Rp4187
sVred
p4188
g2
(g6
S'\xc5\x06\x00\x00'
p4189
tp4190
Rp4191
sVbubbly
p4192
g2
(g6
S'9\x01\x00\x00'
p4193
tp4194
Rp4195
sVtemps
p4196
g2
(g6
S's\x08\x00\x00'
p4197
tp4198
Rp4199
sVban
p4200
g2
(g6
S'\xcb\x00\x00\x00'
p4201
tp4202
Rp4203
sVnationwidecheck
p4204
g2
(g6
S'\x9c\x05\x00\x00'
p4205
tp4206
Rp4207
sVcraving
p4208
g2
(g6
S'\x16\x02\x00\x00'
p4209
tp4210
Rp4211
sVscary
p4212
g2
(g6
S'5\x07\x00\x00'
p4213
tp4214
Rp4215
sVgifting
p4216
g2
(g6
S'\xa2\x03\x00\x00'
p4217
tp4218
Rp4219
sVrecipes
p4220
g2
(g6
S'\xc1\x06\x00\x00'
p4221
tp4222
Rp4223
sVscare
p4224
g2
(g6
S'2\x07\x00\x00'
p4225
tp4226
Rp4227
sVscarf
p4228
g2
(g6
S'3\x07\x00\x00'
p4229
tp4230
Rp4231
sVscene
p4232
g2
(g6
S'6\x07\x00\x00'
p4233
tp4234
Rp4235
sVowned
p4236
g2
(g6
S'\xea\x05\x00\x00'
p4237
tp4238
Rp4239
sVscent
p4240
g2
(g6
S'8\x07\x00\x00'
p4241
tp4242
Rp4243
sVfestival
p4244
g2
(g6
S'B\x03\x00\x00'
p4245
tp4246
Rp4247
sVlaps
p4248
g2
(g6
S'\xc2\x04\x00\x00'
p4249
tp4250
Rp4251
sVlot
p4252
g2
(g6
S'\x06\x05\x00\x00'
p4253
tp4254
Rp4255
sV1et
p4256
g2
(g6
S'\x1b\x00\x00\x00'
p4257
tp4258
Rp4259
sVhaven
p4260
g2
(g6
S'\xfa\x03\x00\x00'
p4261
tp4262
Rp4263
sVloved
p4264
g2
(g6
S'\t\x05\x00\x00'
p4265
tp4266
Rp4267
sVroulette
p4268
g2
(g6
S'\x05\x07\x00\x00'
p4269
tp4270
Rp4271
sVgiphy
p4272
g2
(g6
S'\xa5\x03\x00\x00'
p4273
tp4274
Rp4275
sVloves
p4276
g2
(g6
S'\x0c\x05\x00\x00'
p4277
tp4278
Rp4279
sVurrl
p4280
g2
(g6
S'\x00\t\x00\x00'
p4281
tp4282
Rp4283
sVtonight
p4284
g2
(g6
S'\xa1\x08\x00\x00'
p4285
tp4286
Rp4287
sVmornings
p4288
g2
(g6
S'z\x05\x00\x00'
p4289
tp4290
Rp4291
sVhandsets
p4292
g2
(g6
S'\xe9\x03\x00\x00'
p4293
tp4294
Rp4295
sVcongrats
p4296
g2
(g6
S'\xe6\x01\x00\x00'
p4297
tp4298
Rp4299
sVwaffles
p4300
g2
(g6
S"'\t\x00\x00"
p4301
tp4302
Rp4303
sVmix
p4304
g2
(g6
S'f\x05\x00\x00'
p4305
tp4306
Rp4307
sVunless
p4308
g2
(g6
S'\xf3\x08\x00\x00'
p4309
tp4310
Rp4311
sVreindeer
p4312
g2
(g6
S'\xce\x06\x00\x00'
p4313
tp4314
Rp4315
sVcourtesy
p4316
g2
(g6
S'\x0f\x02\x00\x00'
p4317
tp4318
Rp4319
sVsaid
p4320
g2
(g6
S'\x19\x07\x00\x00'
p4321
tp4322
Rp4323
sVdevice
p4324
g2
(g6
S'j\x02\x00\x00'
p4325
tp4326
Rp4327
sVpayment
p4328
g2
(g6
S'\t\x06\x00\x00'
p4329
tp4330
Rp4331
sVstronger
p4332
g2
(g6
S'!\x08\x00\x00'
p4333
tp4334
Rp4335
sVthanksgiving
p4336
g2
(g6
S'|\x08\x00\x00'
p4337
tp4338
Rp4339
sVface
p4340
g2
(g6
S'\x12\x03\x00\x00'
p4341
tp4342
Rp4343
sVoccasion
p4344
g2
(g6
S'\xc5\x05\x00\x00'
p4345
tp4346
Rp4347
sVfact
p4348
g2
(g6
S'\x15\x03\x00\x00'
p4349
tp4350
Rp4351
sVatmosphere
p4352
g2
(g6
S'\xac\x00\x00\x00'
p4353
tp4354
Rp4355
sVbring
p4356
g2
(g6
S'/\x01\x00\x00'
p4357
tp4358
Rp4359
sVbedroom
p4360
g2
(g6
S'\xe1\x00\x00\x00'
p4361
tp4362
Rp4363
sVrough
p4364
g2
(g6
S'\x04\x07\x00\x00'
p4365
tp4366
Rp4367
sV5pm
p4368
g2
(g6
S':\x00\x00\x00'
p4369
tp4370
Rp4371
sVknowledge
p4372
g2
(g6
S'\xb9\x04\x00\x00'
p4373
tp4374
Rp4375
sVpurchs
p4376
g2
(g6
S'\x9a\x06\x00\x00'
p4377
tp4378
Rp4379
sVprinters
p4380
g2
(g6
S'z\x06\x00\x00'
p4381
tp4382
Rp4383
sVspice
p4384
g2
(g6
S'\xe4\x07\x00\x00'
p4385
tp4386
Rp4387
sVhope
p4388
g2
(g6
S'7\x04\x00\x00'
p4389
tp4390
Rp4391
sVmeant
p4392
g2
(g6
S'>\x05\x00\x00'
p4393
tp4394
Rp4395
sVhandle
p4396
g2
(g6
S'\xe7\x03\x00\x00'
p4397
tp4398
Rp4399
sVmeans
p4400
g2
(g6
S'=\x05\x00\x00'
p4401
tp4402
Rp4403
sVbeat
p4404
g2
(g6
S'\xda\x00\x00\x00'
p4405
tp4406
Rp4407
sVfamiliar
p4408
g2
(g6
S'\x1c\x03\x00\x00'
p4409
tp4410
Rp4411
sVlucky
p4412
g2
(g6
S'\x0f\x05\x00\x00'
p4413
tp4414
Rp4415
sVbear
p4416
g2
(g6
S'\xd8\x00\x00\x00'
p4417
tp4418
Rp4419
sVbean
p4420
g2
(g6
S'\xd7\x00\x00\x00'
p4421
tp4422
Rp4423
sVperfection
p4424
g2
(g6
S'\x15\x06\x00\x00'
p4425
tp4426
Rp4427
sVtiming
p4428
g2
(g6
S'\x98\x08\x00\x00'
p4429
tp4430
Rp4431
sVsmash
p4432
g2
(g6
S'\xb7\x07\x00\x00'
p4433
tp4434
Rp4435
sVtaxes
p4436
g2
(g6
S'i\x08\x00\x00'
p4437
tp4438
Rp4439
sVcalling
p4440
g2
(g6
S'T\x01\x00\x00'
p4441
tp4442
Rp4443
sVstuff
p4444
g2
(g6
S"'\x08\x00\x00"
p4445
tp4446
Rp4447
sVussernms
p4448
g2
(g6
S'\n\t\x00\x00'
p4449
tp4450
Rp4451
sVturkeys
p4452
g2
(g6
S'\xdd\x08\x00\x00'
p4453
tp4454
Rp4455
sVnational
p4456
g2
(g6
S'\x9b\x05\x00\x00'
p4457
tp4458
Rp4459
sVshowdown
p4460
g2
(g6
S'\x88\x07\x00\x00'
p4461
tp4462
Rp4463
sVtravis
p4464
g2
(g6
S'\xb9\x08\x00\x00'
p4465
tp4466
Rp4467
sVpacked
p4468
g2
(g6
S'\xef\x05\x00\x00'
p4469
tp4470
Rp4471
sVinnovator
p4472
g2
(g6
S'c\x04\x00\x00'
p4473
tp4474
Rp4475
sVsuperhero
p4476
g2
(g6
S'7\x08\x00\x00'
p4477
tp4478
Rp4479
sVhelped
p4480
g2
(g6
S'\x12\x04\x00\x00'
p4481
tp4482
Rp4483
sVyoull
p4484
g2
(g6
S'\x9c\t\x00\x00'
p4485
tp4486
Rp4487
sVends
p4488
g2
(g6
S'\xd9\x02\x00\x00'
p4489
tp4490
Rp4491
sVdeliver
p4492
g2
(g6
S'P\x02\x00\x00'
p4493
tp4494
Rp4495
sVoptional
p4496
g2
(g6
S'\xd7\x05\x00\x00'
p4497
tp4498
Rp4499
sVinstant
p4500
g2
(g6
S'k\x04\x00\x00'
p4501
tp4502
Rp4503
sVtaking
p4504
g2
(g6
S'\\\x08\x00\x00'
p4505
tp4506
Rp4507
sVagree
p4508
g2
(g6
S'l\x00\x00\x00'
p4509
tp4510
Rp4511
sVcj
p4512
g2
(g6
S'\xae\x01\x00\x00'
p4513
tp4514
Rp4515
sVch
p4516
g2
(g6
S'\x84\x01\x00\x00'
p4517
tp4518
Rp4519
sVcc
p4520
g2
(g6
S'x\x01\x00\x00'
p4521
tp4522
Rp4523
sVdenim
p4524
g2
(g6
S'Y\x02\x00\x00'
p4525
tp4526
Rp4527
sVlaugh
p4528
g2
(g6
S'\xcc\x04\x00\x00'
p4529
tp4530
Rp4531
sVnews
p4532
g2
(g6
S'\xac\x05\x00\x00'
p4533
tp4534
Rp4535
sVwinning
p4536
g2
(g6
S'd\t\x00\x00'
p4537
tp4538
Rp4539
sVpowered
p4540
g2
(g6
S'c\x06\x00\x00'
p4541
tp4542
Rp4543
sVmuddy
p4544
g2
(g6
S'\x8a\x05\x00\x00'
p4545
tp4546
Rp4547
sVhottest
p4548
g2
(g6
S'?\x04\x00\x00'
p4549
tp4550
Rp4551
sVfinale
p4552
g2
(g6
S'M\x03\x00\x00'
p4553
tp4554
Rp4555
sVfinished
p4556
g2
(g6
S'U\x03\x00\x00'
p4557
tp4558
Rp4559
sVmulti
p4560
g2
(g6
S'\x8b\x05\x00\x00'
p4561
tp4562
Rp4563
sVplaid
p4564
g2
(g6
S'=\x06\x00\x00'
p4565
tp4566
Rp4567
sVcrowds
p4568
g2
(g6
S'!\x02\x00\x00'
p4569
tp4570
Rp4571
sVultra
p4572
g2
(g6
S'\xeb\x08\x00\x00'
p4573
tp4574
Rp4575
sVva
p4576
g2
(g6
S'\x0c\t\x00\x00'
p4577
tp4578
Rp4579
sVve
p4580
g2
(g6
S'\x0e\t\x00\x00'
p4581
tp4582
Rp4583
sVsite
p4584
g2
(g6
S'\x9f\x07\x00\x00'
p4585
tp4586
Rp4587
sVvr
p4588
g2
(g6
S'%\t\x00\x00'
p4589
tp4590
Rp4591
sVvs
p4592
g2
(g6
S'&\t\x00\x00'
p4593
tp4594
Rp4595
sVvire
p4596
g2
(g6
S' \t\x00\x00'
p4597
tp4598
Rp4599
sVpartner
p4600
g2
(g6
S'\xfb\x05\x00\x00'
p4601
tp4602
Rp4603
sVdiets
p4604
g2
(g6
S's\x02\x00\x00'
p4605
tp4606
Rp4607
sVpaulo
p4608
g2
(g6
S'\x06\x06\x00\x00'
p4609
tp4610
Rp4611
sVdigital
p4612
g2
(g6
S'w\x02\x00\x00'
p4613
tp4614
Rp4615
sVgames
p4616
g2
(g6
S'\x91\x03\x00\x00'
p4617
tp4618
Rp4619
sVandroid
p4620
g2
(g6
S'\x85\x00\x00\x00'
p4621
tp4622
Rp4623
sVball
p4624
g2
(g6
S'\xca\x00\x00\x00'
p4625
tp4626
Rp4627
sVdrink
p4628
g2
(g6
S'\xab\x02\x00\x00'
p4629
tp4630
Rp4631
sVios
p4632
g2
(g6
S'u\x04\x00\x00'
p4633
tp4634
Rp4635
sVblockers
p4636
g2
(g6
S'\x02\x01\x00\x00'
p4637
tp4638
Rp4639
sVcenter
p4640
g2
(g6
S'\x7f\x01\x00\x00'
p4641
tp4642
Rp4643
sVthought
p4644
g2
(g6
S'\x89\x08\x00\x00'
p4645
tp4646
Rp4647
sVsets
p4648
g2
(g6
S'e\x07\x00\x00'
p4649
tp4650
Rp4651
sVlatest
p4652
g2
(g6
S'\xca\x04\x00\x00'
p4653
tp4654
Rp4655
sVny
p4656
g2
(g6
S'\xbf\x05\x00\x00'
p4657
tp4658
Rp4659
sVnewest
p4660
g2
(g6
S'\xab\x05\x00\x00'
p4661
tp4662
Rp4663
sVmoments
p4664
g2
(g6
S'p\x05\x00\x00'
p4665
tp4666
Rp4667
sVpaul
p4668
g2
(g6
S'\x05\x06\x00\x00'
p4669
tp4670
Rp4671
sVweb
p4672
g2
(g6
S'D\t\x00\x00'
p4673
tp4674
Rp4675
sVads
p4676
g2
(g6
S'b\x00\x00\x00'
p4677
tp4678
Rp4679
sVadd
p4680
g2
(g6
S'Z\x00\x00\x00'
p4681
tp4682
Rp4683
sVcombine
p4684
g2
(g6
S'\xce\x01\x00\x00'
p4685
tp4686
Rp4687
sVfuji
p4688
g2
(g6
S'\x88\x03\x00\x00'
p4689
tp4690
Rp4691
sVpies
p4692
g2
(g6
S'/\x06\x00\x00'
p4693
tp4694
Rp4695
sVdubai
p4696
g2
(g6
S'\xb5\x02\x00\x00'
p4697
tp4698
Rp4699
sVmotorola
p4700
g2
(g6
S'}\x05\x00\x00'
p4701
tp4702
Rp4703
sVcrisp
p4704
g2
(g6
S'\x1f\x02\x00\x00'
p4705
tp4706
Rp4707
sVlike
p4708
g2
(g6
S'\xe8\x04\x00\x00'
p4709
tp4710
Rp4711
sVgarage
p4712
g2
(g6
S'\x94\x03\x00\x00'
p4713
tp4714
Rp4715
sVworks
p4716
g2
(g6
S'|\t\x00\x00'
p4717
tp4718
Rp4719
sVyouve
p4720
g2
(g6
S'\x9f\t\x00\x00'
p4721
tp4722
Rp4723
sVhair
p4724
g2
(g6
S'\xdf\x03\x00\x00'
p4725
tp4726
Rp4727
sVbrian
p4728
g2
(g6
S'+\x01\x00\x00'
p4729
tp4730
Rp4731
sVhappens
p4732
g2
(g6
S'\xef\x03\x00\x00'
p4733
tp4734
Rp4735
sVavoid
p4736
g2
(g6
S'\xb7\x00\x00\x00'
p4737
tp4738
Rp4739
sVfedex
p4740
g2
(g6
S';\x03\x00\x00'
p4741
tp4742
Rp4743
sVdoes
p4744
g2
(g6
S'\x91\x02\x00\x00'
p4745
tp4746
Rp4747
sVsnuggle
p4748
g2
(g6
S'\xc0\x07\x00\x00'
p4749
tp4750
Rp4751
sVproud
p4752
g2
(g6
S'\x8c\x06\x00\x00'
p4753
tp4754
Rp4755
sVschedule
p4756
g2
(g6
S'9\x07\x00\x00'
p4757
tp4758
Rp4759
sVstellar
p4760
g2
(g6
S'\t\x08\x00\x00'
p4761
tp4762
Rp4763
sVpressure
p4764
g2
(g6
S's\x06\x00\x00'
p4765
tp4766
Rp4767
sVhost
p4768
g2
(g6
S';\x04\x00\x00'
p4769
tp4770
Rp4771
sVstage
p4772
g2
(g6
S'\xf2\x07\x00\x00'
p4773
tp4774
Rp4775
sVlifestyle
p4776
g2
(g6
S'\xe5\x04\x00\x00'
p4777
tp4778
Rp4779
sVimportant
p4780
g2
(g6
S'X\x04\x00\x00'
p4781
tp4782
Rp4783
sVsoftware
p4784
g2
(g6
S'\xc5\x07\x00\x00'
p4785
tp4786
Rp4787
sVletters
p4788
g2
(g6
S'\xe0\x04\x00\x00'
p4789
tp4790
Rp4791
sVbackcountry
p4792
g2
(g6
S'\xbf\x00\x00\x00'
p4793
tp4794
Rp4795
sVchris
p4796
g2
(g6
S'\xa7\x01\x00\x00'
p4797
tp4798
Rp4799
sVdoesnt
p4800
g2
(g6
S'\x93\x02\x00\x00'
p4801
tp4802
Rp4803
sVroads
p4804
g2
(g6
S'\xf5\x06\x00\x00'
p4805
tp4806
Rp4807
sV1982
p4808
g2
(g6
S'\x1a\x00\x00\x00'
p4809
tp4810
Rp4811
sVannette
p4812
g2
(g6
S'\x8a\x00\x00\x00'
p4813
tp4814
Rp4815
sVyrs
p4816
g2
(g6
S'\xa0\t\x00\x00'
p4817
tp4818
Rp4819
sVlaredo
p4820
g2
(g6
S'\xc5\x04\x00\x00'
p4821
tp4822
Rp4823
sVhotspots
p4824
g2
(g6
S'>\x04\x00\x00'
p4825
tp4826
Rp4827
sVivory
p4828
g2
(g6
S'\x80\x04\x00\x00'
p4829
tp4830
Rp4831
sVbuy
p4832
g2
(g6
S'I\x01\x00\x00'
p4833
tp4834
Rp4835
sVsteelbook
p4836
g2
(g6
S'\x07\x08\x00\x00'
p4837
tp4838
Rp4839
sVsequel
p4840
g2
(g6
S']\x07\x00\x00'
p4841
tp4842
Rp4843
sVsantas
p4844
g2
(g6
S'%\x07\x00\x00'
p4845
tp4846
Rp4847
sVstrengths
p4848
g2
(g6
S'\x1d\x08\x00\x00'
p4849
tp4850
Rp4851
sVdelivery
p4852
g2
(g6
S'T\x02\x00\x00'
p4853
tp4854
Rp4855
sVgrate
p4856
g2
(g6
S'\xc8\x03\x00\x00'
p4857
tp4858
Rp4859
sVentered
p4860
g2
(g6
S'\xe1\x02\x00\x00'
p4861
tp4862
Rp4863
sVcount
p4864
g2
(g6
S'\x06\x02\x00\x00'
p4865
tp4866
Rp4867
sVwise
p4868
g2
(g6
S'h\t\x00\x00'
p4869
tp4870
Rp4871
sVplaces
p4872
g2
(g6
S'<\x06\x00\x00'
p4873
tp4874
Rp4875
sVwish
p4876
g2
(g6
S'i\t\x00\x00'
p4877
tp4878
Rp4879
sVofficial
p4880
g2
(g6
S'\xcb\x05\x00\x00'
p4881
tp4882
Rp4883
sVflip
p4884
g2
(g6
S'b\x03\x00\x00'
p4885
tp4886
Rp4887
sVminutes
p4888
g2
(g6
S'^\x05\x00\x00'
p4889
tp4890
Rp4891
sVtricks
p4892
g2
(g6
S'\xc3\x08\x00\x00'
p4893
tp4894
Rp4895
sVpin
p4896
g2
(g6
S'3\x06\x00\x00'
p4897
tp4898
Rp4899
sVrecognize
p4900
g2
(g6
S'\xc2\x06\x00\x00'
p4901
tp4902
Rp4903
sVpie
p4904
g2
(g6
S',\x06\x00\x00'
p4905
tp4906
Rp4907
sVpig
p4908
g2
(g6
S'0\x06\x00\x00'
p4909
tp4910
Rp4911
sVink
p4912
g2
(g6
S'b\x04\x00\x00'
p4913
tp4914
Rp4915
sVjesse
p4916
g2
(g6
S'\x8e\x04\x00\x00'
p4917
tp4918
Rp4919
sV40
p4920
g2
(g6
S'4\x00\x00\x00'
p4921
tp4922
Rp4923
sVdetails
p4924
g2
(g6
S'g\x02\x00\x00'
p4925
tp4926
Rp4927
sVhandcrafted
p4928
g2
(g6
S'\xe6\x03\x00\x00'
p4929
tp4930
Rp4931
sVmonday
p4932
g2
(g6
S'r\x05\x00\x00'
p4933
tp4934
Rp4935
sVclass
p4936
g2
(g6
S'\xb1\x01\x00\x00'
p4937
tp4938
Rp4939
sVbundle
p4940
g2
(g6
S'B\x01\x00\x00'
p4941
tp4942
Rp4943
sVchance
p4944
g2
(g6
S'\x88\x01\x00\x00'
p4945
tp4946
Rp4947
sVbadass
p4948
g2
(g6
S'\xc3\x00\x00\x00'
p4949
tp4950
Rp4951
sVinspiration
p4952
g2
(g6
S'e\x04\x00\x00'
p4953
tp4954
Rp4955
sVkardashian
p4956
g2
(g6
S'\xa1\x04\x00\x00'
p4957
tp4958
Rp4959
sVrule
p4960
g2
(g6
S'\x0e\x07\x00\x00'
p4961
tp4962
Rp4963
sV4k
p4964
g2
(g6
S'6\x00\x00\x00'
p4965
tp4966
Rp4967
sVsearched
p4968
g2
(g6
S'E\x07\x00\x00'
p4969
tp4970
Rp4971
sVlimited
p4972
g2
(g6
S'\xeb\x04\x00\x00'
p4973
tp4974
Rp4975
sVsleep
p4976
g2
(g6
S'\xa9\x07\x00\x00'
p4977
tp4978
Rp4979
sVforget
p4980
g2
(g6
S'o\x03\x00\x00'
p4981
tp4982
Rp4983
sVtweet
p4984
g2
(g6
S'\xe5\x08\x00\x00'
p4985
tp4986
Rp4987
sVbike
p4988
g2
(g6
S'\xf3\x00\x00\x00'
p4989
tp4990
Rp4991
sVworth
p4992
g2
(g6
S'\x83\t\x00\x00'
p4993
tp4994
Rp4995
sVstud
p4996
g2
(g6
S'$\x08\x00\x00'
p4997
tp4998
Rp4999
sVjack
p5000
g2
(g6
S'\x81\x04\x00\x00'
p5001
tp5002
Rp5003
sVthriving
p5004
g2
(g6
S'\x8d\x08\x00\x00'
p5005
tp5006
Rp5007
sVtickets
p5008
g2
(g6
S'\x92\x08\x00\x00'
p5009
tp5010
Rp5011
sVschool
p5012
g2
(g6
S':\x07\x00\x00'
p5013
tp5014
Rp5015
sVhonor
p5016
g2
(g6
S'5\x04\x00\x00'
p5017
tp5018
Rp5019
sVenjoy
p5020
g2
(g6
S'\xdd\x02\x00\x00'
p5021
tp5022
Rp5023
sVphones
p5024
g2
(g6
S'\x1e\x06\x00\x00'
p5025
tp5026
Rp5027
sVfabulous
p5028
g2
(g6
S'\x11\x03\x00\x00'
p5029
tp5030
Rp5031
sVfriendships
p5032
g2
(g6
S'\x82\x03\x00\x00'
p5033
tp5034
Rp5035
sV4x4
p5036
g2
(g6
S'7\x00\x00\x00'
p5037
tp5038
Rp5039
sVblue
p5040
g2
(g6
S'\x07\x01\x00\x00'
p5041
tp5042
Rp5043
sVselected
p5044
g2
(g6
S'T\x07\x00\x00'
p5045
tp5046
Rp5047
sVrenaissance
p5048
g2
(g6
S'\xd6\x06\x00\x00'
p5049
tp5050
Rp5051
sVsupplies
p5052
g2
(g6
S'8\x08\x00\x00'
p5053
tp5054
Rp5055
sVofficially
p5056
g2
(g6
S'\xcc\x05\x00\x00'
p5057
tp5058
Rp5059
sVdisney
p5060
g2
(g6
S'\x86\x02\x00\x00'
p5061
tp5062
Rp5063
sVwrapping
p5064
g2
(g6
S'\x89\t\x00\x00'
p5065
tp5066
Rp5067
sVequals
p5068
g2
(g6
S'\xe8\x02\x00\x00'
p5069
tp5070
Rp5071
sVpluto
p5072
g2
(g6
S'P\x06\x00\x00'
p5073
tp5074
Rp5075
sVaftermath
p5076
g2
(g6
S'h\x00\x00\x00'
p5077
tp5078
Rp5079
sVcelebration
p5080
g2
(g6
S'{\x01\x00\x00'
p5081
tp5082
Rp5083
sVitems
p5084
g2
(g6
S'~\x04\x00\x00'
p5085
tp5086
Rp5087
sVemployees
p5088
g2
(g6
S'\xd4\x02\x00\x00'
p5089
tp5090
Rp5091
sVbrowsing
p5092
g2
(g6
S'6\x01\x00\x00'
p5093
tp5094
Rp5095
sVsecure
p5096
g2
(g6
S'N\x07\x00\x00'
p5097
tp5098
Rp5099
sVspooky
p5100
g2
(g6
S'\xe8\x07\x00\x00'
p5101
tp5102
Rp5103
sVopportunities
p5104
g2
(g6
S'\xd6\x05\x00\x00'
p5105
tp5106
Rp5107
sVtotal
p5108
g2
(g6
S'\xa6\x08\x00\x00'
p5109
tp5110
Rp5111
sVsweater
p5112
g2
(g6
S'G\x08\x00\x00'
p5113
tp5114
Rp5115
sVbundles
p5116
g2
(g6
S'C\x01\x00\x00'
p5117
tp5118
Rp5119
sVsubstitutions
p5120
g2
(g6
S'-\x08\x00\x00'
p5121
tp5122
Rp5123
sVcome
p5124
g2
(g6
S'\xd1\x01\x00\x00'
p5125
tp5126
Rp5127
sVpreview
p5128
g2
(g6
S'u\x06\x00\x00'
p5129
tp5130
Rp5131
sVpic
p5132
g2
(g6
S'"\x06\x00\x00'
p5133
tp5134
Rp5135
sVaward
p5136
g2
(g6
S'\xb9\x00\x00\x00'
p5137
tp5138
Rp5139
sVphone
p5140
g2
(g6
S'\x1d\x06\x00\x00'
p5141
tp5142
Rp5143
sVlibecki
p5144
g2
(g6
S'\xe2\x04\x00\x00'
p5145
tp5146
Rp5147
sVexcellent
p5148
g2
(g6
S'\xf6\x02\x00\x00'
p5149
tp5150
Rp5151
sVmountains
p5152
g2
(g6
S'\x7f\x05\x00\x00'
p5153
tp5154
Rp5155
sVshoot
p5156
g2
(g6
S'~\x07\x00\x00'
p5157
tp5158
Rp5159
sVmt
p5160
g2
(g6
S'\x88\x05\x00\x00'
p5161
tp5162
Rp5163
sVmp
p5164
g2
(g6
S'\x86\x05\x00\x00'
p5165
tp5166
Rp5167
sV16gb
p5168
g2
(g6
S'\x11\x00\x00\x00'
p5169
tp5170
Rp5171
sVgadgets
p5172
g2
(g6
S'\x8c\x03\x00\x00'
p5173
tp5174
Rp5175
sVend
p5176
g2
(g6
S'\xd7\x02\x00\x00'
p5177
tp5178
Rp5179
sVent
p5180
g2
(g6
S'\xdf\x02\x00\x00'
p5181
tp5182
Rp5183
sVordinary
p5184
g2
(g6
S'\xdd\x05\x00\x00'
p5185
tp5186
Rp5187
sVbeach
p5188
g2
(g6
S'\xd6\x00\x00\x00'
p5189
tp5190
Rp5191
sVcharging
p5192
g2
(g6
S'\x91\x01\x00\x00'
p5193
tp5194
Rp5195
sVpizza
p5196
g2
(g6
S':\x06\x00\x00'
p5197
tp5198
Rp5199
sVsalsa
p5200
g2
(g6
S'\x1c\x07\x00\x00'
p5201
tp5202
Rp5203
sVjcpenney
p5204
g2
(g6
S'\x88\x04\x00\x00'
p5205
tp5206
Rp5207
sVrevved
p5208
g2
(g6
S'\xe8\x06\x00\x00'
p5209
tp5210
Rp5211
sVgreek
p5212
g2
(g6
S'\xcd\x03\x00\x00'
p5213
tp5214
Rp5215
sVgreen
p5216
g2
(g6
S'\xce\x03\x00\x00'
p5217
tp5218
Rp5219
sVnarcos
p5220
g2
(g6
S'\x97\x05\x00\x00'
p5221
tp5222
Rp5223
sVworst
p5224
g2
(g6
S'\x82\t\x00\x00'
p5225
tp5226
Rp5227
sVorder
p5228
g2
(g6
S'\xda\x05\x00\x00'
p5229
tp5230
Rp5231
sVoffice
p5232
g2
(g6
S'\xca\x05\x00\x00'
p5233
tp5234
Rp5235
sVjapan
p5236
g2
(g6
S'\x86\x04\x00\x00'
p5237
tp5238
Rp5239
sVhighlights
p5240
g2
(g6
S'"\x04\x00\x00'
p5241
tp5242
Rp5243
sVdenver
p5244
g2
(g6
S'Z\x02\x00\x00'
p5245
tp5246
Rp5247
sV400
p5248
g2
(g6
S'5\x00\x00\x00'
p5249
tp5250
Rp5251
sVcoffee
p5252
g2
(g6
S'\xc5\x01\x00\x00'
p5253
tp5254
Rp5255
sVsafe
p5256
g2
(g6
S'\x16\x07\x00\x00'
p5257
tp5258
Rp5259
sVbreak
p5260
g2
(g6
S"'\x01\x00\x00"
p5261
tp5262
Rp5263
sVbang
p5264
g2
(g6
S'\xcc\x00\x00\x00'
p5265
tp5266
Rp5267
sVfear
p5268
g2
(g6
S'4\x03\x00\x00'
p5269
tp5270
Rp5271
sVpotatoes
p5272
g2
(g6
S'^\x06\x00\x00'
p5273
tp5274
Rp5275
sVvictory
p5276
g2
(g6
S'\x15\t\x00\x00'
p5277
tp5278
Rp5279
sVfitness
p5280
g2
(g6
S'Y\x03\x00\x00'
p5281
tp5282
Rp5283
sVcashmere
p5284
g2
(g6
S'o\x01\x00\x00'
p5285
tp5286
Rp5287
sVmeets
p5288
g2
(g6
S'C\x05\x00\x00'
p5289
tp5290
Rp5291
sVtrain
p5292
g2
(g6
S'\xb5\x08\x00\x00'
p5293
tp5294
Rp5295
sVcelebrating
p5296
g2
(g6
S'z\x01\x00\x00'
p5297
tp5298
Rp5299
sVsler
p5300
g2
(g6
S'\xab\x07\x00\x00'
p5301
tp5302
Rp5303
sVflock
p5304
g2
(g6
S'c\x03\x00\x00'
p5305
tp5306
Rp5307
sVsaturday
p5308
g2
(g6
S'&\x07\x00\x00'
p5309
tp5310
Rp5311
sVnetwork
p5312
g2
(g6
S'\xa7\x05\x00\x00'
p5313
tp5314
Rp5315
sVdriving
p5316
g2
(g6
S'\xb0\x02\x00\x00'
p5317
tp5318
Rp5319
sVcameras
p5320
g2
(g6
S'Z\x01\x00\x00'
p5321
tp5322
Rp5323
sVdiesel
p5324
g2
(g6
S'q\x02\x00\x00'
p5325
tp5326
Rp5327
sVdonovan
p5328
g2
(g6
S'\x9a\x02\x00\x00'
p5329
tp5330
Rp5331
sVgot
p5332
g2
(g6
S'\xc1\x03\x00\x00'
p5333
tp5334
Rp5335
sVforth
p5336
g2
(g6
S's\x03\x00\x00'
p5337
tp5338
Rp5339
sVleftovers
p5340
g2
(g6
S'\xd8\x04\x00\x00'
p5341
tp5342
Rp5343
sVstella
p5344
g2
(g6
S'\x08\x08\x00\x00'
p5345
tp5346
Rp5347
sVfree
p5348
g2
(g6
S'y\x03\x00\x00'
p5349
tp5350
Rp5351
sVstandard
p5352
g2
(g6
S'\xf5\x07\x00\x00'
p5353
tp5354
Rp5355
sVmastering
p5356
g2
(g6
S'7\x05\x00\x00'
p5357
tp5358
Rp5359
sVwanted
p5360
g2
(g6
S'2\t\x00\x00'
p5361
tp5362
Rp5363
sVcreated
p5364
g2
(g6
S'\x19\x02\x00\x00'
p5365
tp5366
Rp5367
sVdays
p5368
g2
(g6
S'A\x02\x00\x00'
p5369
tp5370
Rp5371
sVoutfits
p5372
g2
(g6
S'\xe6\x05\x00\x00'
p5373
tp5374
Rp5375
sVbears
p5376
g2
(g6
S'\xd9\x00\x00\x00'
p5377
tp5378
Rp5379
sVheck
p5380
g2
(g6
S'\n\x04\x00\x00'
p5381
tp5382
Rp5383
sVapp
p5384
g2
(g6
S'\x94\x00\x00\x00'
p5385
tp5386
Rp5387
sVstaying
p5388
g2
(g6
S'\x02\x08\x00\x00'
p5389
tp5390
Rp5391
sVfantasy
p5392
g2
(g6
S'#\x03\x00\x00'
p5393
tp5394
Rp5395
sVdelicious
p5396
g2
(g6
S'O\x02\x00\x00'
p5397
tp5398
Rp5399
sVdrones
p5400
g2
(g6
S'\xb2\x02\x00\x00'
p5401
tp5402
Rp5403
sVheights
p5404
g2
(g6
S'\x0c\x04\x00\x00'
p5405
tp5406
Rp5407
sVplentiful
p5408
g2
(g6
S'M\x06\x00\x00'
p5409
tp5410
Rp5411
sVscrutiny
p5412
g2
(g6
S'B\x07\x00\x00'
p5413
tp5414
Rp5415
sVrockin
p5416
g2
(g6
S'\xfc\x06\x00\x00'
p5417
tp5418
Rp5419
sVjohn
p5420
g2
(g6
S'\x93\x04\x00\x00'
p5421
tp5422
Rp5423
sVtool
p5424
g2
(g6
S'\xa4\x08\x00\x00'
p5425
tp5426
Rp5427
sVtook
p5428
g2
(g6
S'\xa3\x08\x00\x00'
p5429
tp5430
Rp5431
sVcereal
p5432
g2
(g6
S'\x82\x01\x00\x00'
p5433
tp5434
Rp5435
sVwardrobe
p5436
g2
(g6
S'5\t\x00\x00'
p5437
tp5438
Rp5439
sVdecember
p5440
g2
(g6
S'I\x02\x00\x00'
p5441
tp5442
Rp5443
sVmercy
p5444
g2
(g6
S'M\x05\x00\x00'
p5445
tp5446
Rp5447
sVtarget
p5448
g2
(g6
S'c\x08\x00\x00'
p5449
tp5450
Rp5451
sVscenes
p5452
g2
(g6
S'7\x07\x00\x00'
p5453
tp5454
Rp5455
sVhaves
p5456
g2
(g6
S'\xfc\x03\x00\x00'
p5457
tp5458
Rp5459
sVfashion
p5460
g2
(g6
S'&\x03\x00\x00'
p5461
tp5462
Rp5463
sVocean
p5464
g2
(g6
S'\xc6\x05\x00\x00'
p5465
tp5466
Rp5467
sVtheres
p5468
g2
(g6
S'\x80\x08\x00\x00'
p5469
tp5470
Rp5471
sVgear
p5472
g2
(g6
S'\x96\x03\x00\x00'
p5473
tp5474
Rp5475
sVtriangle
p5476
g2
(g6
S'\xc1\x08\x00\x00'
p5477
tp5478
Rp5479
sVsnow
p5480
g2
(g6
S'\xbf\x07\x00\x00'
p5481
tp5482
Rp5483
sVmagnum
p5484
g2
(g6
S'\x1b\x05\x00\x00'
p5485
tp5486
Rp5487
sVexactly
p5488
g2
(g6
S'\xf5\x02\x00\x00'
p5489
tp5490
Rp5491
sVplenty
p5492
g2
(g6
S'N\x06\x00\x00'
p5493
tp5494
Rp5495
sVglow
p5496
g2
(g6
S'\xaf\x03\x00\x00'
p5497
tp5498
Rp5499
sVtreats
p5500
g2
(g6
S'\xbb\x08\x00\x00'
p5501
tp5502
Rp5503
sVbullied
p5504
g2
(g6
S'@\x01\x00\x00'
p5505
tp5506
Rp5507
sVslider
p5508
g2
(g6
S'\xad\x07\x00\x00'
p5509
tp5510
Rp5511
sVenterprise
p5512
g2
(g6
S'\xe2\x02\x00\x00'
p5513
tp5514
Rp5515
sVreserve
p5516
g2
(g6
S'\xde\x06\x00\x00'
p5517
tp5518
Rp5519
sVinspire
p5520
g2
(g6
S'f\x04\x00\x00'
p5521
tp5522
Rp5523
sVpope
p5524
g2
(g6
S'W\x06\x00\x00'
p5525
tp5526
Rp5527
sVsaga
p5528
g2
(g6
S'\x18\x07\x00\x00'
p5529
tp5530
Rp5531
sVcolors
p5532
g2
(g6
S'\xcd\x01\x00\x00'
p5533
tp5534
Rp5535
sVradio
p5536
g2
(g6
S'\xae\x06\x00\x00'
p5537
tp5538
Rp5539
sVsolutions
p5540
g2
(g6
S'\xca\x07\x00\x00'
p5541
tp5542
Rp5543
sVearth
p5544
g2
(g6
S'\xbe\x02\x00\x00'
p5545
tp5546
Rp5547
sVd2
p5548
g2
(g6
S'3\x02\x00\x00'
p5549
tp5550
Rp5551
sVavailability
p5552
g2
(g6
S'\xb4\x00\x00\x00'
p5553
tp5554
Rp5555
sVmake
p5556
g2
(g6
S' \x05\x00\x00'
p5557
tp5558
Rp5559
sVcompletes
p5560
g2
(g6
S'\xe1\x01\x00\x00'
p5561
tp5562
Rp5563
sVannounce
p5564
g2
(g6
S'\x8b\x00\x00\x00'
p5565
tp5566
Rp5567
sVpersonality
p5568
g2
(g6
S'\x19\x06\x00\x00'
p5569
tp5570
Rp5571
sVipad
p5572
g2
(g6
S'w\x04\x00\x00'
p5573
tp5574
Rp5575
sVdm
p5576
g2
(g6
S'\x8f\x02\x00\x00'
p5577
tp5578
Rp5579
sVwatch
p5580
g2
(g6
S'8\t\x00\x00'
p5581
tp5582
Rp5583
sVpaiche
p5584
g2
(g6
S'\xf2\x05\x00\x00'
p5585
tp5586
Rp5587
sVgeek
p5588
g2
(g6
S'\x98\x03\x00\x00'
p5589
tp5590
Rp5591
sVamazon
p5592
g2
(g6
S'~\x00\x00\x00'
p5593
tp5594
Rp5595
sVfashionistas
p5596
g2
(g6
S"'\x03\x00\x00"
p5597
tp5598
Rp5599
sVhaunted
p5600
g2
(g6
S'\xf8\x03\x00\x00'
p5601
tp5602
Rp5603
sVwedding
p5604
g2
(g6
S'G\t\x00\x00'
p5605
tp5606
Rp5607
sVdr
p5608
g2
(g6
S'\xa1\x02\x00\x00'
p5609
tp5610
Rp5611
sVhall
p5612
g2
(g6
S'\xe2\x03\x00\x00'
p5613
tp5614
Rp5615
sVruns
p5616
g2
(g6
S'\x12\x07\x00\x00'
p5617
tp5618
Rp5619
sVtwice
p5620
g2
(g6
S'\xe6\x08\x00\x00'
p5621
tp5622
Rp5623
sVsteak
p5624
g2
(g6
S'\x03\x08\x00\x00'
p5625
tp5626
Rp5627
sVsteal
p5628
g2
(g6
S'\x05\x08\x00\x00'
p5629
tp5630
Rp5631
sVdepends
p5632
g2
(g6
S'\\\x02\x00\x00'
p5633
tp5634
Rp5635
sVmitch
p5636
g2
(g6
S'e\x05\x00\x00'
p5637
tp5638
Rp5639
sVaway
p5640
g2
(g6
S'\xbb\x00\x00\x00'
p5641
tp5642
Rp5643
sVmud
p5644
g2
(g6
S'\x89\x05\x00\x00'
p5645
tp5646
Rp5647
sV360
p5648
g2
(g6
S'0\x00\x00\x00'
p5649
tp5650
Rp5651
sVdiscovery
p5652
g2
(g6
S'\x81\x02\x00\x00'
p5653
tp5654
Rp5655
sVterms
p5656
g2
(g6
S't\x08\x00\x00'
p5657
tp5658
Rp5659
sVwi
p5660
g2
(g6
S'X\t\x00\x00'
p5661
tp5662
Rp5663
sVwear
p5664
g2
(g6
S'?\t\x00\x00'
p5665
tp5666
Rp5667
sVpackages
p5668
g2
(g6
S'\xee\x05\x00\x00'
p5669
tp5670
Rp5671
sVkitchen
p5672
g2
(g6
S'\xb4\x04\x00\x00'
p5673
tp5674
Rp5675
sVreceived
p5676
g2
(g6
S'\xbe\x06\x00\x00'
p5677
tp5678
Rp5679
sVamexcard
p5680
g2
(g6
S'\x83\x00\x00\x00'
p5681
tp5682
Rp5683
sVshouldn
p5684
g2
(g6
S'\x86\x07\x00\x00'
p5685
tp5686
Rp5687
sVbrad
p5688
g2
(g6
S'!\x01\x00\x00'
p5689
tp5690
Rp5691
sVsuggest
p5692
g2
(g6
S'/\x08\x00\x00'
p5693
tp5694
Rp5695
sVtough
p5696
g2
(g6
S'\xab\x08\x00\x00'
p5697
tp5698
Rp5699
sVcharacter
p5700
g2
(g6
S'\x8c\x01\x00\x00'
p5701
tp5702
Rp5703
sVbetting
p5704
g2
(g6
S'\xec\x00\x00\x00'
p5705
tp5706
Rp5707
sVtony
p5708
g2
(g6
S'\xa2\x08\x00\x00'
p5709
tp5710
Rp5711
sVtrust
p5712
g2
(g6
S'\xd2\x08\x00\x00'
p5713
tp5714
Rp5715
sVseeterms
p5716
g2
(g6
S'R\x07\x00\x00'
p5717
tp5718
Rp5719
sVspeak
p5720
g2
(g6
S'\xdc\x07\x00\x00'
p5721
tp5722
Rp5723
sVengines
p5724
g2
(g6
S'\xdc\x02\x00\x00'
p5725
tp5726
Rp5727
sVbinge
p5728
g2
(g6
S'\xf7\x00\x00\x00'
p5729
tp5730
Rp5731
sVcollard
p5732
g2
(g6
S'\xc8\x01\x00\x00'
p5733
tp5734
Rp5735
sVexpected
p5736
g2
(g6
S'\x01\x03\x00\x00'
p5737
tp5738
Rp5739
sVfamilies
p5740
g2
(g6
S'\x1d\x03\x00\x00'
p5741
tp5742
Rp5743
sVsmartwatch
p5744
g2
(g6
S'\xb5\x07\x00\x00'
p5745
tp5746
Rp5747
sVcatch
p5748
g2
(g6
S's\x01\x00\x00'
p5749
tp5750
Rp5751
sVblackberryhhttg
p5752
g2
(g6
S'\xff\x00\x00\x00'
p5753
tp5754
Rp5755
sVjohansson
p5756
g2
(g6
S'\x92\x04\x00\x00'
p5757
tp5758
Rp5759
sVcombos
p5760
g2
(g6
S'\xd0\x01\x00\x00'
p5761
tp5762
Rp5763
sVair
p5764
g2
(g6
S'q\x00\x00\x00'
p5765
tp5766
Rp5767
sVain
p5768
g2
(g6
S'p\x00\x00\x00'
p5769
tp5770
Rp5771
sVaccessories
p5772
g2
(g6
S'N\x00\x00\x00'
p5773
tp5774
Rp5775
sVexperts
p5776
g2
(g6
S'\x05\x03\x00\x00'
p5777
tp5778
Rp5779
sVsoldier
p5780
g2
(g6
S'\xc7\x07\x00\x00'
p5781
tp5782
Rp5783
sVtriumphantly
p5784
g2
(g6
S'\xca\x08\x00\x00'
p5785
tp5786
Rp5787
sVsings
p5788
g2
(g6
S'\x9b\x07\x00\x00'
p5789
tp5790
Rp5791
sVsocial
p5792
g2
(g6
S'\xc4\x07\x00\x00'
p5793
tp5794
Rp5795
sVhang
p5796
g2
(g6
S'\xeb\x03\x00\x00'
p5797
tp5798
Rp5799
sVrain
p5800
g2
(g6
S'\xaf\x06\x00\x00'
p5801
tp5802
Rp5803
sVhand
p5804
g2
(g6
S'\xe4\x03\x00\x00'
p5805
tp5806
Rp5807
sVfridays
p5808
g2
(g6
S'}\x03\x00\x00'
p5809
tp5810
Rp5811
sVcharacters
p5812
g2
(g6
S'\x8d\x01\x00\x00'
p5813
tp5814
Rp5815
sVdishes
p5816
g2
(g6
S'\x84\x02\x00\x00'
p5817
tp5818
Rp5819
sV1979
p5820
g2
(g6
S'\x19\x00\x00\x00'
p5821
tp5822
Rp5823
sV1977
p5824
g2
(g6
S'\x18\x00\x00\x00'
p5825
tp5826
Rp5827
sV1975
p5828
g2
(g6
S'\x17\x00\x00\x00'
p5829
tp5830
Rp5831
sVdallas
p5832
g2
(g6
S'6\x02\x00\x00'
p5833
tp5834
Rp5835
sV1973
p5836
g2
(g6
S'\x16\x00\x00\x00'
p5837
tp5838
Rp5839
sVsavings
p5840
g2
(g6
S',\x07\x00\x00'
p5841
tp5842
Rp5843
sVcontact
p5844
g2
(g6
S'\xed\x01\x00\x00'
p5845
tp5846
Rp5847
sVgreatest
p5848
g2
(g6
S'\xcb\x03\x00\x00'
p5849
tp5850
Rp5851
sVmother
p5852
g2
(g6
S'{\x05\x00\x00'
p5853
tp5854
Rp5855
sValarms
p5856
g2
(g6
S'u\x00\x00\x00'
p5857
tp5858
Rp5859
sVhearts
p5860
g2
(g6
S'\x08\x04\x00\x00'
p5861
tp5862
Rp5863
sVphoto
p5864
g2
(g6
S'\x1f\x06\x00\x00'
p5865
tp5866
Rp5867
sVlaptop
p5868
g2
(g6
S'\xc3\x04\x00\x00'
p5869
tp5870
Rp5871
sVmid
p5872
g2
(g6
S'Q\x05\x00\x00'
p5873
tp5874
Rp5875
sVthanks
p5876
g2
(g6
S'{\x08\x00\x00'
p5877
tp5878
Rp5879
sVadding
p5880
g2
(g6
S'\\\x00\x00\x00'
p5881
tp5882
Rp5883
sVphotographer
p5884
g2
(g6
S' \x06\x00\x00'
p5885
tp5886
Rp5887
sVjosh
p5888
g2
(g6
S'\x96\x04\x00\x00'
p5889
tp5890
Rp5891
sVpatching
p5892
g2
(g6
S'\x00\x06\x00\x00'
p5893
tp5894
Rp5895
sVshout
p5896
g2
(g6
S'\x87\x07\x00\x00'
p5897
tp5898
Rp5899
sVspread
p5900
g2
(g6
S'\xee\x07\x00\x00'
p5901
tp5902
Rp5903
sVboard
p5904
g2
(g6
S'\n\x01\x00\x00'
p5905
tp5906
Rp5907
sV5k
p5908
g2
(g6
S'9\x00\x00\x00'
p5909
tp5910
Rp5911
sVafrica
p5912
g2
(g6
S'g\x00\x00\x00'
p5913
tp5914
Rp5915
sVlooks
p5916
g2
(g6
S'\x02\x05\x00\x00'
p5917
tp5918
Rp5919
sVjudge
p5920
g2
(g6
S'\x9b\x04\x00\x00'
p5921
tp5922
Rp5923
sVtrivia
p5924
g2
(g6
S'\xcb\x08\x00\x00'
p5925
tp5926
Rp5927
sVgift
p5928
g2
(g6
S'\xa1\x03\x00\x00'
p5929
tp5930
Rp5931
sV50
p5932
g2
(g6
S'8\x00\x00\x00'
p5933
tp5934
Rp5935
sVxbox
p5936
g2
(g6
S'\x8f\t\x00\x00'
p5937
tp5938
Rp5939
sVspecific
p5940
g2
(g6
S'\xde\x07\x00\x00'
p5941
tp5942
Rp5943
sVnight
p5944
g2
(g6
S'\xb2\x05\x00\x00'
p5945
tp5946
Rp5947
sVsecurity
p5948
g2
(g6
S'O\x07\x00\x00'
p5949
tp5950
Rp5951
sVsoar
p5952
g2
(g6
S'\xc2\x07\x00\x00'
p5953
tp5954
Rp5955
sVborn
p5956
g2
(g6
S'\x1b\x01\x00\x00'
p5957
tp5958
Rp5959
sVdonald
p5960
g2
(g6
S'\x99\x02\x00\x00'
p5961
tp5962
Rp5963
sVhhttgs
p5964
g2
(g6
S'\x1e\x04\x00\x00'
p5965
tp5966
Rp5967
sVescape
p5968
g2
(g6
S'\xeb\x02\x00\x00'
p5969
tp5970
Rp5971
sVwithussernm
p5972
g2
(g6
S'n\t\x00\x00'
p5973
tp5974
Rp5975
sVemoji
p5976
g2
(g6
S'\xd0\x02\x00\x00'
p5977
tp5978
Rp5979
sVadorable
p5980
g2
(g6
S'`\x00\x00\x00'
p5981
tp5982
Rp5983
sVchristmas
p5984
g2
(g6
S'\xa8\x01\x00\x00'
p5985
tp5986
Rp5987
sVcord
p5988
g2
(g6
S'\xfb\x01\x00\x00'
p5989
tp5990
Rp5991
sVpeek
p5992
g2
(g6
S'\x0e\x06\x00\x00'
p5993
tp5994
Rp5995
sVcorn
p5996
g2
(g6
S'\xfc\x01\x00\x00'
p5997
tp5998
Rp5999
sVeye
p6000
g2
(g6
S'\x0e\x03\x00\x00'
p6001
tp6002
Rp6003
sVpost
p6004
g2
(g6
S'Z\x06\x00\x00'
p6005
tp6006
Rp6007
sVcowboy
p6008
g2
(g6
S'\x13\x02\x00\x00'
p6009
tp6010
Rp6011
sVmonths
p6012
g2
(g6
S'w\x05\x00\x00'
p6013
tp6014
Rp6015
sVdinner
p6016
g2
(g6
S'z\x02\x00\x00'
p6017
tp6018
Rp6019
sVplus
p6020
g2
(g6
S'O\x06\x00\x00'
p6021
tp6022
Rp6023
sVsept
p6024
g2
(g6
S'\\\x07\x00\x00'
p6025
tp6026
Rp6027
sVdestination
p6028
g2
(g6
S'e\x02\x00\x00'
p6029
tp6030
Rp6031
sVpays
p6032
g2
(g6
S'\n\x06\x00\x00'
p6033
tp6034
Rp6035
sVthoughts
p6036
g2
(g6
S'\x8a\x08\x00\x00'
p6037
tp6038
Rp6039
sVbath
p6040
g2
(g6
S'\xd1\x00\x00\x00'
p6041
tp6042
Rp6043
sVhandbag
p6044
g2
(g6
S'\xe5\x03\x00\x00'
p6045
tp6046
Rp6047
sVdeal
p6048
g2
(g6
S'C\x02\x00\x00'
p6049
tp6050
Rp6051
sVfight
p6052
g2
(g6
S'G\x03\x00\x00'
p6053
tp6054
Rp6055
sVstuck
p6056
g2
(g6
S'#\x08\x00\x00'
p6057
tp6058
Rp6059
sVway
p6060
g2
(g6
S'=\t\x00\x00'
p6061
tp6062
Rp6063
sVwar
p6064
g2
(g6
S'4\t\x00\x00'
p6065
tp6066
Rp6067
sVhead
p6068
g2
(g6
S'\xff\x03\x00\x00'
p6069
tp6070
Rp6071
sVwireless
p6072
g2
(g6
S'g\t\x00\x00'
p6073
tp6074
Rp6075
sVheat
p6076
g2
(g6
S'\t\x04\x00\x00'
p6077
tp6078
Rp6079
sVtrue
p6080
g2
(g6
S'\xce\x08\x00\x00'
p6081
tp6082
Rp6083
sVcouture
p6084
g2
(g6
S'\x10\x02\x00\x00'
p6085
tp6086
Rp6087
sVexp12
p6088
g2
(g6
S'\xff\x02\x00\x00'
p6089
tp6090
Rp6091
sVunboxing
p6092
g2
(g6
S'\xed\x08\x00\x00'
p6093
tp6094
Rp6095
sVtrumpkins
p6096
g2
(g6
S'\xd1\x08\x00\x00'
p6097
tp6098
Rp6099
sVemotional
p6100
g2
(g6
S'\xd2\x02\x00\x00'
p6101
tp6102
Rp6103
sVfury
p6104
g2
(g6
S'\x8a\x03\x00\x00'
p6105
tp6106
Rp6107
sVhhttg
p6108
g2
(g6
S'\x1b\x04\x00\x00'
p6109
tp6110
Rp6111
sVcop
p6112
g2
(g6
S'\xfa\x01\x00\x00'
p6113
tp6114
Rp6115
sVguessed
p6116
g2
(g6
S'\xd6\x03\x00\x00'
p6117
tp6118
Rp6119
sVcheck
p6120
g2
(g6
S'\x96\x01\x00\x00'
p6121
tp6122
Rp6123
sVtip
p6124
g2
(g6
S'\x9a\x08\x00\x00'
p6125
tp6126
Rp6127
sVreality
p6128
g2
(g6
S'\xb7\x06\x00\x00'
p6129
tp6130
Rp6131
sVtim
p6132
g2
(g6
S'\x94\x08\x00\x00'
p6133
tp6134
Rp6135
sVinterested
p6136
g2
(g6
S'p\x04\x00\x00'
p6137
tp6138
Rp6139
sVtest
p6140
g2
(g6
S'v\x08\x00\x00'
p6141
tp6142
Rp6143
sVwhey
p6144
g2
(g6
S'T\t\x00\x00'
p6145
tp6146
Rp6147
sVpicture
p6148
g2
(g6
S')\x06\x00\x00'
p6149
tp6150
Rp6151
sVwelcome
p6152
g2
(g6
S'M\t\x00\x00'
p6153
tp6154
Rp6155
sVupdate
p6156
g2
(g6
S'\xf8\x08\x00\x00'
p6157
tp6158
Rp6159
sVfaster
p6160
g2
(g6
S')\x03\x00\x00'
p6161
tp6162
Rp6163
sVsongs
p6164
g2
(g6
S'\xd1\x07\x00\x00'
p6165
tp6166
Rp6167
sVconcept
p6168
g2
(g6
S'\xe3\x01\x00\x00'
p6169
tp6170
Rp6171
sVdance
p6172
g2
(g6
S'8\x02\x00\x00'
p6173
tp6174
Rp6175
sVglobal
p6176
g2
(g6
S'\xac\x03\x00\x00'
p6177
tp6178
Rp6179
sVdeliveries
p6180
g2
(g6
S'R\x02\x00\x00'
p6181
tp6182
Rp6183
sVbattle
p6184
g2
(g6
S'\xd3\x00\x00\x00'
p6185
tp6186
Rp6187
sVessentials
p6188
g2
(g6
S'\xee\x02\x00\x00'
p6189
tp6190
Rp6191
sVflash
p6192
g2
(g6
S'\\\x03\x00\x00'
p6193
tp6194
Rp6195
sVcharge
p6196
g2
(g6
S'\x8f\x01\x00\x00'
p6197
tp6198
Rp6199
sVvideos
p6200
g2
(g6
S'\x18\t\x00\x00'
p6201
tp6202
Rp6203
sVgrill
p6204
g2
(g6
S'\xcf\x03\x00\x00'
p6205
tp6206
Rp6207
sVkitchenaid
p6208
g2
(g6
S'\xb5\x04\x00\x00'
p6209
tp6210
Rp6211
sVblast
p6212
g2
(g6
S'\x00\x01\x00\x00'
p6213
tp6214
Rp6215
sVcool
p6216
g2
(g6
S'\xf8\x01\x00\x00'
p6217
tp6218
Rp6219
sVpresented
p6220
g2
(g6
S'q\x06\x00\x00'
p6221
tp6222
Rp6223
sVturns
p6224
g2
(g6
S'\xe1\x08\x00\x00'
p6225
tp6226
Rp6227
sVphilippines
p6228
g2
(g6
S'\x1c\x06\x00\x00'
p6229
tp6230
Rp6231
sVplanning
p6232
g2
(g6
S'D\x06\x00\x00'
p6233
tp6234
Rp6235
sVquick
p6236
g2
(g6
S'\xa7\x06\x00\x00'
p6237
tp6238
Rp6239
sVguy
p6240
g2
(g6
S'\xdb\x03\x00\x00'
p6241
tp6242
Rp6243
sVbrave
p6244
g2
(g6
S'%\x01\x00\x00'
p6245
tp6246
Rp6247
sVtrend
p6248
g2
(g6
S'\xbe\x08\x00\x00'
p6249
tp6250
Rp6251
sVbravo
p6252
g2
(g6
S'&\x01\x00\x00'
p6253
tp6254
Rp6255
sVdiscover
p6256
g2
(g6
S'\x80\x02\x00\x00'
p6257
tp6258
Rp6259
sVcyber
p6260
g2
(g6
S'2\x02\x00\x00'
p6261
tp6262
Rp6263
sVcost
p6264
g2
(g6
S'\x00\x02\x00\x00'
p6265
tp6266
Rp6267
sVtakeoff
p6268
g2
(g6
S'Z\x08\x00\x00'
p6269
tp6270
Rp6271
sVbake
p6272
g2
(g6
S'\xc8\x00\x00\x00'
p6273
tp6274
Rp6275
sVchicken
p6276
g2
(g6
S'\x9e\x01\x00\x00'
p6277
tp6278
Rp6279
sVdrinks
p6280
g2
(g6
S'\xac\x02\x00\x00'
p6281
tp6282
Rp6283
sVbarbie
p6284
g2
(g6
S'\xce\x00\x00\x00'
p6285
tp6286
Rp6287
sVgoes
p6288
g2
(g6
S'\xb4\x03\x00\x00'
p6289
tp6290
Rp6291
sVshared
p6292
g2
(g6
S'n\x07\x00\x00'
p6293
tp6294
Rp6295
sVappeal
p6296
g2
(g6
S'\x95\x00\x00\x00'
p6297
tp6298
Rp6299
sVwater
p6300
g2
(g6
S';\t\x00\x00'
p6301
tp6302
Rp6303
sVchange
p6304
g2
(g6
S'\x89\x01\x00\x00'
p6305
tp6306
Rp6307
sVq4
p6308
g2
(g6
S'\x9f\x06\x00\x00'
p6309
tp6310
Rp6311
sVbuck
p6312
g2
(g6
S':\x01\x00\x00'
p6313
tp6314
Rp6315
sV21mp
p6316
g2
(g6
S'%\x00\x00\x00'
p6317
tp6318
Rp6319
sVgrimmie
p6320
g2
(g6
S'\xd0\x03\x00\x00'
p6321
tp6322
Rp6323
sVcinnamon
p6324
g2
(g6
S'\xab\x01\x00\x00'
p6325
tp6326
Rp6327
sVextra
p6328
g2
(g6
S'\x0c\x03\x00\x00'
p6329
tp6330
Rp6331
sVcompare
p6332
g2
(g6
S'\xdd\x01\x00\x00'
p6333
tp6334
Rp6335
sV1st
p6336
g2
(g6
S'\x1c\x00\x00\x00'
p6337
tp6338
Rp6339
sVflavors
p6340
g2
(g6
S'_\x03\x00\x00'
p6341
tp6342
Rp6343
sVjan
p6344
g2
(g6
S'\x84\x04\x00\x00'
p6345
tp6346
Rp6347
sVprove
p6348
g2
(g6
S'\x8d\x06\x00\x00'
p6349
tp6350
Rp6351
sVsuper
p6352
g2
(g6
S'6\x08\x00\x00'
p6353
tp6354
Rp6355
sVlive
p6356
g2
(g6
S'\xf5\x04\x00\x00'
p6357
tp6358
Rp6359
sViphone
p6360
g2
(g6
S'x\x04\x00\x00'
p6361
tp6362
Rp6363
sVcuter
p6364
g2
(g6
S'/\x02\x00\x00'
p6365
tp6366
Rp6367
sVencryption
p6368
g2
(g6
S'\xd6\x02\x00\x00'
p6369
tp6370
Rp6371
sVtoday
p6372
g2
(g6
S'\x9e\x08\x00\x00'
p6373
tp6374
Rp6375
sVsessions
p6376
g2
(g6
S'c\x07\x00\x00'
p6377
tp6378
Rp6379
sVclicking
p6380
g2
(g6
S'\xb8\x01\x00\x00'
p6381
tp6382
Rp6383
sVchocolate
p6384
g2
(g6
S'\xa4\x01\x00\x00'
p6385
tp6386
Rp6387
sVautumn
p6388
g2
(g6
S'\xb3\x00\x00\x00'
p6389
tp6390
Rp6391
sVcar
p6392
g2
(g6
S'a\x01\x00\x00'
p6393
tp6394
Rp6395
sVcat
p6396
g2
(g6
S'r\x01\x00\x00'
p6397
tp6398
Rp6399
sVhardest
p6400
g2
(g6
S'\xf3\x03\x00\x00'
p6401
tp6402
Rp6403
sVcam
p6404
g2
(g6
S'V\x01\x00\x00'
p6405
tp6406
Rp6407
sVheart
p6408
g2
(g6
S'\x07\x04\x00\x00'
p6409
tp6410
Rp6411
sVtrump
p6412
g2
(g6
S'\xd0\x08\x00\x00'
p6413
tp6414
Rp6415
sVstream
p6416
g2
(g6
S'\x1a\x08\x00\x00'
p6417
tp6418
Rp6419
sVnexus
p6420
g2
(g6
S'\xad\x05\x00\x00'
p6421
tp6422
Rp6423
sVheard
p6424
g2
(g6
S'\x06\x04\x00\x00'
p6425
tp6426
Rp6427
sVincredible
p6428
g2
(g6
S'_\x04\x00\x00'
p6429
tp6430
Rp6431
sVchic
p6432
g2
(g6
S'\x9c\x01\x00\x00'
p6433
tp6434
Rp6435
sVcounting
p6436
g2
(g6
S'\x08\x02\x00\x00'
p6437
tp6438
Rp6439
sVclothing
p6440
g2
(g6
S'\xc0\x01\x00\x00'
p6441
tp6442
Rp6443
sVsandstone
p6444
g2
(g6
S'!\x07\x00\x00'
p6445
tp6446
Rp6447
sVcocktail
p6448
g2
(g6
S'\xc3\x01\x00\x00'
p6449
tp6450
Rp6451
sVdive
p6452
g2
(g6
S'\x8d\x02\x00\x00'
p6453
tp6454
Rp6455
sVuse
p6456
g2
(g6
S'\x02\t\x00\x00'
p6457
tp6458
Rp6459
sVneeds
p6460
g2
(g6
S'\xa4\x05\x00\x00'
p6461
tp6462
Rp6463
sVheroes
p6464
g2
(g6
S'\x19\x04\x00\x00'
p6465
tp6466
Rp6467
sVavengers
p6468
g2
(g6
S'\xb6\x00\x00\x00'
p6469
tp6470
Rp6471
sVremember
p6472
g2
(g6
S'\xd3\x06\x00\x00'
p6473
tp6474
Rp6475
sVexclusive
p6476
g2
(g6
S'\xf9\x02\x00\x00'
p6477
tp6478
Rp6479
sVfallout
p6480
g2
(g6
S'\x1a\x03\x00\x00'
p6481
tp6482
Rp6483
sVfringe
p6484
g2
(g6
S'\x84\x03\x00\x00'
p6485
tp6486
Rp6487
sVfood
p6488
g2
(g6
S'i\x03\x00\x00'
p6489
tp6490
Rp6491
sVmidnight
p6492
g2
(g6
S'R\x05\x00\x00'
p6493
tp6494
Rp6495
sVbrain
p6496
g2
(g6
S'"\x01\x00\x00'
p6497
tp6498
Rp6499
sVtablets
p6500
g2
(g6
S'S\x08\x00\x00'
p6501
tp6502
Rp6503
sVwhats
p6504
g2
(g6
S'R\t\x00\x00'
p6505
tp6506
Rp6507
sVcold
p6508
g2
(g6
S'\xc7\x01\x00\x00'
p6509
tp6510
Rp6511
sVbirds
p6512
g2
(g6
S'\xf9\x00\x00\x00'
p6513
tp6514
Rp6515
sVyams
p6516
g2
(g6
S'\x91\t\x00\x00'
p6517
tp6518
Rp6519
sVplatform
p6520
g2
(g6
S'F\x06\x00\x00'
p6521
tp6522
Rp6523
sVoffers
p6524
g2
(g6
S'\xc9\x05\x00\x00'
p6525
tp6526
Rp6527
sVselfie
p6528
g2
(g6
S'V\x07\x00\x00'
p6529
tp6530
Rp6531
sVunveiling
p6532
g2
(g6
S'\xf5\x08\x00\x00'
p6533
tp6534
Rp6535
sVmoms
p6536
g2
(g6
S'q\x05\x00\x00'
p6537
tp6538
Rp6539
sVconquer
p6540
g2
(g6
S'\xea\x01\x00\x00'
p6541
tp6542
Rp6543
sVhalf
p6544
g2
(g6
S'\xe0\x03\x00\x00'
p6545
tp6546
Rp6547
sVnov
p6548
g2
(g6
S'\xba\x05\x00\x00'
p6549
tp6550
Rp6551
sVwont
p6552
g2
(g6
S'u\t\x00\x00'
p6553
tp6554
Rp6555
sVequality
p6556
g2
(g6
S'\xe7\x02\x00\x00'
p6557
tp6558
Rp6559
sVjanuary
p6560
g2
(g6
S'\x85\x04\x00\x00'
p6561
tp6562
Rp6563
sVdrop
p6564
g2
(g6
S'\xb3\x02\x00\x00'
p6565
tp6566
Rp6567
sVhashbrowns
p6568
g2
(g6
S'\xf5\x03\x00\x00'
p6569
tp6570
Rp6571
sVdid
p6572
g2
(g6
S'n\x02\x00\x00'
p6573
tp6574
Rp6575
sVem
p6576
g2
(g6
S'\xce\x02\x00\x00'
p6577
tp6578
Rp6579
sVed
p6580
g2
(g6
S'\xc3\x02\x00\x00'
p6581
tp6582
Rp6583
sVea
p6584
g2
(g6
S'\xb9\x02\x00\x00'
p6585
tp6586
Rp6587
sVyeah
p6588
g2
(g6
S'\x93\t\x00\x00'
p6589
tp6590
Rp6591
sVreplay
p6592
g2
(g6
S'\xd8\x06\x00\x00'
p6593
tp6594
Rp6595
sVex
p6596
g2
(g6
S'\xf4\x02\x00\x00'
p6597
tp6598
Rp6599
sVbegun
p6600
g2
(g6
S'\xe5\x00\x00\x00'
p6601
tp6602
Rp6603
sVyear
p6604
g2
(g6
S'\x94\t\x00\x00'
p6605
tp6606
Rp6607
sVet
p6608
g2
(g6
S'\xef\x02\x00\x00'
p6609
tp6610
Rp6611
sVhappen
p6612
g2
(g6
S'\xed\x03\x00\x00'
p6613
tp6614
Rp6615
sVobsession
p6616
g2
(g6
S'\xc3\x05\x00\x00'
p6617
tp6618
Rp6619
sVtried
p6620
g2
(g6
S'\xc5\x08\x00\x00'
p6621
tp6622
Rp6623
sValbum
p6624
g2
(g6
S'v\x00\x00\x00'
p6625
tp6626
Rp6627
sVspace
p6628
g2
(g6
S'\xda\x07\x00\x00'
p6629
tp6630
Rp6631
sVlooking
p6632
g2
(g6
S'\x01\x05\x00\x00'
p6633
tp6634
Rp6635
sVshowroom
p6636
g2
(g6
S'\x8a\x07\x00\x00'
p6637
tp6638
Rp6639
sVshows
p6640
g2
(g6
S'\x8b\x07\x00\x00'
p6641
tp6642
Rp6643
sVeagle
p6644
g2
(g6
S'\xba\x02\x00\x00'
p6645
tp6646
Rp6647
sVcostumes
p6648
g2
(g6
S'\x03\x02\x00\x00'
p6649
tp6650
Rp6651
sVcars
p6652
g2
(g6
S'j\x01\x00\x00'
p6653
tp6654
Rp6655
sVcart
p6656
g2
(g6
S'k\x01\x00\x00'
p6657
tp6658
Rp6659
sVcard
p6660
g2
(g6
S'c\x01\x00\x00'
p6661
tp6662
Rp6663
sVcare
p6664
g2
(g6
S'e\x01\x00\x00'
p6665
tp6666
Rp6667
sVcouldn
p6668
g2
(g6
S'\x05\x02\x00\x00'
p6669
tp6670
Rp6671
sVhonest
p6672
g2
(g6
S'2\x04\x00\x00'
p6673
tp6674
Rp6675
sVturn
p6676
g2
(g6
S'\xde\x08\x00\x00'
p6677
tp6678
Rp6679
sVplace
p6680
g2
(g6
S';\x06\x00\x00'
p6681
tp6682
Rp6683
sVsupport
p6684
g2
(g6
S'9\x08\x00\x00'
p6685
tp6686
Rp6687
sVflying
p6688
g2
(g6
S'e\x03\x00\x00'
p6689
tp6690
Rp6691
sVcoming
p6692
g2
(g6
S'\xd7\x01\x00\x00'
p6693
tp6694
Rp6695
sVios9
p6696
g2
(g6
S'v\x04\x00\x00'
p6697
tp6698
Rp6699
sVring
p6700
g2
(g6
S'\xf0\x06\x00\x00'
p6701
tp6702
Rp6703
sVsize
p6704
g2
(g6
S'\xa2\x07\x00\x00'
p6705
tp6706
Rp6707
sVsheep
p6708
g2
(g6
S's\x07\x00\x00'
p6709
tp6710
Rp6711
sVgiven
p6712
g2
(g6
S'\xa8\x03\x00\x00'
p6713
tp6714
Rp6715
sVvirgin
p6716
g2
(g6
S'!\t\x00\x00'
p6717
tp6718
Rp6719
sVcaught
p6720
g2
(g6
S'w\x01\x00\x00'
p6721
tp6722
Rp6723
sVeurope
p6724
g2
(g6
S'\xf0\x02\x00\x00'
p6725
tp6726
Rp6727
sVwhite
p6728
g2
(g6
S'V\t\x00\x00'
p6729
tp6730
Rp6731
sVfriend
p6732
g2
(g6
S'~\x03\x00\x00'
p6733
tp6734
Rp6735
sVeditor
p6736
g2
(g6
S'\xc6\x02\x00\x00'
p6737
tp6738
Rp6739
sVhue
p6740
g2
(g6
S'E\x04\x00\x00'
p6741
tp6742
Rp6743
sVhub
p6744
g2
(g6
S'D\x04\x00\x00'
p6745
tp6746
Rp6747
sVreleased
p6748
g2
(g6
S'\xd1\x06\x00\x00'
p6749
tp6750
Rp6751
sVedition
p6752
g2
(g6
S'\xc5\x02\x00\x00'
p6753
tp6754
Rp6755
sVrequire
p6756
g2
(g6
S'\xda\x06\x00\x00'
p6757
tp6758
Rp6759
sVbuzzfeed
p6760
g2
(g6
S'L\x01\x00\x00'
p6761
tp6762
Rp6763
sVapples
p6764
g2
(g6
S'\x99\x00\x00\x00'
p6765
tp6766
Rp6767
sVpurrfect
p6768
g2
(g6
S'\x9c\x06\x00\x00'
p6769
tp6770
Rp6771
sVcards
p6772
g2
(g6
S'd\x01\x00\x00'
p6773
tp6774
Rp6775
sVhhttgedge
p6776
g2
(g6
S'\x1c\x04\x00\x00'
p6777
tp6778
Rp6779
sVwagoneer
p6780
g2
(g6
S'(\t\x00\x00'
p6781
tp6782
Rp6783
sV13th
p6784
g2
(g6
S'\x0b\x00\x00\x00'
p6785
tp6786
Rp6787
sVanger
p6788
g2
(g6
S'\x86\x00\x00\x00'
p6789
tp6790
Rp6791
sVbreakfast
p6792
g2
(g6
S'(\x01\x00\x00'
p6793
tp6794
Rp6795
sVmarathon
p6796
g2
(g6
S'+\x05\x00\x00'
p6797
tp6798
Rp6799
sVhhttglife
p6800
g2
(g6
S'\x1d\x04\x00\x00'
p6801
tp6802
Rp6803
sVideas
p6804
g2
(g6
S'T\x04\x00\x00'
p6805
tp6806
Rp6807
sVideal
p6808
g2
(g6
S'S\x04\x00\x00'
p6809
tp6810
Rp6811
sVonline
p6812
g2
(g6
S'\xd1\x05\x00\x00'
p6813
tp6814
Rp6815
sVsorority
p6816
g2
(g6
S'\xd4\x07\x00\x00'
p6817
tp6818
Rp6819
sVawaits
p6820
g2
(g6
S'\xb8\x00\x00\x00'
p6821
tp6822
Rp6823
sVbegin
p6824
g2
(g6
S'\xe3\x00\x00\x00'
p6825
tp6826
Rp6827
sVsure
p6828
g2
(g6
S';\x08\x00\x00'
p6829
tp6830
Rp6831
sVmultiple
p6832
g2
(g6
S'\x8c\x05\x00\x00'
p6833
tp6834
Rp6835
sVprice
p6836
g2
(g6
S'v\x06\x00\x00'
p6837
tp6838
Rp6839
sVfalls
p6840
g2
(g6
S'\x1b\x03\x00\x00'
p6841
tp6842
Rp6843
sVamerica
p6844
g2
(g6
S'\x7f\x00\x00\x00'
p6845
tp6846
Rp6847
sVicon
p6848
g2
(g6
S'N\x04\x00\x00'
p6849
tp6850
Rp6851
sVforever
p6852
g2
(g6
S'n\x03\x00\x00'
p6853
tp6854
Rp6855
sVegg
p6856
g2
(g6
S'\xc8\x02\x00\x00'
p6857
tp6858
Rp6859
sVshooter
p6860
g2
(g6
S'\x7f\x07\x00\x00'
p6861
tp6862
Rp6863
sVhungry
p6864
g2
(g6
S'K\x04\x00\x00'
p6865
tp6866
Rp6867
sVsunset
p6868
g2
(g6
S'5\x08\x00\x00'
p6869
tp6870
Rp6871
sVpremieres
p6872
g2
(g6
S'j\x06\x00\x00'
p6873
tp6874
Rp6875
sVgerman
p6876
g2
(g6
S'\x9c\x03\x00\x00'
p6877
tp6878
Rp6879
sVrecipe
p6880
g2
(g6
S'\xc0\x06\x00\x00'
p6881
tp6882
Rp6883
sVground
p6884
g2
(g6
S'\xd2\x03\x00\x00'
p6885
tp6886
Rp6887
sVsnack
p6888
g2
(g6
S'\xbb\x07\x00\x00'
p6889
tp6890
Rp6891
sVpumpkin
p6892
g2
(g6
S'\x95\x06\x00\x00'
p6893
tp6894
Rp6895
sVtruly
p6896
g2
(g6
S'\xcf\x08\x00\x00'
p6897
tp6898
Rp6899
sVinstalled
p6900
g2
(g6
S'j\x04\x00\x00'
p6901
tp6902
Rp6903
sVcelebrate
p6904
g2
(g6
S'y\x01\x00\x00'
p6905
tp6906
Rp6907
sVfreaking
p6908
g2
(g6
S'x\x03\x00\x00'
p6909
tp6910
Rp6911
sVreveal
p6912
g2
(g6
S'\xe4\x06\x00\x00'
p6913
tp6914
Rp6915
sVisnt
p6916
g2
(g6
S'}\x04\x00\x00'
p6917
tp6918
Rp6919
sVamanda
p6920
g2
(g6
S'|\x00\x00\x00'
p6921
tp6922
Rp6923
sVhusband
p6924
g2
(g6
S'L\x04\x00\x00'
p6925
tp6926
Rp6927
sVconcert
p6928
g2
(g6
S'\xe4\x01\x00\x00'
p6929
tp6930
Rp6931
sVsport
p6932
g2
(g6
S'\xe9\x07\x00\x00'
p6933
tp6934
Rp6935
sVdetect
p6936
g2
(g6
S'h\x02\x00\x00'
p6937
tp6938
Rp6939
sVtackling
p6940
g2
(g6
S'U\x08\x00\x00'
p6941
tp6942
Rp6943
sVways
p6944
g2
(g6
S'>\t\x00\x00'
p6945
tp6946
Rp6947
sVreview
p6948
g2
(g6
S'\xe5\x06\x00\x00'
p6949
tp6950
Rp6951
sVoutside
p6952
g2
(g6
S'\xe7\x05\x00\x00'
p6953
tp6954
Rp6955
sVnotice
p6956
g2
(g6
S'\xb9\x05\x00\x00'
p6957
tp6958
Rp6959
sV25
p6960
g2
(g6
S')\x00\x00\x00'
p6961
tp6962
Rp6963
sV15terms
p6964
g2
(g6
S'\x0f\x00\x00\x00'
p6965
tp6966
Rp6967
sVstyles
p6968
g2
(g6
S'*\x08\x00\x00'
p6969
tp6970
Rp6971
sVimpromptu
p6972
g2
(g6
S'Y\x04\x00\x00'
p6973
tp6974
Rp6975
sVamex
p6976
g2
(g6
S'\x82\x00\x00\x00'
p6977
tp6978
Rp6979
sVdeals
p6980
g2
(g6
S'D\x02\x00\x00'
p6981
tp6982
Rp6983
sVwheels
p6984
g2
(g6
S'S\t\x00\x00'
p6985
tp6986
Rp6987
sVcomes
p6988
g2
(g6
S'\xd3\x01\x00\x00'
p6989
tp6990
Rp6991
sVduty
p6992
g2
(g6
S'\xb8\x02\x00\x00'
p6993
tp6994
Rp6995
sVcolor
p6996
g2
(g6
S'\xcc\x01\x00\x00'
p6997
tp6998
Rp6999
sVpot
p7000
g2
(g6
S']\x06\x00\x00'
p7001
tp7002
Rp7003
sVjeans
p7004
g2
(g6
S'\x89\x04\x00\x00'
p7005
tp7006
Rp7007
sV60
p7008
g2
(g6
S'<\x00\x00\x00'
p7009
tp7010
Rp7011
sVlearning
p7012
g2
(g6
S'\xd5\x04\x00\x00'
p7013
tp7014
Rp7015
sV67
p7016
g2
(g6
S'=\x00\x00\x00'
p7017
tp7018
Rp7019
sV69
p7020
g2
(g6
S'>\x00\x00\x00'
p7021
tp7022
Rp7023
sVnicole
p7024
g2
(g6
S'\xb1\x05\x00\x00'
p7025
tp7026
Rp7027
sVturkey
p7028
g2
(g6
S'\xdc\x08\x00\x00'
p7029
tp7030
Rp7031
sVfilmmakers
p7032
g2
(g6
S'K\x03\x00\x00'
p7033
tp7034
Rp7035
sVfeaturing
p7036
g2
(g6
S'9\x03\x00\x00'
p7037
tp7038
Rp7039
sVapplebees
p7040
g2
(g6
S'\x98\x00\x00\x00'
p7041
tp7042
Rp7043
sVandrew
p7044
g2
(g6
S'\x84\x00\x00\x00'
p7045
tp7046
Rp7047
sV6s
p7048
g2
(g6
S'A\x00\x00\x00'
p7049
tp7050
Rp7051
sVruby
p7052
g2
(g6
S'\x0b\x07\x00\x00'
p7053
tp7054
Rp7055
sVspirit
p7056
g2
(g6
S'\xe6\x07\x00\x00'
p7057
tp7058
Rp7059
sVcase
p7060
g2
(g6
S'm\x01\x00\x00'
p7061
tp7062
Rp7063
sVcash
p7064
g2
(g6
S'n\x01\x00\x00'
p7065
tp7066
Rp7067
sVtrick
p7068
g2
(g6
S'\xc2\x08\x00\x00'
p7069
tp7070
Rp7071
sVcast
p7072
g2
(g6
S'p\x01\x00\x00'
p7073
tp7074
Rp7075
sVcoolest
p7076
g2
(g6
S'\xf9\x01\x00\x00'
p7077
tp7078
Rp7079
sVgood
p7080
g2
(g6
S'\xbd\x03\x00\x00'
p7081
tp7082
Rp7083
sVheels
p7084
g2
(g6
S'\x0b\x04\x00\x00'
p7085
tp7086
Rp7087
sVsomebody
p7088
g2
(g6
S'\xcd\x07\x00\x00'
p7089
tp7090
Rp7091
sVhens
p7092
g2
(g6
S'\x15\x04\x00\x00'
p7093
tp7094
Rp7095
sVship
p7096
g2
(g6
S'x\x07\x00\x00'
p7097
tp7098
Rp7099
sVworry
p7100
g2
(g6
S'\x80\t\x00\x00'
p7101
tp7102
Rp7103
sVmedia
p7104
g2
(g6
S'A\x05\x00\x00'
p7105
tp7106
Rp7107
sVtrip
p7108
g2
(g6
S'\xc6\x08\x00\x00'
p7109
tp7110
Rp7111
sVceo
p7112
g2
(g6
S'\x81\x01\x00\x00'
p7113
tp7114
Rp7115
sVfollowers
p7116
g2
(g6
S'h\x03\x00\x00'
p7117
tp7118
Rp7119
sVweek
p7120
g2
(g6
S'I\t\x00\x00'
p7121
tp7122
Rp7123
sVfinish
p7124
g2
(g6
S'T\x03\x00\x00'
p7125
tp7126
Rp7127
sVclosest
p7128
g2
(g6
S'\xbd\x01\x00\x00'
p7129
tp7130
Rp7131
sVdriver
p7132
g2
(g6
S'\xae\x02\x00\x00'
p7133
tp7134
Rp7135
sVfavorites
p7136
g2
(g6
S'1\x03\x00\x00'
p7137
tp7138
Rp7139
sVchanging
p7140
g2
(g6
S'\x8b\x01\x00\x00'
p7141
tp7142
Rp7143
sVcharges
p7144
g2
(g6
S'\x90\x01\x00\x00'
p7145
tp7146
Rp7147
sVmodel
p7148
g2
(g6
S'k\x05\x00\x00'
p7149
tp7150
Rp7151
sVresearchers
p7152
g2
(g6
S'\xdd\x06\x00\x00'
p7153
tp7154
Rp7155
sVviolence
p7156
g2
(g6
S'\x1d\t\x00\x00'
p7157
tp7158
Rp7159
sVneon
p7160
g2
(g6
S'\xa5\x05\x00\x00'
p7161
tp7162
Rp7163
sVtouch
p7164
g2
(g6
S'\xaa\x08\x00\x00'
p7165
tp7166
Rp7167
sVtis
p7168
g2
(g6
S'\x9d\x08\x00\x00'
p7169
tp7170
Rp7171
sVspeed
p7172
g2
(g6
S'\xe0\x07\x00\x00'
p7173
tp7174
Rp7175
sVguides
p7176
g2
(g6
S'\xda\x03\x00\x00'
p7177
tp7178
Rp7179
sVps4
p7180
g2
(g6
S'\x8e\x06\x00\x00'
p7181
tp7182
Rp7183
sVdeath
p7184
g2
(g6
S'F\x02\x00\x00'
p7185
tp7186
Rp7187
sVthinking
p7188
g2
(g6
S'\x85\x08\x00\x00'
p7189
tp7190
Rp7191
sVblog
p7192
g2
(g6
S'\x03\x01\x00\x00'
p7193
tp7194
Rp7195
sVlets
p7196
g2
(g6
S'\xdf\x04\x00\x00'
p7197
tp7198
Rp7199
sVsetting
p7200
g2
(g6
S'f\x07\x00\x00'
p7201
tp7202
Rp7203
sVchagne
p7204
g2
(g6
S'\x85\x01\x00\x00'
p7205
tp7206
Rp7207
sVhalftime
p7208
g2
(g6
S'\xe1\x03\x00\x00'
p7209
tp7210
Rp7211
sVtheyre
p7212
g2
(g6
S'\x81\x08\x00\x00'
p7213
tp7214
Rp7215
sVhover
p7216
g2
(g6
S'C\x04\x00\x00'
p7217
tp7218
Rp7219
sVspectacular
p7220
g2
(g6
S'\xdf\x07\x00\x00'
p7221
tp7222
Rp7223
sVread
p7224
g2
(g6
S'\xb4\x06\x00\x00'
p7225
tp7226
Rp7227
sVpsa
p7228
g2
(g6
S'\x8f\x06\x00\x00'
p7229
tp7230
Rp7231
sVgonna
p7232
g2
(g6
S'\xbc\x03\x00\x00'
p7233
tp7234
Rp7235
sVearly
p7236
g2
(g6
S'\xbb\x02\x00\x00'
p7237
tp7238
Rp7239
sVlistening
p7240
g2
(g6
S'\xf1\x04\x00\x00'
p7241
tp7242
Rp7243
sVusing
p7244
g2
(g6
S'\x08\t\x00\x00'
p7245
tp7246
Rp7247
sVpst
p7248
g2
(g6
S'\x91\x06\x00\x00'
p7249
tp7250
Rp7251
sVpounds
p7252
g2
(g6
S'a\x06\x00\x00'
p7253
tp7254
Rp7255
sVpet
p7256
g2
(g6
S'\x1a\x06\x00\x00'
p7257
tp7258
Rp7259
sVbracelet
p7260
g2
(g6
S' \x01\x00\x00'
p7261
tp7262
Rp7263
sVblackberry
p7264
g2
(g6
S'\xfe\x00\x00\x00'
p7265
tp7266
Rp7267
sVcompetition
p7268
g2
(g6
S'\xdf\x01\x00\x00'
p7269
tp7270
Rp7271
sVviral
p7272
g2
(g6
S'\x1f\t\x00\x00'
p7273
tp7274
Rp7275
sVslice
p7276
g2
(g6
S'\xac\x07\x00\x00'
p7277
tp7278
Rp7279
sVcaribbean
p7280
g2
(g6
S'g\x01\x00\x00'
p7281
tp7282
Rp7283
sVfootball
p7284
g2
(g6
S'l\x03\x00\x00'
p7285
tp7286
Rp7287
sVbusiness
p7288
g2
(g6
S'G\x01\x00\x00'
p7289
tp7290
Rp7291
sVexciting
p7292
g2
(g6
S'\xf8\x02\x00\x00'
p7293
tp7294
Rp7295
sVthrow
p7296
g2
(g6
S'\x8e\x08\x00\x00'
p7297
tp7298
Rp7299
sViger
p7300
g2
(g6
S'U\x04\x00\x00'
p7301
tp7302
Rp7303
sVcentral
p7304
g2
(g6
S'\x80\x01\x00\x00'
p7305
tp7306
Rp7307
sVoh
p7308
g2
(g6
S'\xcd\x05\x00\x00'
p7309
tp7310
Rp7311
sVjeep
p7312
g2
(g6
S'\x8b\x04\x00\x00'
p7313
tp7314
Rp7315
sVshrimp
p7316
g2
(g6
S'\x8e\x07\x00\x00'
p7317
tp7318
Rp7319
sVjourney
p7320
g2
(g6
S'\x97\x04\x00\x00'
p7321
tp7322
Rp7323
sVstand
p7324
g2
(g6
S'\xf4\x07\x00\x00'
p7325
tp7326
Rp7327
sVdiscusses
p7328
g2
(g6
S'\x82\x02\x00\x00'
p7329
tp7330
Rp7331
sVbackup
p7332
g2
(g6
S'\xc0\x00\x00\x00'
p7333
tp7334
Rp7335
sVladies
p7336
g2
(g6
S'\xc1\x04\x00\x00'
p7337
tp7338
Rp7339
sVsnapchat
p7340
g2
(g6
S'\xbd\x07\x00\x00'
p7341
tp7342
Rp7343
sVrolling
p7344
g2
(g6
S'\x00\x07\x00\x00'
p7345
tp7346
Rp7347
sV01am
p7348
g2
(g6
S'\x01\x00\x00\x00'
p7349
tp7350
Rp7351
sVprepare
p7352
g2
(g6
S'l\x06\x00\x00'
p7353
tp7354
Rp7355
sVaren
p7356
g2
(g6
S'\x9f\x00\x00\x00'
p7357
tp7358
Rp7359
sVqualifying
p7360
g2
(g6
S'\xa3\x06\x00\x00'
p7361
tp7362
Rp7363
sVstart
p7364
g2
(g6
S'\xf9\x07\x00\x00'
p7365
tp7366
Rp7367
sVcats
p7368
g2
(g6
S'u\x01\x00\x00'
p7369
tp7370
Rp7371
sVlow
p7372
g2
(g6
S'\x0e\x05\x00\x00'
p7373
tp7374
Rp7375
sVstars
p7376
g2
(g6
S'\xf8\x07\x00\x00'
p7377
tp7378
Rp7379
sVenergy
p7380
g2
(g6
S'\xda\x02\x00\x00'
p7381
tp7382
Rp7383
sVshower
p7384
g2
(g6
S'\x89\x07\x00\x00'
p7385
tp7386
Rp7387
sVhard
p7388
g2
(g6
S'\xf2\x03\x00\x00'
p7389
tp7390
Rp7391
sVmultitasking
p7392
g2
(g6
S'\x8d\x05\x00\x00'
p7393
tp7394
Rp7395
sVtrying
p7396
g2
(g6
S'\xd5\x08\x00\x00'
p7397
tp7398
Rp7399
sVlonger
p7400
g2
(g6
S'\xfe\x04\x00\x00'
p7401
tp7402
Rp7403
sVgrass
p7404
g2
(g6
S'\xc7\x03\x00\x00'
p7405
tp7406
Rp7407
sVtaste
p7408
g2
(g6
S'd\x08\x00\x00'
p7409
tp7410
Rp7411
sVtotaling
p7412
g2
(g6
S'\xa7\x08\x00\x00'
p7413
tp7414
Rp7415
sVsales
p7416
g2
(g6
S'\x1b\x07\x00\x00'
p7417
tp7418
Rp7419
sVtasty
p7420
g2
(g6
S'f\x08\x00\x00'
p7421
tp7422
Rp7423
sVmoves
p7424
g2
(g6
S'\x82\x05\x00\x00'
p7425
tp7426
Rp7427
sVhit
p7428
g2
(g6
S'&\x04\x00\x00'
p7429
tp7430
Rp7431
sVannouncements
p7432
g2
(g6
S'\x8d\x00\x00\x00'
p7433
tp7434
Rp7435
sVpoor
p7436
g2
(g6
S'T\x06\x00\x00'
p7437
tp7438
Rp7439
sVartist
p7440
g2
(g6
S'\xa6\x00\x00\x00'
p7441
tp7442
Rp7443
sVincludes
p7444
g2
(g6
S'^\x04\x00\x00'
p7445
tp7446
Rp7447
sVpeak
p7448
g2
(g6
S'\x0c\x06\x00\x00'
p7449
tp7450
Rp7451
sVcoverage
p7452
g2
(g6
S'\x11\x02\x00\x00'
p7453
tp7454
Rp7455
sVincluded
p7456
g2
(g6
S']\x04\x00\x00'
p7457
tp7458
Rp7459
sVpool
p7460
g2
(g6
S'S\x06\x00\x00'
p7461
tp7462
Rp7463
sVbuilding
p7464
g2
(g6
S'>\x01\x00\x00'
p7465
tp7466
Rp7467
sVcalls
p7468
g2
(g6
S'U\x01\x00\x00'
p7469
tp7470
Rp7471
sVwife
p7472
g2
(g6
S'Y\t\x00\x00'
p7473
tp7474
Rp7475
sVwifi
p7476
g2
(g6
S'Z\t\x00\x00'
p7477
tp7478
Rp7479
sVcontemporary
p7480
g2
(g6
S'\xee\x01\x00\x00'
p7481
tp7482
Rp7483
sVwebsites
p7484
g2
(g6
S'F\t\x00\x00'
p7485
tp7486
Rp7487
sVwithcnctd
p7488
g2
(g6
S'l\t\x00\x00'
p7489
tp7490
Rp7491
sVlack
p7492
g2
(g6
S'\xc0\x04\x00\x00'
p7493
tp7494
Rp7495
sVmonth
p7496
g2
(g6
S'v\x05\x00\x00'
p7497
tp7498
Rp7499
sVcoach
p7500
g2
(g6
S'\xc2\x01\x00\x00'
p7501
tp7502
Rp7503
sVdish
p7504
g2
(g6
S'\x83\x02\x00\x00'
p7505
tp7506
Rp7507
sVfollow
p7508
g2
(g6
S'g\x03\x00\x00'
p7509
tp7510
Rp7511
sVcarpet
p7512
g2
(g6
S'h\x01\x00\x00'
p7513
tp7514
Rp7515
sVwyoming
p7516
g2
(g6
S'\x8e\t\x00\x00'
p7517
tp7518
Rp7519
sVprogram
p7520
g2
(g6
S'\x88\x06\x00\x00'
p7521
tp7522
Rp7523
sVslippers
p7524
g2
(g6
S'\xae\x07\x00\x00'
p7525
tp7526
Rp7527
sVsong
p7528
g2
(g6
S'\xd0\x07\x00\x00'
p7529
tp7530
Rp7531
sVfar
p7532
g2
(g6
S'%\x03\x00\x00'
p7533
tp7534
Rp7535
sVhorror
p7536
g2
(g6
S'8\x04\x00\x00'
p7537
tp7538
Rp7539
sVfav
p7540
g2
(g6
S',\x03\x00\x00'
p7541
tp7542
Rp7543
sVfat
p7544
g2
(g6
S'*\x03\x00\x00'
p7545
tp7546
Rp7547
sVselfies
p7548
g2
(g6
S'W\x07\x00\x00'
p7549
tp7550
Rp7551
sVsmartphones
p7552
g2
(g6
S'\xb3\x07\x00\x00'
p7553
tp7554
Rp7555
sVfan
p7556
g2
(g6
S' \x03\x00\x00'
p7557
tp7558
Rp7559
sVenter
p7560
g2
(g6
S'\xe0\x02\x00\x00'
p7561
tp7562
Rp7563
sVlist
p7564
g2
(g6
S'\xee\x04\x00\x00'
p7565
tp7566
Rp7567
sVvibes
p7568
g2
(g6
S'\x14\t\x00\x00'
p7569
tp7570
Rp7571
sVsmith
p7572
g2
(g6
S'\xba\x07\x00\x00'
p7573
tp7574
Rp7575
sVcookies
p7576
g2
(g6
S'\xf7\x01\x00\x00'
p7577
tp7578
Rp7579
sVinstagram
p7580
g2
(g6
S'h\x04\x00\x00'
p7581
tp7582
Rp7583
sVtea
p7584
g2
(g6
S'k\x08\x00\x00'
p7585
tp7586
Rp7587
sVtee
p7588
g2
(g6
S'o\x08\x00\x00'
p7589
tp7590
Rp7591
sVdesign
p7592
g2
(g6
S'`\x02\x00\x00'
p7593
tp7594
Rp7595
sVcasual
p7596
g2
(g6
S'q\x01\x00\x00'
p7597
tp7598
Rp7599
sVpinterest
p7600
g2
(g6
S'6\x06\x00\x00'
p7601
tp7602
Rp7603
sVsun
p7604
g2
(g6
S'3\x08\x00\x00'
p7605
tp7606
Rp7607
sVcrush
p7608
g2
(g6
S'#\x02\x00\x00'
p7609
tp7610
Rp7611
sVjedi
p7612
g2
(g6
S'\x8a\x04\x00\x00'
p7613
tp7614
Rp7615
sVversion
p7616
g2
(g6
S'\x12\t\x00\x00'
p7617
tp7618
Rp7619
sVtoes
p7620
g2
(g6
S'\x9f\x08\x00\x00'
p7621
tp7622
Rp7623
sVloose
p7624
g2
(g6
S'\x03\x05\x00\x00'
p7625
tp7626
Rp7627
sVanswers
p7628
g2
(g6
S'\x92\x00\x00\x00'
p7629
tp7630
Rp7631
sVtracks
p7632
g2
(g6
S'\xb0\x08\x00\x00'
p7633
tp7634
Rp7635
sVstrong
p7636
g2
(g6
S' \x08\x00\x00'
p7637
tp7638
Rp7639
sVahead
p7640
g2
(g6
S'o\x00\x00\x00'
p7641
tp7642
Rp7643
sVinspired
p7644
g2
(g6
S'g\x04\x00\x00'
p7645
tp7646
Rp7647
sVsuretap
p7648
g2
(g6
S'<\x08\x00\x00'
p7649
tp7650
Rp7651
sVarent
p7652
g2
(g6
S'\xa0\x00\x00\x00'
p7653
tp7654
Rp7655
sVoptions
p7656
g2
(g6
S'\xd8\x05\x00\x00'
p7657
tp7658
Rp7659
sVtoys
p7660
g2
(g6
S'\xaf\x08\x00\x00'
p7661
tp7662
Rp7663
sVtakes
p7664
g2
(g6
S'[\x08\x00\x00'
p7665
tp7666
Rp7667
sVtaken
p7668
g2
(g6
S'Y\x08\x00\x00'
p7669
tp7670
Rp7671
sVknows
p7672
g2
(g6
S'\xbb\x04\x00\x00'
p7673
tp7674
Rp7675
sVpairs
p7676
g2
(g6
S'\xf4\x05\x00\x00'
p7677
tp7678
Rp7679
sVexcuse
p7680
g2
(g6
S'\xfb\x02\x00\x00'
p7681
tp7682
Rp7683
sVdomination
p7684
g2
(g6
S'\x97\x02\x00\x00'
p7685
tp7686
Rp7687
sVbasically
p7688
g2
(g6
S'\xd0\x00\x00\x00'
p7689
tp7690
Rp7691
sVknown
p7692
g2
(g6
S'\xba\x04\x00\x00'
p7693
tp7694
Rp7695
sV7000
p7696
g2
(g6
S'C\x00\x00\x00'
p7697
tp7698
Rp7699
sVhistory
p7700
g2
(g6
S'%\x04\x00\x00'
p7701
tp7702
Rp7703
sVsmartphone
p7704
g2
(g6
S'\xb2\x07\x00\x00'
p7705
tp7706
Rp7707
sVairplane
p7708
g2
(g6
S's\x00\x00\x00'
p7709
tp7710
Rp7711
sVfirmly
p7712
g2
(g6
S'W\x03\x00\x00'
p7713
tp7714
Rp7715
sVbeef
p7716
g2
(g6
S'\xe2\x00\x00\x00'
p7717
tp7718
Rp7719
sVgoal
p7720
g2
(g6
S'\xb1\x03\x00\x00'
p7721
tp7722
Rp7723
sVsurpassed
p7724
g2
(g6
S'>\x08\x00\x00'
p7725
tp7726
Rp7727
sVmenus
p7728
g2
(g6
S'L\x05\x00\x00'
p7729
tp7730
Rp7731
sVexplains
p7732
g2
(g6
S'\x07\x03\x00\x00'
p7733
tp7734
Rp7735
sVgoat
p7736
g2
(g6
S'\xb3\x03\x00\x00'
p7737
tp7738
Rp7739
sVcredible
p7740
g2
(g6
S'\x1c\x02\x00\x00'
p7741
tp7742
Rp7743
sVsandwich
p7744
g2
(g6
S'"\x07\x00\x00'
p7745
tp7746
Rp7747
sVokay
p7748
g2
(g6
S'\xce\x05\x00\x00'
p7749
tp7750
Rp7751
sVjalouzi
p7752
g2
(g6
S'\x83\x04\x00\x00'
p7753
tp7754
Rp7755
sVsneak
p7756
g2
(g6
S'\xbe\x07\x00\x00'
p7757
tp7758
Rp7759
sVreflect
p7760
g2
(g6
S'\xc7\x06\x00\x00'
p7761
tp7762
Rp7763
sVadventure
p7764
g2
(g6
S'd\x00\x00\x00'
p7765
tp7766
Rp7767
sVfi
p7768
g2
(g6
S'D\x03\x00\x00'
p7769
tp7770
Rp7771
sVshort
p7772
g2
(g6
S'\x84\x07\x00\x00'
p7773
tp7774
Rp7775
sVshade
p7776
g2
(g6
S'k\x07\x00\x00'
p7777
tp7778
Rp7779
sVcing
p7780
g2
(g6
S'\xaa\x01\x00\x00'
p7781
tp7782
Rp7783
sVdream
p7784
g2
(g6
S'\xa5\x02\x00\x00'
p7785
tp7786
Rp7787
sVhelp
p7788
g2
(g6
S'\x11\x04\x00\x00'
p7789
tp7790
Rp7791
sVsoon
p7792
g2
(g6
S'\xd2\x07\x00\x00'
p7793
tp7794
Rp7795
sVfabrics
p7796
g2
(g6
S'\x10\x03\x00\x00'
p7797
tp7798
Rp7799
sVheld
p7800
g2
(g6
S'\x0e\x04\x00\x00'
p7801
tp7802
Rp7803
sVhell
p7804
g2
(g6
S'\x0f\x04\x00\x00'
p7805
tp7806
Rp7807
sVmcdonalds
p7808
g2
(g6
S';\x05\x00\x00'
p7809
tp7810
Rp7811
sVdont
p7812
g2
(g6
S'\x9b\x02\x00\x00'
p7813
tp7814
Rp7815
sVstyle
p7816
g2
(g6
S')\x08\x00\x00'
p7817
tp7818
Rp7819
sV3ds
p7820
g2
(g6
S'3\x00\x00\x00'
p7821
tp7822
Rp7823
sVactually
p7824
g2
(g6
S'W\x00\x00\x00'
p7825
tp7826
Rp7827
sVcharlottesville
p7828
g2
(g6
S'\x92\x01\x00\x00'
p7829
tp7830
Rp7831
sVpeanuts
p7832
g2
(g6
S'\r\x06\x00\x00'
p7833
tp7834
Rp7835
sVsoccer
p7836
g2
(g6
S'\xc3\x07\x00\x00'
p7837
tp7838
Rp7839
sVreturn
p7840
g2
(g6
S'\xe3\x06\x00\x00'
p7841
tp7842
Rp7843
sVces
p7844
g2
(g6
S'\x83\x01\x00\x00'
p7845
tp7846
Rp7847
sVfoot
p7848
g2
(g6
S'k\x03\x00\x00'
p7849
tp7850
Rp7851
sVadventurous
p7852
g2
(g6
S'f\x00\x00\x00'
p7853
tp7854
Rp7855
sVinstructions
p7856
g2
(g6
S'm\x04\x00\x00'
p7857
tp7858
Rp7859
sVgets
p7860
g2
(g6
S'\x9d\x03\x00\x00'
p7861
tp7862
Rp7863
sVholiday
p7864
g2
(g6
S',\x04\x00\x00'
p7865
tp7866
Rp7867
sVlevel
p7868
g2
(g6
S'\xe1\x04\x00\x00'
p7869
tp7870
Rp7871
sVrefresh
p7872
g2
(g6
S'\xc8\x06\x00\x00'
p7873
tp7874
Rp7875
sVcapability
p7876
g2
(g6
S'^\x01\x00\x00'
p7877
tp7878
Rp7879
sVpurch
p7880
g2
(g6
S'\x98\x06\x00\x00'
p7881
tp7882
Rp7883
sVman
p7884
g2
(g6
S'&\x05\x00\x00'
p7885
tp7886
Rp7887
sVfairy
p7888
g2
(g6
S'\x17\x03\x00\x00'
p7889
tp7890
Rp7891
sVtrailer
p7892
g2
(g6
S'\xb3\x08\x00\x00'
p7893
tp7894
Rp7895
sVpirates
p7896
g2
(g6
S'7\x06\x00\x00'
p7897
tp7898
Rp7899
sVevent
p7900
g2
(g6
S'\xf1\x02\x00\x00'
p7901
tp7902
Rp7903
sVwondered
p7904
g2
(g6
S'r\t\x00\x00'
p7905
tp7906
Rp7907
sVmiss
p7908
g2
(g6
S'`\x05\x00\x00'
p7909
tp7910
Rp7911
sVhear
p7912
g2
(g6
S'\x05\x04\x00\x00'
p7913
tp7914
Rp7915
sVsafety
p7916
g2
(g6
S'\x17\x07\x00\x00'
p7917
tp7918
Rp7919
sVparadise
p7920
g2
(g6
S'\xf7\x05\x00\x00'
p7921
tp7922
Rp7923
sVdirt
p7924
g2
(g6
S'}\x02\x00\x00'
p7925
tp7926
Rp7927
sVfriday
p7928
g2
(g6
S'|\x03\x00\x00'
p7929
tp7930
Rp7931
sVstory
p7932
g2
(g6
S'\x18\x08\x00\x00'
p7933
tp7934
Rp7935
sVreason
p7936
g2
(g6
S'\xba\x06\x00\x00'
p7937
tp7938
Rp7939
sVcookie
p7940
g2
(g6
S'\xf6\x01\x00\x00'
p7941
tp7942
Rp7943
sVask
p7944
g2
(g6
S'\xa8\x00\x00\x00'
p7945
tp7946
Rp7947
sVhardware
p7948
g2
(g6
S'\xf4\x03\x00\x00'
p7949
tp7950
Rp7951
sVlaunch
p7952
g2
(g6
S'\xcd\x04\x00\x00'
p7953
tp7954
Rp7955
sVcheering
p7956
g2
(g6
S'\x98\x01\x00\x00'
p7957
tp7958
Rp7959
sVamerican
p7960
g2
(g6
S'\x80\x00\x00\x00'
p7961
tp7962
Rp7963
sVthreat
p7964
g2
(g6
S'\x8b\x08\x00\x00'
p7965
tp7966
Rp7967
sVrsvps
p7968
g2
(g6
S'\x08\x07\x00\x00'
p7969
tp7970
Rp7971
sVfeel
p7972
g2
(g6
S'=\x03\x00\x00'
p7973
tp7974
Rp7975
sVfancy
p7976
g2
(g6
S'!\x03\x00\x00'
p7977
tp7978
Rp7979
sVfeet
p7980
g2
(g6
S'A\x03\x00\x00'
p7981
tp7982
Rp7983
sVsays
p7984
g2
(g6
S'0\x07\x00\x00'
p7985
tp7986
Rp7987
sVsoaps
p7988
g2
(g6
S'\xc1\x07\x00\x00'
p7989
tp7990
Rp7991
sVmaple
p7992
g2
(g6
S'*\x05\x00\x00'
p7993
tp7994
Rp7995
sVhorse
p7996
g2
(g6
S'9\x04\x00\x00'
p7997
tp7998
Rp7999
sVleading
p8000
g2
(g6
S'\xd2\x04\x00\x00'
p8001
tp8002
Rp8003
sVbrisket
p8004
g2
(g6
S'2\x01\x00\x00'
p8005
tp8006
Rp8007
sVcomfy
p8008
g2
(g6
S'\xd5\x01\x00\x00'
p8009
tp8010
Rp8011
sVstation
p8012
g2
(g6
S'\x00\x08\x00\x00'
p8013
tp8014
Rp8015
sVwarming
p8016
g2
(g6
S'6\t\x00\x00'
p8017
tp8018
Rp8019
sVstorm
p8020
g2
(g6
S'\x17\x08\x00\x00'
p8021
tp8022
Rp8023
sVstore
p8024
g2
(g6
S'\x14\x08\x00\x00'
p8025
tp8026
Rp8027
sVsign
p8028
g2
(g6
S'\x93\x07\x00\x00'
p8029
tp8030
Rp8031
sVking
p8032
g2
(g6
S'\xb3\x04\x00\x00'
p8033
tp8034
Rp8035
sVgrocery
p8036
g2
(g6
S'\xd1\x03\x00\x00'
p8037
tp8038
Rp8039
sVdouble
p8040
g2
(g6
S'\x9d\x02\x00\x00'
p8041
tp8042
Rp8043
sVkindle
p8044
g2
(g6
S'\xb2\x04\x00\x00'
p8045
tp8046
Rp8047
sVkidding
p8048
g2
(g6
S'\xab\x04\x00\x00'
p8049
tp8050
Rp8051
sValongside
p8052
g2
(g6
S'z\x00\x00\x00'
p8053
tp8054
Rp8055
sVgala
p8056
g2
(g6
S'\x8d\x03\x00\x00'
p8057
tp8058
Rp8059
sVlie
p8060
g2
(g6
S'\xe3\x04\x00\x00'
p8061
tp8062
Rp8063
sVnights
p8064
g2
(g6
S'\xb3\x05\x00\x00'
p8065
tp8066
Rp8067
sVlil
p8068
g2
(g6
S'\xea\x04\x00\x00'
p8069
tp8070
Rp8071
sVfinding
p8072
g2
(g6
S'P\x03\x00\x00'
p8073
tp8074
Rp8075
sVaired
p8076
g2
(g6
S'r\x00\x00\x00'
p8077
tp8078
Rp8079
sVexperienced
p8080
g2
(g6
S'\x03\x03\x00\x00'
p8081
tp8082
Rp8083
sVelectric
p8084
g2
(g6
S'\xca\x02\x00\x00'
p8085
tp8086
Rp8087
sVexec
p8088
g2
(g6
S'\xfc\x02\x00\x00'
p8089
tp8090
Rp8091
sVcustomize
p8092
g2
(g6
S'+\x02\x00\x00'
p8093
tp8094
Rp8095
sVquote
p8096
g2
(g6
S'\xab\x06\x00\x00'
p8097
tp8098
Rp8099
sVmacy
p8100
g2
(g6
S'\x17\x05\x00\x00'
p8101
tp8102
Rp8103
sV75
p8104
g2
(g6
S'D\x00\x00\x00'
p8105
tp8106
Rp8107
sVgilt
p8108
g2
(g6
S'\xa4\x03\x00\x00'
p8109
tp8110
Rp8111
sVseasons
p8112
g2
(g6
S'I\x07\x00\x00'
p8113
tp8114
Rp8115
sVmobile
p8116
g2
(g6
S'i\x05\x00\x00'
p8117
tp8118
Rp8119
sVclear
p8120
g2
(g6
S'\xb6\x01\x00\x00'
p8121
tp8122
Rp8123
sV10am
p8124
g2
(g6
S'\x04\x00\x00\x00'
p8125
tp8126
Rp8127
sVclean
p8128
g2
(g6
S'\xb4\x01\x00\x00'
p8129
tp8130
Rp8131
sVstores
p8132
g2
(g6
S'\x15\x08\x00\x00'
p8133
tp8134
Rp8135
sVjustice
p8136
g2
(g6
S'\xa0\x04\x00\x00'
p8137
tp8138
Rp8139
sVpretty
p8140
g2
(g6
S't\x06\x00\x00'
p8141
tp8142
Rp8143
sVmike
p8144
g2
(g6
S'S\x05\x00\x00'
p8145
tp8146
Rp8147
sVkind
p8148
g2
(g6
S'\xb0\x04\x00\x00'
p8149
tp8150
Rp8151
sVtrees
p8152
g2
(g6
S'\xbd\x08\x00\x00'
p8153
tp8154
Rp8155
sVfamous
p8156
g2
(g6
S'\x1f\x03\x00\x00'
p8157
tp8158
Rp8159
sVtimeless
p8160
g2
(g6
S'\x96\x08\x00\x00'
p8161
tp8162
Rp8163
sVrecommendations
p8164
g2
(g6
S'\xc3\x06\x00\x00'
p8165
tp8166
Rp8167
sVart
p8168
g2
(g6
S'\xa5\x00\x00\x00'
p8169
tp8170
Rp8171
sVdump
p8172
g2
(g6
S'\xb6\x02\x00\x00'
p8173
tp8174
Rp8175
sVthrowing
p8176
g2
(g6
S'\x90\x08\x00\x00'
p8177
tp8178
Rp8179
sVarrives
p8180
g2
(g6
S'\xa4\x00\x00\x00'
p8181
tp8182
Rp8183
sVmantra
p8184
g2
(g6
S')\x05\x00\x00'
p8185
tp8186
Rp8187
sVclose
p8188
g2
(g6
S'\xbb\x01\x00\x00'
p8189
tp8190
Rp8191
sVsportswear
p8192
g2
(g6
S'\xeb\x07\x00\x00'
p8193
tp8194
Rp8195
sVcalifornication
p8196
g2
(g6
S'R\x01\x00\x00'
p8197
tp8198
Rp8199
sVpictures
p8200
g2
(g6
S'*\x06\x00\x00'
p8201
tp8202
Rp8203
sVwow
p8204
g2
(g6
S'\x85\t\x00\x00'
p8205
tp8206
Rp8207
sVwon
p8208
g2
(g6
S'p\t\x00\x00'
p8209
tp8210
Rp8211
sVprobably
p8212
g2
(g6
S'\x82\x06\x00\x00'
p8213
tp8214
Rp8215
sVrecently
p8216
g2
(g6
S'\xbf\x06\x00\x00'
p8217
tp8218
Rp8219
sVcreating
p8220
g2
(g6
S'\x1a\x02\x00\x00'
p8221
tp8222
Rp8223
sVmissing
p8224
g2
(g6
S'b\x05\x00\x00'
p8225
tp8226
Rp8227
sVsold
p8228
g2
(g6
S'\xc6\x07\x00\x00'
p8229
tp8230
Rp8231
sVsole
p8232
g2
(g6
S'\xc8\x07\x00\x00'
p8233
tp8234
Rp8235
sVoutfit
p8236
g2
(g6
S'\xe5\x05\x00\x00'
p8237
tp8238
Rp8239
sVunstoppable
p8240
g2
(g6
S'\xf4\x08\x00\x00'
p8241
tp8242
Rp8243
sVranked
p8244
g2
(g6
S'\xb1\x06\x00\x00'
p8245
tp8246
Rp8247
sVsecrets
p8248
g2
(g6
S'M\x07\x00\x00'
p8249
tp8250
Rp8251
sVbuzz
p8252
g2
(g6
S'K\x01\x00\x00'
p8253
tp8254
Rp8255
sVfinds
p8256
g2
(g6
S'Q\x03\x00\x00'
p8257
tp8258
Rp8259
sVchildhood
p8260
g2
(g6
S'\xa0\x01\x00\x00'
p8261
tp8262
Rp8263
sVjeff
p8264
g2
(g6
S'\x8c\x04\x00\x00'
p8265
tp8266
Rp8267
sVbattery
p8268
g2
(g6
S'\xd2\x00\x00\x00'
p8269
tp8270
Rp8271
sVlikes
p8272
g2
(g6
S'\xe9\x04\x00\x00'
p8273
tp8274
Rp8275
sVmission
p8276
g2
(g6
S'c\x05\x00\x00'
p8277
tp8278
Rp8279
sVpc
p8280
g2
(g6
S'\x0b\x06\x00\x00'
p8281
tp8282
Rp8283
sVwait
p8284
g2
(g6
S')\t\x00\x00'
p8285
tp8286
Rp8287
sVflight
p8288
g2
(g6
S'a\x03\x00\x00'
p8289
tp8290
Rp8291
sVpacks
p8292
g2
(g6
S'\xf0\x05\x00\x00'
p8293
tp8294
Rp8295
sVwet
p8296
g2
(g6
S'O\t\x00\x00'
p8297
tp8298
Rp8299
sVrecalled
p8300
g2
(g6
S'\xbc\x06\x00\x00'
p8301
tp8302
Rp8303
sVdemand
p8304
g2
(g6
S'W\x02\x00\x00'
p8305
tp8306
Rp8307
sVrocking
p8308
g2
(g6
S'\xfd\x06\x00\x00'
p8309
tp8310
Rp8311
sVdialing
p8312
g2
(g6
S'l\x02\x00\x00'
p8313
tp8314
Rp8315
sV6oz
p8316
g2
(g6
S'@\x00\x00\x00'
p8317
tp8318
Rp8319
sVlook
p8320
g2
(g6
S'\xff\x04\x00\x00'
p8321
tp8322
Rp8323
sVfrozen
p8324
g2
(g6
S'\x86\x03\x00\x00'
p8325
tp8326
Rp8327
sVtriplehhttg
p8328
g2
(g6
S'\xc8\x08\x00\x00'
p8329
tp8330
Rp8331
sVguide
p8332
g2
(g6
S'\xd9\x03\x00\x00'
p8333
tp8334
Rp8335
sVready
p8336
g2
(g6
S'\xb5\x06\x00\x00'
p8337
tp8338
Rp8339
sVrib
p8340
g2
(g6
S'\xec\x06\x00\x00'
p8341
tp8342
Rp8343
sVanymore
p8344
g2
(g6
S'\x93\x00\x00\x00'
p8345
tp8346
Rp8347
sVgrand
p8348
g2
(g6
S'\xc5\x03\x00\x00'
p8349
tp8350
Rp8351
sVnyongo
p8352
g2
(g6
S'\xc1\x05\x00\x00'
p8353
tp8354
Rp8355
sVused
p8356
g2
(g6
S'\x03\t\x00\x00'
p8357
tp8358
Rp8359
sVbonus
p8360
g2
(g6
S'\x12\x01\x00\x00'
p8361
tp8362
Rp8363
sVholidays
p8364
g2
(g6
S'-\x04\x00\x00'
p8365
tp8366
Rp8367
sV000
p8368
g2
(g6
S'\x00\x00\x00\x00'
p8369
tp8370
Rp8371
sVuses
p8372
g2
(g6
S'\x07\t\x00\x00'
p8373
tp8374
Rp8375
sVcleaning
p8376
g2
(g6
S'\xb5\x01\x00\x00'
p8377
tp8378
Rp8379
sVminecraft
p8380
g2
(g6
S'Z\x05\x00\x00'
p8381
tp8382
Rp8383
sVcherokee
p8384
g2
(g6
S'\x9b\x01\x00\x00'
p8385
tp8386
Rp8387
sVcheer
p8388
g2
(g6
S'\x97\x01\x00\x00'
p8389
tp8390
Rp8391
sVedge
p8392
g2
(g6
S'\xc4\x02\x00\x00'
p8393
tp8394
Rp8395
sVbirthday
p8396
g2
(g6
S'\xfa\x00\x00\x00'
p8397
tp8398
Rp8399
sVussernmurrl
p8400
g2
(g6
S'\x0b\t\x00\x00'
p8401
tp8402
Rp8403
sVquestions
p8404
g2
(g6
S'\xa6\x06\x00\x00'
p8405
tp8406
Rp8407
sVroasted
p8408
g2
(g6
S'\xf7\x06\x00\x00'
p8409
tp8410
Rp8411
sVuseful
p8412
g2
(g6
S'\x04\t\x00\x00'
p8413
tp8414
Rp8415
sVcouch
p8416
g2
(g6
S'\x04\x02\x00\x00'
p8417
tp8418
Rp8419
sVadrienne
p8420
g2
(g6
S'a\x00\x00\x00'
p8421
tp8422
Rp8423
sVworkers
p8424
g2
(g6
S'y\t\x00\x00'
p8425
tp8426
Rp8427
sVcarat
p8428
g2
(g6
S'b\x01\x00\x00'
p8429
tp8430
Rp8431
sVexclusively
p8432
g2
(g6
S'\xfa\x02\x00\x00'
p8433
tp8434
Rp8435
sVback1x
p8436
g2
(g6
S'\xbe\x00\x00\x00'
p8437
tp8438
Rp8439
sVcustomers
p8440
g2
(g6
S')\x02\x00\x00'
p8441
tp8442
Rp8443
sVmarch
p8444
g2
(g6
S',\x05\x00\x00'
p8445
tp8446
Rp8447
sVfinalists
p8448
g2
(g6
S'N\x03\x00\x00'
p8449
tp8450
Rp8451
sVgame
p8452
g2
(g6
S'\x8f\x03\x00\x00'
p8453
tp8454
Rp8455
sVshaped
p8456
g2
(g6
S'l\x07\x00\x00'
p8457
tp8458
Rp8459
sVsignal
p8460
g2
(g6
S'\x94\x07\x00\x00'
p8461
tp8462
Rp8463
sVpopular
p8464
g2
(g6
S'X\x06\x00\x00'
p8465
tp8466
Rp8467
sVessential
p8468
g2
(g6
S'\xed\x02\x00\x00'
p8469
tp8470
Rp8471
sVsketch
p8472
g2
(g6
S'\xa3\x07\x00\x00'
p8473
tp8474
Rp8475
sVsaturdays
p8476
g2
(g6
S"'\x07\x00\x00"
p8477
tp8478
Rp8479
sVstreaming
p8480
g2
(g6
S'\x1b\x08\x00\x00'
p8481
tp8482
Rp8483
sVtrends
p8484
g2
(g6
S'\xc0\x08\x00\x00'
p8485
tp8486
Rp8487
sVpreparing
p8488
g2
(g6
S'n\x06\x00\x00'
p8489
tp8490
Rp8491
sVluxe
p8492
g2
(g6
S'\x14\x05\x00\x00'
p8493
tp8494
Rp8495
sVdelivered
p8496
g2
(g6
S'Q\x02\x00\x00'
p8497
tp8498
Rp8499
sVretro
p8500
g2
(g6
S'\xe2\x06\x00\x00'
p8501
tp8502
Rp8503
sVanna
p8504
g2
(g6
S'\x89\x00\x00\x00'
p8505
tp8506
Rp8507
sVrun
p8508
g2
(g6
S'\x10\x07\x00\x00'
p8509
tp8510
Rp8511
sVrub
p8512
g2
(g6
S'\n\x07\x00\x00'
p8513
tp8514
Rp8515
sVmartin
p8516
g2
(g6
S'0\x05\x00\x00'
p8517
tp8518
Rp8519
sVstep
p8520
g2
(g6
S'\n\x08\x00\x00'
p8521
tp8522
Rp8523
sVlasts
p8524
g2
(g6
S'\xc7\x04\x00\x00'
p8525
tp8526
Rp8527
sVtroops
p8528
g2
(g6
S'\xcc\x08\x00\x00'
p8529
tp8530
Rp8531
sVshine
p8532
g2
(g6
S'w\x07\x00\x00'
p8533
tp8534
Rp8535
sVsurfers
p8536
g2
(g6
S'=\x08\x00\x00'
p8537
tp8538
Rp8539
sVclassics
p8540
g2
(g6
S'\xb3\x01\x00\x00'
p8541
tp8542
Rp8543
sVblock
p8544
g2
(g6
S'\x01\x01\x00\x00'
p8545
tp8546
Rp8547
sVmiracles
p8548
g2
(g6
S'_\x05\x00\x00'
p8549
tp8550
Rp8551
sVseeing
p8552
g2
(g6
S'P\x07\x00\x00'
p8553
tp8554
Rp8555
sVwithtoday
p8556
g2
(g6
S'm\t\x00\x00'
p8557
tp8558
Rp8559
sVsports
p8560
g2
(g6
S'\xea\x07\x00\x00'
p8561
tp8562
Rp8563
sVfast
p8564
g2
(g6
S'(\x03\x00\x00'
p8565
tp8566
Rp8567
sVheritage
p8568
g2
(g6
S'\x17\x04\x00\x00'
p8569
tp8570
Rp8571
sVmsg
p8572
g2
(g6
S'\x87\x05\x00\x00'
p8573
tp8574
Rp8575
sVdelta
p8576
g2
(g6
S'V\x02\x00\x00'
p8577
tp8578
Rp8579
sVtryptophan
p8580
g2
(g6
S'\xd6\x08\x00\x00'
p8581
tp8582
Rp8583
sVskull
p8584
g2
(g6
S'\xa7\x07\x00\x00'
p8585
tp8586
Rp8587
sVfries
p8588
g2
(g6
S'\x83\x03\x00\x00'
p8589
tp8590
Rp8591
sVprep
p8592
g2
(g6
S'k\x06\x00\x00'
p8593
tp8594
Rp8595
sVwindows
p8596
g2
(g6
S'`\t\x00\x00'
p8597
tp8598
Rp8599
sVcalled
p8600
g2
(g6
S'S\x01\x00\x00'
p8601
tp8602
Rp8603
sV110
p8604
g2
(g6
S'\x06\x00\x00\x00'
p8605
tp8606
Rp8607
sVdill
p8608
g2
(g6
S'x\x02\x00\x00'
p8609
tp8610
Rp8611
sVordered
p8612
g2
(g6
S'\xdb\x05\x00\x00'
p8613
tp8614
Rp8615
sVstick
p8616
g2
(g6
S'\x0e\x08\x00\x00'
p8617
tp8618
Rp8619
sVdoesn
p8620
g2
(g6
S'\x92\x02\x00\x00'
p8621
tp8622
Rp8623
sVgecko
p8624
g2
(g6
S'\x97\x03\x00\x00'
p8625
tp8626
Rp8627
sVnab
p8628
g2
(g6
S'\x93\x05\x00\x00'
p8629
tp8630
Rp8631
sVnap
p8632
g2
(g6
S'\x96\x05\x00\x00'
p8633
tp8634
Rp8635
sVdepartment
p8636
g2
(g6
S'[\x02\x00\x00'
p8637
tp8638
Rp8639
sVnice
p8640
g2
(g6
S'\xb0\x05\x00\x00'
p8641
tp8642
Rp8643
sVdraw
p8644
g2
(g6
S'\xa4\x02\x00\x00'
p8645
tp8646
Rp8647
sVusers
p8648
g2
(g6
S'\x06\t\x00\x00'
p8649
tp8650
Rp8651
sVproblems
p8652
g2
(g6
S'\x84\x06\x00\x00'
p8653
tp8654
Rp8655
sVposters
p8656
g2
(g6
S'\\\x06\x00\x00'
p8657
tp8658
Rp8659
sVsamsungs
p8660
g2
(g6
S'\x1f\x07\x00\x00'
p8661
tp8662
Rp8663
sVdepth
p8664
g2
(g6
S']\x02\x00\x00'
p8665
tp8666
Rp8667
sVbedding
p8668
g2
(g6
S'\xe0\x00\x00\x00'
p8669
tp8670
Rp8671
sVmores
p8672
g2
(g6
S'x\x05\x00\x00'
p8673
tp8674
Rp8675
sVsteve
p8676
g2
(g6
S'\r\x08\x00\x00'
p8677
tp8678
Rp8679
sVdesserts
p8680
g2
(g6
S'd\x02\x00\x00'
p8681
tp8682
Rp8683
sVkate
p8684
g2
(g6
S'\xa2\x04\x00\x00'
p8685
tp8686
Rp8687
sVnote5
p8688
g2
(g6
S'\xb7\x05\x00\x00'
p8689
tp8690
Rp8691
sVinclude
p8692
g2
(g6
S'\\\x04\x00\x00'
p8693
tp8694
Rp8695
sVfriendly
p8696
g2
(g6
S'\x7f\x03\x00\x00'
p8697
tp8698
Rp8699
sVfamily
p8700
g2
(g6
S'\x1e\x03\x00\x00'
p8701
tp8702
Rp8703
sVouterwear
p8704
g2
(g6
S'\xe4\x05\x00\x00'
p8705
tp8706
Rp8707
sVkitty
p8708
g2
(g6
S'\xb6\x04\x00\x00'
p8709
tp8710
Rp8711
sVwishes
p8712
g2
(g6
S'j\t\x00\x00'
p8713
tp8714
Rp8715
sVfacebook
p8716
g2
(g6
S'\x13\x03\x00\x00'
p8717
tp8718
Rp8719
sVcellular
p8720
g2
(g6
S'~\x01\x00\x00'
p8721
tp8722
Rp8723
sVmichael
p8724
g2
(g6
S'N\x05\x00\x00'
p8725
tp8726
Rp8727
sVroku
p8728
g2
(g6
S'\xfe\x06\x00\x00'
p8729
tp8730
Rp8731
sVcarter
p8732
g2
(g6
S'l\x01\x00\x00'
p8733
tp8734
Rp8735
sVgoodies
p8736
g2
(g6
S'\xbe\x03\x00\x00'
p8737
tp8738
Rp8739
sVpepper
p8740
g2
(g6
S'\x12\x06\x00\x00'
p8741
tp8742
Rp8743
sVboots
p8744
g2
(g6
S'\x18\x01\x00\x00'
p8745
tp8746
Rp8747
sVbooth
p8748
g2
(g6
S'\x17\x01\x00\x00'
p8749
tp8750
Rp8751
sVpicked
p8752
g2
(g6
S'$\x06\x00\x00'
p8753
tp8754
Rp8755
sVdownload
p8756
g2
(g6
S'\xa0\x02\x00\x00'
p8757
tp8758
Rp8759
sVclick
p8760
g2
(g6
S'\xb7\x01\x00\x00'
p8761
tp8762
Rp8763
sVfoodstagram
p8764
g2
(g6
S'j\x03\x00\x00'
p8765
tp8766
Rp8767
sVplays
p8768
g2
(g6
S'L\x06\x00\x00'
p8769
tp8770
Rp8771
sVsangria
p8772
g2
(g6
S'#\x07\x00\x00'
p8773
tp8774
Rp8775
sVwaiting
p8776
g2
(g6
S'*\t\x00\x00'
p8777
tp8778
Rp8779
sVattire
p8780
g2
(g6
S'\xb0\x00\x00\x00'
p8781
tp8782
Rp8783
sVstance
p8784
g2
(g6
S'\xf3\x07\x00\x00'
p8785
tp8786
Rp8787
sVraspberries
p8788
g2
(g6
S'\xb2\x06\x00\x00'
p8789
tp8790
Rp8791
sVexplore
p8792
g2
(g6
S'\t\x03\x00\x00'
p8793
tp8794
Rp8795
sVsurvivor
p8796
g2
(g6
S'D\x08\x00\x00'
p8797
tp8798
Rp8799
sVapple
p8800
g2
(g6
S'\x96\x00\x00\x00'
p8801
tp8802
Rp8803
sVwin
p8804
g2
(g6
S'^\t\x00\x00'
p8805
tp8806
Rp8807
sVlenticular
p8808
g2
(g6
S'\xdb\x04\x00\x00'
p8809
tp8810
Rp8811
sVredefining
p8812
g2
(g6
S'\xc6\x06\x00\x00'
p8813
tp8814
Rp8815
sVcloud
p8816
g2
(g6
S'\xc1\x01\x00\x00'
p8817
tp8818
Rp8819
sVfed
p8820
g2
(g6
S':\x03\x00\x00'
p8821
tp8822
Rp8823
sVfigure
p8824
g2
(g6
S'H\x03\x00\x00'
p8825
tp8826
Rp8827
sVusa
p8828
g2
(g6
S'\x01\t\x00\x00'
p8829
tp8830
Rp8831
sVcamera
p8832
g2
(g6
S'Y\x01\x00\x00'
p8833
tp8834
Rp8835
sVvehicle
p8836
g2
(g6
S'\x10\t\x00\x00'
p8837
tp8838
Rp8839
sVstarted
p8840
g2
(g6
S'\xfa\x07\x00\x00'
p8841
tp8842
Rp8843
sVstarter
p8844
g2
(g6
S'\xfb\x07\x00\x00'
p8845
tp8846
Rp8847
sVwomen
p8848
g2
(g6
S'o\t\x00\x00'
p8849
tp8850
Rp8851
sVannouncing
p8852
g2
(g6
S'\x8e\x00\x00\x00'
p8853
tp8854
Rp8855
sVride
p8856
g2
(g6
S'\xee\x06\x00\x00'
p8857
tp8858
Rp8859
sVmeet
p8860
g2
(g6
S'B\x05\x00\x00'
p8861
tp8862
Rp8863
sVcontrol
p8864
g2
(g6
S'\xf0\x01\x00\x00'
p8865
tp8866
Rp8867
sVtap
p8868
g2
(g6
S'b\x08\x00\x00'
p8869
tp8870
Rp8871
sVthirsty
p8872
g2
(g6
S'\x87\x08\x00\x00'
p8873
tp8874
Rp8875
sVhalloween
p8876
g2
(g6
S'\xe3\x03\x00\x00'
p8877
tp8878
Rp8879
sVtag
p8880
g2
(g6
S'V\x08\x00\x00'
p8881
tp8882
Rp8883
sVpulling
p8884
g2
(g6
S'\x93\x06\x00\x00'
p8885
tp8886
Rp8887
sVtab
p8888
g2
(g6
S'P\x08\x00\x00'
p8889
tp8890
Rp8891
sVwonderful
p8892
g2
(g6
S's\t\x00\x00'
p8893
tp8894
Rp8895
sVserial
p8896
g2
(g6
S'^\x07\x00\x00'
p8897
tp8898
Rp8899
sVsip
p8900
g2
(g6
S'\x9c\x07\x00\x00'
p8901
tp8902
Rp8903
sVpicturesque
p8904
g2
(g6
S'+\x06\x00\x00'
p8905
tp8906
Rp8907
sVinstead
p8908
g2
(g6
S'l\x04\x00\x00'
p8909
tp8910
Rp8911
sVattend
p8912
g2
(g6
S'\xae\x00\x00\x00'
p8913
tp8914
Rp8915
sVwrist
p8916
g2
(g6
S'\x8b\t\x00\x00'
p8917
tp8918
Rp8919
sVsomethin
p8920
g2
(g6
S'\xce\x07\x00\x00'
p8921
tp8922
Rp8923
sVlight
p8924
g2
(g6
S'\xe6\x04\x00\x00'
p8925
tp8926
Rp8927
sVfeels
p8928
g2
(g6
S'@\x03\x00\x00'
p8929
tp8930
Rp8931
sVscoop
p8932
g2
(g6
S'=\x07\x00\x00'
p8933
tp8934
Rp8935
sVclaire
p8936
g2
(g6
S'\xb0\x01\x00\x00'
p8937
tp8938
Rp8939
sVhonestly
p8940
g2
(g6
S'3\x04\x00\x00'
p8941
tp8942
Rp8943
sVfavourites
p8944
g2
(g6
S'3\x03\x00\x00'
p8945
tp8946
Rp8947
sVswimming
p8948
g2
(g6
S'J\x08\x00\x00'
p8949
tp8950
Rp8951
sVnecklaces
p8952
g2
(g6
S'\xa1\x05\x00\x00'
p8953
tp8954
Rp8955
sVbreast
p8956
g2
(g6
S')\x01\x00\x00'
p8957
tp8958
Rp8959
sVbeauties
p8960
g2
(g6
S'\xdc\x00\x00\x00'
p8961
tp8962
Rp8963
sVfizzy
p8964
g2
(g6
S'[\x03\x00\x00'
p8965
tp8966
Rp8967
sVcostume
p8968
g2
(g6
S'\x02\x02\x00\x00'
p8969
tp8970
Rp8971
sVtrusts
p8972
g2
(g6
S'\xd3\x08\x00\x00'
p8973
tp8974
Rp8975
sVbadges
p8976
g2
(g6
S'\xc4\x00\x00\x00'
p8977
tp8978
Rp8979
sVships
p8980
g2
(g6
S'z\x07\x00\x00'
p8981
tp8982
Rp8983
sVchoose
p8984
g2
(g6
S'\xa6\x01\x00\x00'
p8985
tp8986
Rp8987
sVunbox
p8988
g2
(g6
S'\xec\x08\x00\x00'
p8989
tp8990
Rp8991
sVcovered
p8992
g2
(g6
S'\x12\x02\x00\x00'
p8993
tp8994
Rp8995
sVzova
p8996
g2
(g6
S'\xa2\t\x00\x00'
p8997
tp8998
Rp8999
sVpixel
p9000
g2
(g6
S'9\x06\x00\x00'
p9001
tp9002
Rp9003
sVpure
p9004
g2
(g6
S'\x9b\x06\x00\x00'
p9005
tp9006
Rp9007
sVcitrus
p9008
g2
(g6
S'\xac\x01\x00\x00'
p9009
tp9010
Rp9011
sVauto
p9012
g2
(g6
S'\xb1\x00\x00\x00'
p9013
tp9014
Rp9015
sVpractice
p9016
g2
(g6
S'e\x06\x00\x00'
p9017
tp9018
Rp9019
sVbrand
p9020
g2
(g6
S'$\x01\x00\x00'
p9021
tp9022
Rp9023
sVstout
p9024
g2
(g6
S'\x19\x08\x00\x00'
p9025
tp9026
Rp9027
sVhands
p9028
g2
(g6
S'\xe8\x03\x00\x00'
p9029
tp9030
Rp9031
sVhandy
p9032
g2
(g6
S'\xea\x03\x00\x00'
p9033
tp9034
Rp9035
sVcacio
p9036
g2
(g6
S'O\x01\x00\x00'
p9037
tp9038
Rp9039
sVnfl
p9040
g2
(g6
S'\xae\x05\x00\x00'
p9041
tp9042
Rp9043
sVfeast
p9044
g2
(g6
S'5\x03\x00\x00'
p9045
tp9046
Rp9047
sVmode
p9048
g2
(g6
S'j\x05\x00\x00'
p9049
tp9050
Rp9051
sVbills
p9052
g2
(g6
S'\xf5\x00\x00\x00'
p9053
tp9054
Rp9055
sV700
p9056
g2
(g6
S'B\x00\x00\x00'
p9057
tp9058
Rp9059
sVmas
p9060
g2
(g6
S'4\x05\x00\x00'
p9061
tp9062
Rp9063
sVmeasure
p9064
g2
(g6
S'?\x05\x00\x00'
p9065
tp9066
Rp9067
sVspecial
p9068
g2
(g6
S'\xdd\x07\x00\x00'
p9069
tp9070
Rp9071
sVcategory
p9072
g2
(g6
S't\x01\x00\x00'
p9073
tp9074
Rp9075
sVobsessive
p9076
g2
(g6
S'\xc4\x05\x00\x00'
p9077
tp9078
Rp9079
sVattending
p9080
g2
(g6
S'\xaf\x00\x00\x00'
p9081
tp9082
Rp9083
sVcompletely
p9084
g2
(g6
S'\xe0\x01\x00\x00'
p9085
tp9086
Rp9087
sVyork
p9088
g2
(g6
S'\x9b\t\x00\x00'
p9089
tp9090
Rp9091
sVaccessory
p9092
g2
(g6
S'O\x00\x00\x00'
p9093
tp9094
Rp9095
sVorganic
p9096
g2
(g6
S'\xde\x05\x00\x00'
p9097
tp9098
Rp9099
sVmembership
p9100
g2
(g6
S'G\x05\x00\x00'
p9101
tp9102
Rp9103
sVtimes
p9104
g2
(g6
S'\x97\x08\x00\x00'
p9105
tp9106
Rp9107
sVdesigned
p9108
g2
(g6
S'a\x02\x00\x00'
p9109
tp9110
Rp9111
sVswapped
p9112
g2
(g6
S'F\x08\x00\x00'
p9113
tp9114
Rp9115
sVbouquet
p9116
g2
(g6
S'\x1d\x01\x00\x00'
p9117
tp9118
Rp9119
sVchromecast
p9120
g2
(g6
S'\xa9\x01\x00\x00'
p9121
tp9122
Rp9123
sVquality
p9124
g2
(g6
S'\xa4\x06\x00\x00'
p9125
tp9126
Rp9127
sVdestinations
p9128
g2
(g6
S'f\x02\x00\x00'
p9129
tp9130
Rp9131
sVplaylist
p9132
g2
(g6
S'K\x06\x00\x00'
p9133
tp9134
Rp9135
sVprivacy
p9136
g2
(g6
S'~\x06\x00\x00'
p9137
tp9138
Rp9139
sVdove
p9140
g2
(g6
S'\x9f\x02\x00\x00'
p9141
tp9142
Rp9143
sVwrapped
p9144
g2
(g6
S'\x88\t\x00\x00'
p9145
tp9146
Rp9147
sVfinal
p9148
g2
(g6
S'L\x03\x00\x00'
p9149
tp9150
Rp9151
sVvid
p9152
g2
(g6
S'\x16\t\x00\x00'
p9153
tp9154
Rp9155
sVlists
p9156
g2
(g6
S'\xf2\x04\x00\x00'
p9157
tp9158
Rp9159
sVbiggest
p9160
g2
(g6
S'\xf2\x00\x00\x00'
p9161
tp9162
Rp9163
sVjuly
p9164
g2
(g6
S'\x9c\x04\x00\x00'
p9165
tp9166
Rp9167
sVoverwhelming
p9168
g2
(g6
S'\xe9\x05\x00\x00'
p9169
tp9170
Rp9171
sVboring
p9172
g2
(g6
S'\x1a\x01\x00\x00'
p9173
tp9174
Rp9175
sVbed
p9176
g2
(g6
S'\xdf\x00\x00\x00'
p9177
tp9178
Rp9179
sVbet
p9180
g2
(g6
S'\xea\x00\x00\x00'
p9181
tp9182
Rp9183
sVclip
p9184
g2
(g6
S'\xb9\x01\x00\x00'
p9185
tp9186
Rp9187
sVgoldberg
p9188
g2
(g6
S'\xb8\x03\x00\x00'
p9189
tp9190
Rp9191
sVneed
p9192
g2
(g6
S'\xa2\x05\x00\x00'
p9193
tp9194
Rp9195
sValexa
p9196
g2
(g6
S'x\x00\x00\x00'
p9197
tp9198
Rp9199
sVable
p9200
g2
(g6
S'K\x00\x00\x00'
p9201
tp9202
Rp9203
sVmountaintop
p9204
g2
(g6
S'\x80\x05\x00\x00'
p9205
tp9206
Rp9207
sVconnected
p9208
g2
(g6
S'\xe9\x01\x00\x00'
p9209
tp9210
Rp9211
sVtall
p9212
g2
(g6
S'a\x08\x00\x00'
p9213
tp9214
Rp9215
sVlooked
p9216
g2
(g6
S'\x00\x05\x00\x00'
p9217
tp9218
Rp9219
sVscrambled
p9220
g2
(g6
S'@\x07\x00\x00'
p9221
tp9222
Rp9223
sVtalk
p9224
g2
(g6
S'^\x08\x00\x00'
p9225
tp9226
Rp9227
sVgoals
p9228
g2
(g6
S'\xb2\x03\x00\x00'
p9229
tp9230
Rp9231
sVinstagrammer
p9232
g2
(g6
S'i\x04\x00\x00'
p9233
tp9234
Rp9235
sV12s
p9236
g2
(g6
S'\t\x00\x00\x00'
p9237
tp9238
Rp9239
sVreggiano
p9240
g2
(g6
S'\xc9\x06\x00\x00'
p9241
tp9242
Rp9243
sVdebate
p9244
g2
(g6
S'G\x02\x00\x00'
p9245
tp9246
Rp9247
sVshoes
p9248
g2
(g6
S'}\x07\x00\x00'
p9249
tp9250
Rp9251
sVbased
p9252
g2
(g6
S'\xcf\x00\x00\x00'
p9253
tp9254
Rp9255
sVq8
p9256
g2
(g6
S'\xa0\x06\x00\x00'
p9257
tp9258
Rp9259
sVwinner
p9260
g2
(g6
S'b\t\x00\x00'
p9261
tp9262
Rp9263
sVfans
p9264
g2
(g6
S'"\x03\x00\x00'
p9265
tp9266
Rp9267
sVregltdexp11
p9268
g2
(g6
S'\xcc\x06\x00\x00'
p9269
tp9270
Rp9271
sVlocal
p9272
g2
(g6
S'\xfa\x04\x00\x00'
p9273
tp9274
Rp9275
sVwatching
p9276
g2
(g6
S':\t\x00\x00'
p9277
tp9278
Rp9279
sVtbh
p9280
g2
(g6
S'j\x08\x00\x00'
p9281
tp9282
Rp9283
sVones
p9284
g2
(g6
S'\xd0\x05\x00\x00'
p9285
tp9286
Rp9287
sVchips
p9288
g2
(g6
S'\xa3\x01\x00\x00'
p9289
tp9290
Rp9291
sVburned
p9292
g2
(g6
S'F\x01\x00\x00'
p9293
tp9294
Rp9295
sVendless
p9296
g2
(g6
S'\xd8\x02\x00\x00'
p9297
tp9298
Rp9299
sVqs
p9300
g2
(g6
S'\xa2\x06\x00\x00'
p9301
tp9302
Rp9303
sVglory
p9304
g2
(g6
S'\xae\x03\x00\x00'
p9305
tp9306
Rp9307
sVshopping
p9308
g2
(g6
S'\x83\x07\x00\x00'
p9309
tp9310
Rp9311
sVshy
p9312
g2
(g6
S'\x90\x07\x00\x00'
p9313
tp9314
Rp9315
sVqa
p9316
g2
(g6
S'\xa1\x06\x00\x00'
p9317
tp9318
Rp9319
sVdangerous
p9320
g2
(g6
S'9\x02\x00\x00'
p9321
tp9322
Rp9323
sVtunes
p9324
g2
(g6
S'\xdb\x08\x00\x00'
p9325
tp9326
Rp9327
sVgrab
p9328
g2
(g6
S'\xc3\x03\x00\x00'
p9329
tp9330
Rp9331
sVview
p9332
g2
(g6
S'\x19\t\x00\x00'
p9333
tp9334
Rp9335
sVspotted
p9336
g2
(g6
S'\xed\x07\x00\x00'
p9337
tp9338
Rp9339
sVterrain
p9340
g2
(g6
S'u\x08\x00\x00'
p9341
tp9342
Rp9343
sVcloser
p9344
g2
(g6
S'\xbc\x01\x00\x00'
p9345
tp9346
Rp9347
sVcloset
p9348
g2
(g6
S'\xbe\x01\x00\x00'
p9349
tp9350
Rp9351
sVfavor
p9352
g2
(g6
S'/\x03\x00\x00'
p9353
tp9354
Rp9355
sVpants
p9356
g2
(g6
S'\xf6\x05\x00\x00'
p9357
tp9358
Rp9359
sVopening
p9360
g2
(g6
S'\xd4\x05\x00\x00'
p9361
tp9362
Rp9363
sVjoy
p9364
g2
(g6
S'\x99\x04\x00\x00'
p9365
tp9366
Rp9367
sVjob
p9368
g2
(g6
S'\x90\x04\x00\x00'
p9369
tp9370
Rp9371
sVjoe
p9372
g2
(g6
S'\x91\x04\x00\x00'
p9373
tp9374
Rp9375
sVkey
p9376
g2
(g6
S'\xa5\x04\x00\x00'
p9377
tp9378
Rp9379
sVproblem
p9380
g2
(g6
S'\x83\x06\x00\x00'
p9381
tp9382
Rp9383
sVhits
p9384
g2
(g6
S"'\x04\x00\x00"
p9385
tp9386
Rp9387
sVcareer
p9388
g2
(g6
S'f\x01\x00\x00'
p9389
tp9390
Rp9391
sVminds
p9392
g2
(g6
S'Y\x05\x00\x00'
p9393
tp9394
Rp9395
sVapril
p9396
g2
(g6
S'\x9e\x00\x00\x00'
p9397
tp9398
Rp9399
sVwall
p9400
g2
(g6
S'-\t\x00\x00'
p9401
tp9402
Rp9403
sVtuesday
p9404
g2
(g6
S'\xd9\x08\x00\x00'
p9405
tp9406
Rp9407
sVtable
p9408
g2
(g6
S'Q\x08\x00\x00'
p9409
tp9410
Rp9411
sVquit
p9412
g2
(g6
S'\xa8\x06\x00\x00'
p9413
tp9414
Rp9415
sVyay
p9416
g2
(g6
S'\x92\t\x00\x00'
p9417
tp9418
Rp9419
sVresponds
p9420
g2
(g6
S'\xe0\x06\x00\x00'
p9421
tp9422
Rp9423
sVquiz
p9424
g2
(g6
S'\xaa\x06\x00\x00'
p9425
tp9426
Rp9427
sVtreat
p9428
g2
(g6
S'\xba\x08\x00\x00'
p9429
tp9430
Rp9431
sVbbq
p9432
g2
(g6
S'\xd5\x00\x00\x00'
p9433
tp9434
Rp9435
sVfield
p9436
g2
(g6
S'E\x03\x00\x00'
p9437
tp9438
Rp9439
sVcontrolled
p9440
g2
(g6
S'\xf1\x01\x00\x00'
p9441
tp9442
Rp9443
sVwanna
p9444
g2
(g6
S'0\t\x00\x00'
p9445
tp9446
Rp9447
sVreleasing
p9448
g2
(g6
S'\xd2\x06\x00\x00'
p9449
tp9450
Rp9451
sVcontroller
p9452
g2
(g6
S'\xf2\x01\x00\x00'
p9453
tp9454
Rp9455
sVkicks
p9456
g2
(g6
S'\xa9\x04\x00\x00'
p9457
tp9458
Rp9459
sVbrunch
p9460
g2
(g6
S'7\x01\x00\x00'
p9461
tp9462
Rp9463
sVpresent
p9464
g2
(g6
S'p\x06\x00\x00'
p9465
tp9466
Rp9467
sVwilt
p9468
g2
(g6
S']\t\x00\x00'
p9469
tp9470
Rp9471
sVstunning
p9472
g2
(g6
S'(\x08\x00\x00'
p9473
tp9474
Rp9475
sVwild
p9476
g2
(g6
S'[\t\x00\x00'
p9477
tp9478
Rp9479
sVlayer
p9480
g2
(g6
S'\xcf\x04\x00\x00'
p9481
tp9482
Rp9483
sVannual
p9484
g2
(g6
S'\x8f\x00\x00\x00'
p9485
tp9486
Rp9487
sVringing
p9488
g2
(g6
S'\xf1\x06\x00\x00'
p9489
tp9490
Rp9491
sVdemo
p9492
g2
(g6
S'X\x02\x00\x00'
p9493
tp9494
Rp9495
sVbucks
p9496
g2
(g6
S';\x01\x00\x00'
p9497
tp9498
Rp9499
sVcapture
p9500
g2
(g6
S'`\x01\x00\x00'
p9501
tp9502
Rp9503
sVvintage
p9504
g2
(g6
S'\x1b\t\x00\x00'
p9505
tp9506
Rp9507
sVcross
p9508
g2
(g6
S' \x02\x00\x00'
p9509
tp9510
Rp9511
sVmember
p9512
g2
(g6
S'E\x05\x00\x00'
p9513
tp9514
Rp9515
sVparts
p9516
g2
(g6
S'\xfc\x05\x00\x00'
p9517
tp9518
Rp9519
sVlargest
p9520
g2
(g6
S'\xc6\x04\x00\x00'
p9521
tp9522
Rp9523
sVinch
p9524
g2
(g6
S'[\x04\x00\x00'
p9525
tp9526
Rp9527
sVparty
p9528
g2
(g6
S'\xfd\x05\x00\x00'
p9529
tp9530
Rp9531
sVfraternity
p9532
g2
(g6
S'w\x03\x00\x00'
p9533
tp9534
Rp9535
sVpremiere
p9536
g2
(g6
S'i\x06\x00\x00'
p9537
tp9538
Rp9539
sVforgotten
p9540
g2
(g6
S'q\x03\x00\x00'
p9541
tp9542
Rp9543
sVstudent
p9544
g2
(g6
S'%\x08\x00\x00'
p9545
tp9546
Rp9547
sVsteals
p9548
g2
(g6
S'\x06\x08\x00\x00'
p9549
tp9550
Rp9551
sVcook
p9552
g2
(g6
S'\xf3\x01\x00\x00'
p9553
tp9554
Rp9555
sVboho
p9556
g2
(g6
S'\x0f\x01\x00\x00'
p9557
tp9558
Rp9559
sVflexing
p9560
g2
(g6
S'`\x03\x00\x00'
p9561
tp9562
Rp9563
sVdressed
p9564
g2
(g6
S'\xa8\x02\x00\x00'
p9565
tp9566
Rp9567
sVupgraded
p9568
g2
(g6
S'\xfc\x08\x00\x00'
p9569
tp9570
Rp9571
sVunderdog
p9572
g2
(g6
S'\xee\x08\x00\x00'
p9573
tp9574
Rp9575
sVmistakes
p9576
g2
(g6
S'd\x05\x00\x00'
p9577
tp9578
Rp9579
sVvirtual
p9580
g2
(g6
S'"\t\x00\x00'
p9581
tp9582
Rp9583
sVconsole
p9584
g2
(g6
S'\xec\x01\x00\x00'
p9585
tp9586
Rp9587
sVsky
p9588
g2
(g6
S'\xa8\x07\x00\x00'
p9589
tp9590
Rp9591
sVreasons
p9592
g2
(g6
S'\xbb\x06\x00\x00'
p9593
tp9594
Rp9595
sVsweet
p9596
g2
(g6
S'H\x08\x00\x00'
p9597
tp9598
Rp9599
sVsmart
p9600
g2
(g6
S'\xb1\x07\x00\x00'
p9601
tp9602
Rp9603
sVkick
p9604
g2
(g6
S'\xa7\x04\x00\x00'
p9605
tp9606
Rp9607
sVknow
p9608
g2
(g6
S'\xb8\x04\x00\x00'
p9609
tp9610
Rp9611
sVfacial
p9612
g2
(g6
S'\x14\x03\x00\x00'
p9613
tp9614
Rp9615
sVloss
p9616
g2
(g6
S'\x04\x05\x00\x00'
p9617
tp9618
Rp9619
sVnecessary
p9620
g2
(g6
S'\xa0\x05\x00\x00'
p9621
tp9622
Rp9623
sVrenegade
p9624
g2
(g6
S'\xd7\x06\x00\x00'
p9625
tp9626
Rp9627
sVlost
p9628
g2
(g6
S'\x05\x05\x00\x00'
p9629
tp9630
Rp9631
sVcandy
p9632
g2
(g6
S'\\\x01\x00\x00'
p9633
tp9634
Rp9635
sVdresses
p9636
g2
(g6
S'\xa9\x02\x00\x00'
p9637
tp9638
Rp9639
sVpage
p9640
g2
(g6
S'\xf1\x05\x00\x00'
p9641
tp9642
Rp9643
sVtwitter
p9644
g2
(g6
S'\xe8\x08\x00\x00'
p9645
tp9646
Rp9647
sVsearching
p9648
g2
(g6
S'F\x07\x00\x00'
p9649
tp9650
Rp9651
sVtrucker
p9652
g2
(g6
S'\xcd\x08\x00\x00'
p9653
tp9654
Rp9655
sVhome
p9656
g2
(g6
S'/\x04\x00\x00'
p9657
tp9658
Rp9659
sVempire
p9660
g2
(g6
S'\xd3\x02\x00\x00'
p9661
tp9662
Rp9663
sVjeremy
p9664
g2
(g6
S'\x8d\x04\x00\x00'
p9665
tp9666
Rp9667
sVlead
p9668
g2
(g6
S'\xd1\x04\x00\x00'
p9669
tp9670
Rp9671
sVthank
p9672
g2
(g6
S'y\x08\x00\x00'
p9673
tp9674
Rp9675
sVrewarding
p9676
g2
(g6
S'\xea\x06\x00\x00'
p9677
tp9678
Rp9679
sVearrings
p9680
g2
(g6
S'\xbd\x02\x00\x00'
p9681
tp9682
Rp9683
sVpasta
p9684
g2
(g6
S'\xff\x05\x00\x00'
p9685
tp9686
Rp9687
sVgetting
p9688
g2
(g6
S'\x9e\x03\x00\x00'
p9689
tp9690
Rp9691
sVshipping
p9692
g2
(g6
S'y\x07\x00\x00'
p9693
tp9694
Rp9695
sVcompatible
p9696
g2
(g6
S'\xde\x01\x00\x00'
p9697
tp9698
Rp9699
sVopus
p9700
g2
(g6
S'\xd9\x05\x00\x00'
p9701
tp9702
Rp9703
sVcelebrations
p9704
g2
(g6
S'|\x01\x00\x00'
p9705
tp9706
Rp9707
sVbridging
p9708
g2
(g6
S',\x01\x00\x00'
p9709
tp9710
Rp9711
sVheadphone
p9712
g2
(g6
S'\x01\x04\x00\x00'
p9713
tp9714
Rp9715
sVweather
p9716
g2
(g6
S'C\t\x00\x00'
p9717
tp9718
Rp9719
sVpromise
p9720
g2
(g6
S'\x8a\x06\x00\x00'
p9721
tp9722
Rp9723
sVbrush
p9724
g2
(g6
S'8\x01\x00\x00'
p9725
tp9726
Rp9727
sVartists
p9728
g2
(g6
S'\xa7\x00\x00\x00'
p9729
tp9730
Rp9731
sVwhos
p9732
g2
(g6
S'W\t\x00\x00'
p9733
tp9734
Rp9735
sVrejoice
p9736
g2
(g6
S'\xcf\x06\x00\x00'
p9737
tp9738
Rp9739
sVadditional
p9740
g2
(g6
S']\x00\x00\x00'
p9741
tp9742
Rp9743
sVapps
p9744
g2
(g6
S'\x9d\x00\x00\x00'
p9745
tp9746
Rp9747
sVwouldn
p9748
g2
(g6
S'\x84\t\x00\x00'
p9749
tp9750
Rp9751
sVgoin
p9752
g2
(g6
S'\xb5\x03\x00\x00'
p9753
tp9754
Rp9755
sVgluten
p9756
g2
(g6
S'\xb0\x03\x00\x00'
p9757
tp9758
Rp9759
sVwebinar
p9760
g2
(g6
S'E\t\x00\x00'
p9761
tp9762
Rp9763
sVneutral
p9764
g2
(g6
S'\xa8\x05\x00\x00'
p9765
tp9766
Rp9767
sVhi
p9768
g2
(g6
S'\x1f\x04\x00\x00'
p9769
tp9770
Rp9771
sVhm
p9772
g2
(g6
S')\x04\x00\x00'
p9773
tp9774
Rp9775
sVha
p9776
g2
(g6
S'\xde\x03\x00\x00'
p9777
tp9778
Rp9779
sVeat
p9780
g2
(g6
S'\xc1\x02\x00\x00'
p9781
tp9782
Rp9783
sVhd
p9784
g2
(g6
S'\xfe\x03\x00\x00'
p9785
tp9786
Rp9787
sVhosting
p9788
g2
(g6
S'<\x04\x00\x00'
p9789
tp9790
Rp9791
sVstories
p9792
g2
(g6
S'\x16\x08\x00\x00'
p9793
tp9794
Rp9795
sVcake
p9796
g2
(g6
S'Q\x01\x00\x00'
p9797
tp9798
Rp9799
sVpiece
p9800
g2
(g6
S'-\x06\x00\x00'
p9801
tp9802
Rp9803
sVdisplay
p9804
g2
(g6
S'\x87\x02\x00\x00'
p9805
tp9806
Rp9807
sVtwist
p9808
g2
(g6
S'\xe7\x08\x00\x00'
p9809
tp9810
Rp9811
sVbeats
p9812
g2
(g6
S'\xdb\x00\x00\x00'
p9813
tp9814
Rp9815
sVeric
p9816
g2
(g6
S'\xea\x02\x00\x00'
p9817
tp9818
Rp9819
sVboot
p9820
g2
(g6
S'\x16\x01\x00\x00'
p9821
tp9822
Rp9823
sVbook
p9824
g2
(g6
S'\x14\x01\x00\x00'
p9825
tp9826
Rp9827
sVer
p9828
g2
(g6
S'\xe9\x02\x00\x00'
p9829
tp9830
Rp9831
sVstar
p9832
g2
(g6
S'\xf6\x07\x00\x00'
p9833
tp9834
Rp9835
sVshredded
p9836
g2
(g6
S'\x8d\x07\x00\x00'
p9837
tp9838
Rp9839
sVjune
p9840
g2
(g6
S'\x9e\x04\x00\x00'
p9841
tp9842
Rp9843
sVstay
p9844
g2
(g6
S'\x01\x08\x00\x00'
p9845
tp9846
Rp9847
sVmodelling
p9848
g2
(g6
S'l\x05\x00\x00'
p9849
tp9850
Rp9851
sVkinda
p9852
g2
(g6
S'\xb1\x04\x00\x00'
p9853
tp9854
Rp9855
sVnintendo
p9856
g2
(g6
S'\xb4\x05\x00\x00'
p9857
tp9858
Rp9859
sVfriends
p9860
g2
(g6
S'\x80\x03\x00\x00'
p9861
tp9862
Rp9863
sVsamsung
p9864
g2
(g6
S'\x1e\x07\x00\x00'
p9865
tp9866
Rp9867
sVexpands
p9868
g2
(g6
S'\x00\x03\x00\x00'
p9869
tp9870
Rp9871
sVextras
p9872
g2
(g6
S'\r\x03\x00\x00'
p9873
tp9874
Rp9875
s.