(dp0
Vtodays
p1
cnumpy.core.multiarray
scalar
p2
(cnumpy
dtype
p3
(S'i4'
p4
I0
I1
tp5
Rp6
(I3
S'<'
p7
NNNI-1
I-1
I0
tp8
bS'\x9e\x08\x00\x00'
p9
tp10
Rp11
sVyellow
p12
g2
(g6
S'\x8d\t\x00\x00'
p13
tp14
Rp15
sVcaptain
p16
g2
(g6
S'c\x01\x00\x00'
p17
tp18
Rp19
sVlooking
p20
g2
(g6
S'\n\x05\x00\x00'
p21
tp22
Rp23
sVeligible
p24
g2
(g6
S'\xcd\x02\x00\x00'
p25
tp26
Rp27
sVsweetest
p28
g2
(g6
S'7\x08\x00\x00'
p29
tp30
Rp31
sVpresents
p32
g2
(g6
S'q\x06\x00\x00'
p33
tp34
Rp35
sVswap
p36
g2
(g6
S'2\x08\x00\x00'
p37
tp38
Rp39
sVrecycle
p40
g2
(g6
S'\xd4\x06\x00\x00'
p41
tp42
Rp43
sVsorry
p44
g2
(g6
S'\xca\x07\x00\x00'
p45
tp46
Rp47
sVussernm
p48
g2
(g6
S'\x00\t\x00\x00'
p49
tp50
Rp51
sVrescue
p52
g2
(g6
S'\xf2\x06\x00\x00'
p53
tp54
Rp55
sVhdtv
p56
g2
(g6
S'\xe8\x03\x00\x00'
p57
tp58
Rp59
sVupdates
p60
g2
(g6
S'\xf5\x08\x00\x00'
p61
tp62
Rp63
sVbringing
p64
g2
(g6
S'5\x01\x00\x00'
p65
tp66
Rp67
sVprize
p68
g2
(g6
S'}\x06\x00\x00'
p69
tp70
Rp71
sVskills
p72
g2
(g6
S'\xa7\x07\x00\x00'
p73
tp74
Rp75
sVcompanies
p76
g2
(g6
S'\xe6\x01\x00\x00'
p77
tp78
Rp79
sVwednesday
p80
g2
(g6
S'F\t\x00\x00'
p81
tp82
Rp83
sVtheussernmteam
p84
g2
(g6
S'|\x08\x00\x00'
p85
tp86
Rp87
sVups
p88
g2
(g6
S'\xf8\x08\x00\x00'
p89
tp90
Rp91
sVclothes
p92
g2
(g6
S'\xc7\x01\x00\x00'
p93
tp94
Rp95
sVforce
p96
g2
(g6
S'_\x03\x00\x00'
p97
tp98
Rp99
sVtired
p100
g2
(g6
S'\x96\x08\x00\x00'
p101
tp102
Rp103
sVcompliance
p104
g2
(g6
S'\xea\x01\x00\x00'
p105
tp106
Rp107
sVcooking
p108
g2
(g6
S'\xfc\x01\x00\x00'
p109
tp110
Rp111
sVlights
p112
g2
(g6
S'\xee\x04\x00\x00'
p113
tp114
Rp115
sVnew
p116
g2
(g6
S'\xa6\x05\x00\x00'
p117
tp118
Rp119
sVtips
p120
g2
(g6
S'\x95\x08\x00\x00'
p121
tp122
Rp123
sVhero
p124
g2
(g6
S'\x00\x04\x00\x00'
p125
tp126
Rp127
sVmen
p128
g2
(g6
S'H\x05\x00\x00'
p129
tp130
Rp131
sVchina
p132
g2
(g6
S'\xa7\x01\x00\x00'
p133
tp134
Rp135
sVactive
p136
g2
(g6
S'Z\x00\x00\x00'
p137
tp138
Rp139
sV100
p140
g2
(g6
S'\x04\x00\x00\x00'
p141
tp142
Rp143
sVcardboard
p144
g2
(g6
S'h\x01\x00\x00'
p145
tp146
Rp147
sVkids
p148
g2
(g6
S'\xb0\x04\x00\x00'
p149
tp150
Rp151
sVcredit
p152
g2
(g6
S'\x1c\x02\x00\x00'
p153
tp154
Rp155
sVmilitary
p156
g2
(g6
S'W\x05\x00\x00'
p157
tp158
Rp159
sVpack
p160
g2
(g6
S'\xf0\x05\x00\x00'
p161
tp162
Rp163
sVconsumers
p164
g2
(g6
S'\xf4\x01\x00\x00'
p165
tp166
Rp167
sVgolden
p168
g2
(g6
S'\xa8\x03\x00\x00'
p169
tp170
Rp171
sVmyanmar
p172
g2
(g6
S'\x8f\x05\x00\x00'
p173
tp174
Rp175
sVexplained
p176
g2
(g6
S'\x07\x03\x00\x00'
p177
tp178
Rp179
sVcounts
p180
g2
(g6
S'\x0c\x02\x00\x00'
p181
tp182
Rp183
sVunit
p184
g2
(g6
S'\xeb\x08\x00\x00'
p185
tp186
Rp187
sVcali
p188
g2
(g6
S'V\x01\x00\x00'
p189
tp190
Rp191
sVcard
p192
g2
(g6
S'g\x01\x00\x00'
p193
tp194
Rp195
sVpassport
p196
g2
(g6
S'\x0b\x06\x00\x00'
p197
tp198
Rp199
sVrecommend
p200
g2
(g6
S'\xd0\x06\x00\x00'
p201
tp202
Rp203
sVsurvive
p204
g2
(g6
S'1\x08\x00\x00'
p205
tp206
Rp207
sVtype
p208
g2
(g6
S'\xe4\x08\x00\x00'
p209
tp210
Rp211
sVtell
p212
g2
(g6
S'f\x08\x00\x00'
p213
tp214
Rp215
sVsupporters
p216
g2
(g6
S')\x08\x00\x00'
p217
tp218
Rp219
sVrelax
p220
g2
(g6
S'\xe0\x06\x00\x00'
p221
tp222
Rp223
sVwars
p224
g2
(g6
S'2\t\x00\x00'
p225
tp226
Rp227
sV99
p228
g2
(g6
S'K\x00\x00\x00'
p229
tp230
Rp231
sVglass
p232
g2
(g6
S'\x9d\x03\x00\x00'
p233
tp234
Rp235
sVberlin
p236
g2
(g6
S'\xf9\x00\x00\x00'
p237
tp238
Rp239
sVwarm
p240
g2
(g6
S'/\t\x00\x00'
p241
tp242
Rp243
sVhole
p244
g2
(g6
S'\x17\x04\x00\x00'
p245
tp246
Rp247
sVhold
p248
g2
(g6
S'\x14\x04\x00\x00'
p249
tp250
Rp251
sVroom
p252
g2
(g6
S'#\x07\x00\x00'
p253
tp254
Rp255
sVmovies
p256
g2
(g6
S'\x87\x05\x00\x00'
p257
tp258
Rp259
sVorganized
p260
g2
(g6
S'\xe1\x05\x00\x00'
p261
tp262
Rp263
sVvoil
p264
g2
(g6
S'\x1c\t\x00\x00'
p265
tp266
Rp267
sVwant
p268
g2
(g6
S'+\t\x00\x00'
p269
tp270
Rp271
sVaging
p272
g2
(g6
S'u\x00\x00\x00'
p273
tp274
Rp275
sVtravel
p276
g2
(g6
S'\xbb\x08\x00\x00'
p277
tp278
Rp279
sVamazing
p280
g2
(g6
S'\x85\x00\x00\x00'
p281
tp282
Rp283
sVanswer
p284
g2
(g6
S'\x93\x00\x00\x00'
p285
tp286
Rp287
sVwithyour
p288
g2
(g6
S'l\t\x00\x00'
p289
tp290
Rp291
sVgaming
p292
g2
(g6
S'\x81\x03\x00\x00'
p293
tp294
Rp295
sVbeauty
p296
g2
(g6
S'\xf0\x00\x00\x00'
p297
tp298
Rp299
sVwrong
p300
g2
(g6
S'\x87\t\x00\x00'
p301
tp302
Rp303
sVpurchase
p304
g2
(g6
S'\x9c\x06\x00\x00'
p305
tp306
Rp307
sVfictional
p308
g2
(g6
S'5\x03\x00\x00'
p309
tp310
Rp311
sVgoodbye
p312
g2
(g6
S'\xac\x03\x00\x00'
p313
tp314
Rp315
sVkeeps
p316
g2
(g6
S'\xa6\x04\x00\x00'
p317
tp318
Rp319
sVwind
p320
g2
(g6
S'\\\t\x00\x00'
p321
tp322
Rp323
sVwine
p324
g2
(g6
S'^\t\x00\x00'
p325
tp326
Rp327
sVfeedback
p328
g2
(g6
S')\x03\x00\x00'
p329
tp330
Rp331
sVdreamed
p332
g2
(g6
S'\xa7\x02\x00\x00'
p333
tp334
Rp335
sVmurals
p336
g2
(g6
S'\x8d\x05\x00\x00'
p337
tp338
Rp339
sVkeyboard
p340
g2
(g6
S'\xa9\x04\x00\x00'
p341
tp342
Rp343
sVbudding
p344
g2
(g6
S'?\x01\x00\x00'
p345
tp346
Rp347
sVfit
p348
g2
(g6
S'E\x03\x00\x00'
p349
tp350
Rp351
sVpersonal
p352
g2
(g6
S'&\x06\x00\x00'
p353
tp354
Rp355
sVfix
p356
g2
(g6
S'I\x03\x00\x00'
p357
tp358
Rp359
sVbetter
p360
g2
(g6
S'\xfc\x00\x00\x00'
p361
tp362
Rp363
sVhidden
p364
g2
(g6
S'\n\x04\x00\x00'
p365
tp366
Rp367
sVcred
p368
g2
(g6
S'\x1b\x02\x00\x00'
p369
tp370
Rp371
sVeasier
p372
g2
(g6
S'\xc1\x02\x00\x00'
p373
tp374
Rp375
sVthyme
p376
g2
(g6
S'\x8c\x08\x00\x00'
p377
tp378
Rp379
sVankle
p380
g2
(g6
S'\x90\x00\x00\x00'
p381
tp382
Rp383
sVaddicted
p384
g2
(g6
S'b\x00\x00\x00'
p385
tp386
Rp387
sVwent
p388
g2
(g6
S'O\t\x00\x00'
p389
tp390
Rp391
sVmeal
p392
g2
(g6
S'>\x05\x00\x00'
p393
tp394
Rp395
sVmean
p396
g2
(g6
S'@\x05\x00\x00'
p397
tp398
Rp399
sVseries
p400
g2
(g6
S'v\x07\x00\x00'
p401
tp402
Rp403
sVbowls
p404
g2
(g6
S'\x1c\x01\x00\x00'
p405
tp406
Rp407
sVvote
p408
g2
(g6
S'\x1d\t\x00\x00'
p409
tp410
Rp411
sVused
p412
g2
(g6
S'\xfd\x08\x00\x00'
p413
tp414
Rp415
sVwhiz
p416
g2
(g6
S'V\t\x00\x00'
p417
tp418
Rp419
sVacct
p420
g2
(g6
S'T\x00\x00\x00'
p421
tp422
Rp423
sVring
p424
g2
(g6
S'\x14\x07\x00\x00'
p425
tp426
Rp427
sVrt
p428
g2
(g6
S'+\x07\x00\x00'
p429
tp430
Rp431
sVtrending
p432
g2
(g6
S'\xc4\x08\x00\x00'
p433
tp434
Rp435
sVcutest
p436
g2
(g6
S'1\x02\x00\x00'
p437
tp438
Rp439
sVfave
p440
g2
(g6
S' \x03\x00\x00'
p441
tp442
Rp443
sVhoodie
p444
g2
(g6
S'"\x04\x00\x00'
p445
tp446
Rp447
sVcrowned
p448
g2
(g6
S'#\x02\x00\x00'
p449
tp450
Rp451
sValert
p452
g2
(g6
S'\x80\x00\x00\x00'
p453
tp454
Rp455
sVstarts
p456
g2
(g6
S'\xee\x07\x00\x00'
p457
tp458
Rp459
sVmessages
p460
g2
(g6
S'M\x05\x00\x00'
p461
tp462
Rp463
sVheading
p464
g2
(g6
S'\xeb\x03\x00\x00'
p465
tp466
Rp467
sVshipped
p468
g2
(g6
S'\x8b\x07\x00\x00'
p469
tp470
Rp471
sVisn
p472
g2
(g6
S'z\x04\x00\x00'
p473
tp474
Rp475
sVnaughty
p476
g2
(g6
S'\x9a\x05\x00\x00'
p477
tp478
Rp479
sVfeatures
p480
g2
(g6
S'%\x03\x00\x00'
p481
tp482
Rp483
sVshopper
p484
g2
(g6
S'\x93\x07\x00\x00'
p485
tp486
Rp487
sVwash
p488
g2
(g6
S'3\t\x00\x00'
p489
tp490
Rp491
sVfeatured
p492
g2
(g6
S'$\x03\x00\x00'
p493
tp494
Rp495
sVwasn
p496
g2
(g6
S'5\t\x00\x00'
p497
tp498
Rp499
sVremotely
p500
g2
(g6
S'\xe8\x06\x00\x00'
p501
tp502
Rp503
sVbahamas
p504
g2
(g6
S'\xda\x00\x00\x00'
p505
tp506
Rp507
sVservice
p508
g2
(g6
S'z\x07\x00\x00'
p509
tp510
Rp511
sV10m
p512
g2
(g6
S'\x08\x00\x00\x00'
p513
tp514
Rp515
sVgirls
p516
g2
(g6
S'\x98\x03\x00\x00'
p517
tp518
Rp519
sVneeded
p520
g2
(g6
S'\x9f\x05\x00\x00'
p521
tp522
Rp523
sVtangy
p524
g2
(g6
S'Q\x08\x00\x00'
p525
tp526
Rp527
sVlisten
p528
g2
(g6
S'\xf7\x04\x00\x00'
p529
tp530
Rp531
sVrewards
p532
g2
(g6
S'\n\x07\x00\x00'
p533
tp534
Rp535
sVgym
p536
g2
(g6
S'\xcc\x03\x00\x00'
p537
tp538
Rp539
sVstocking
p540
g2
(g6
S'\xfc\x07\x00\x00'
p541
tp542
Rp543
sVdistance
p544
g2
(g6
S'\x8a\x02\x00\x00'
p545
tp546
Rp547
sVtrek
p548
g2
(g6
S'\xc2\x08\x00\x00'
p549
tp550
Rp551
sV1m
p552
g2
(g6
S'\x18\x00\x00\x00'
p553
tp554
Rp555
sVtree
p556
g2
(g6
S'\xc1\x08\x00\x00'
p557
tp558
Rp559
sVsecond
p560
g2
(g6
S'f\x07\x00\x00'
p561
tp562
Rp563
sVshower
p564
g2
(g6
S'\x97\x07\x00\x00'
p565
tp566
Rp567
sVmatter
p568
g2
(g6
S';\x05\x00\x00'
p569
tp570
Rp571
sVstreet
p572
g2
(g6
S'\r\x08\x00\x00'
p573
tp574
Rp575
sVwilliams
p576
g2
(g6
S'Z\t\x00\x00'
p577
tp578
Rp579
sVfeeling
p580
g2
(g6
S',\x03\x00\x00'
p581
tp582
Rp583
sVacquisition
p584
g2
(g6
S'W\x00\x00\x00'
p585
tp586
Rp587
sVmini
p588
g2
(g6
S'^\x05\x00\x00'
p589
tp590
Rp591
sVnadella
p592
g2
(g6
S'\x93\x05\x00\x00'
p593
tp594
Rp595
sVmodern
p596
g2
(g6
S'p\x05\x00\x00'
p597
tp598
Rp599
sVmind
p600
g2
(g6
S']\x05\x00\x00'
p601
tp602
Rp603
sVseen
p604
g2
(g6
S'l\x07\x00\x00'
p605
tp606
Rp607
sVobviously
p608
g2
(g6
S'\xc5\x05\x00\x00'
p609
tp610
Rp611
sVmint
p612
g2
(g6
S'`\x05\x00\x00'
p613
tp614
Rp615
sVtells
p616
g2
(g6
S'h\x08\x00\x00'
p617
tp618
Rp619
sVperson
p620
g2
(g6
S'%\x06\x00\x00'
p621
tp622
Rp623
sVpurchases
p624
g2
(g6
S'\x9e\x06\x00\x00'
p625
tp626
Rp627
sVavios
p628
g2
(g6
S'\xc9\x00\x00\x00'
p629
tp630
Rp631
sVrecommended
p632
g2
(g6
S'\xd1\x06\x00\x00'
p633
tp634
Rp635
sVdoors
p636
g2
(g6
S'\xa0\x02\x00\x00'
p637
tp638
Rp639
sVresponsibly
p640
g2
(g6
S'\xfc\x06\x00\x00'
p641
tp642
Rp643
sVletter
p644
g2
(g6
S'\xe7\x04\x00\x00'
p645
tp646
Rp647
sVnopurchnec
p648
g2
(g6
S'\xb2\x05\x00\x00'
p649
tp650
Rp651
sVshalt
p652
g2
(g6
S'\x82\x07\x00\x00'
p653
tp654
Rp655
sVzealand
p656
g2
(g6
S'\x98\t\x00\x00'
p657
tp658
Rp659
sVdon
p660
g2
(g6
S'\x99\x02\x00\x00'
p661
tp662
Rp663
sVdoc
p664
g2
(g6
S'\x90\x02\x00\x00'
p665
tp666
Rp667
sVdog
p668
g2
(g6
S'\x96\x02\x00\x00'
p669
tp670
Rp671
sVspend
p672
g2
(g6
S'\xd7\x07\x00\x00'
p673
tp674
Rp675
sVpoints
p676
g2
(g6
S'Y\x06\x00\x00'
p677
tp678
Rp679
sVtech
p680
g2
(g6
S'a\x08\x00\x00'
p681
tp682
Rp683
sVcame
p684
g2
(g6
S'Z\x01\x00\x00'
p685
tp686
Rp687
sVsaying
p688
g2
(g6
S'N\x07\x00\x00'
p689
tp690
Rp691
sVretire
p692
g2
(g6
S'\x01\x07\x00\x00'
p693
tp694
Rp695
sVnominated
p696
g2
(g6
S'\xae\x05\x00\x00'
p697
tp698
Rp699
sVending
p700
g2
(g6
S'\xd9\x02\x00\x00'
p701
tp702
Rp703
sVpriv
p704
g2
(g6
S'{\x06\x00\x00'
p705
tp706
Rp707
sVorleans
p708
g2
(g6
S'\xe3\x05\x00\x00'
p709
tp710
Rp711
sVmenu
p712
g2
(g6
S'J\x05\x00\x00'
p713
tp714
Rp715
sVrico
p716
g2
(g6
S'\r\x07\x00\x00'
p717
tp718
Rp719
sVbliss
p720
g2
(g6
S'\x0e\x01\x00\x00'
p721
tp722
Rp723
sVrich
p724
g2
(g6
S'\x0c\x07\x00\x00'
p725
tp726
Rp727
sVfolks
p728
g2
(g6
S'Y\x03\x00\x00'
p729
tp730
Rp731
sVlady
p732
g2
(g6
S'\xc5\x04\x00\x00'
p733
tp734
Rp735
sVplate
p736
g2
(g6
S'I\x06\x00\x00'
p737
tp738
Rp739
sVstop
p740
g2
(g6
S'\xfe\x07\x00\x00'
p741
tp742
Rp743
sVcoast
p744
g2
(g6
S'\xce\x01\x00\x00'
p745
tp746
Rp747
sV15
p748
g2
(g6
S'\x0e\x00\x00\x00'
p749
tp750
Rp751
sVchild
p752
g2
(g6
S'\xa3\x01\x00\x00'
p753
tp754
Rp755
sVgreens
p756
g2
(g6
S'\xbf\x03\x00\x00'
p757
tp758
Rp759
sVbay
p760
g2
(g6
S'\xe6\x00\x00\x00'
p761
tp762
Rp763
sVbag
p764
g2
(g6
S'\xd7\x00\x00\x00'
p765
tp766
Rp767
sVbad
p768
g2
(g6
S'\xd5\x00\x00\x00'
p769
tp770
Rp771
sVdisney
p772
g2
(g6
S'\x87\x02\x00\x00'
p773
tp774
Rp775
sVrelease
p776
g2
(g6
S'\xe2\x06\x00\x00'
p777
tp778
Rp779
sVdisaster
p780
g2
(g6
S'\x7f\x02\x00\x00'
p781
tp782
Rp783
sVfair
p784
g2
(g6
S'\x10\x03\x00\x00'
p785
tp786
Rp787
sVbagan
p788
g2
(g6
S'\xd8\x00\x00\x00'
p789
tp790
Rp791
sVunexpectedly
p792
g2
(g6
S'\xea\x08\x00\x00'
p793
tp794
Rp795
sVresult
p796
g2
(g6
S'\xff\x06\x00\x00'
p797
tp798
Rp799
sVbest
p800
g2
(g6
S'\xfb\x00\x00\x00'
p801
tp802
Rp803
sV00
p804
g2
(g6
S'\x00\x00\x00\x00'
p805
tp806
Rp807
sVsaid
p808
g2
(g6
S'6\x07\x00\x00'
p809
tp810
Rp811
sVlots
p812
g2
(g6
S'\x10\x05\x00\x00'
p813
tp814
Rp815
sVscore
p816
g2
(g6
S'W\x07\x00\x00'
p817
tp818
Rp819
sVpets
p820
g2
(g6
S'+\x06\x00\x00'
p821
tp822
Rp823
sVwage
p824
g2
(g6
S'\x1f\t\x00\x00'
p825
tp826
Rp827
sVpersonalize
p828
g2
(g6
S"'\x06\x00\x00"
p829
tp830
Rp831
sVcarbon
p832
g2
(g6
S'f\x01\x00\x00'
p833
tp834
Rp835
sVpicking
p836
g2
(g6
S'4\x06\x00\x00'
p837
tp838
Rp839
sVadrienne
p840
g2
(g6
S'g\x00\x00\x00'
p841
tp842
Rp843
sVresistant
p844
g2
(g6
S'\xf7\x06\x00\x00'
p845
tp846
Rp847
sVcountry
p848
g2
(g6
S'\n\x02\x00\x00'
p849
tp850
Rp851
sVadventures
p852
g2
(g6
S'l\x00\x00\x00'
p853
tp854
Rp855
sVplanned
p856
g2
(g6
S'E\x06\x00\x00'
p857
tp858
Rp859
sVnormandy
p860
g2
(g6
S'\xb5\x05\x00\x00'
p861
tp862
Rp863
sVlogin
p864
g2
(g6
S'\x02\x05\x00\x00'
p865
tp866
Rp867
sVcuz
p868
g2
(g6
S'2\x02\x00\x00'
p869
tp870
Rp871
sVdorm
p872
g2
(g6
S'\xa1\x02\x00\x00'
p873
tp874
Rp875
sVperiscope
p876
g2
(g6
S'#\x06\x00\x00'
p877
tp878
Rp879
sV250
p880
g2
(g6
S'*\x00\x00\x00'
p881
tp882
Rp883
sVtraveling
p884
g2
(g6
S'\xbc\x08\x00\x00'
p885
tp886
Rp887
sVasks
p888
g2
(g6
S'\xb8\x00\x00\x00'
p889
tp890
Rp891
sVfri
p892
g2
(g6
S'o\x03\x00\x00'
p893
tp894
Rp895
sVnow9
p896
g2
(g6
S'\xbc\x05\x00\x00'
p897
tp898
Rp899
sVbasic
p900
g2
(g6
S'\xe3\x00\x00\x00'
p901
tp902
Rp903
sVtallest
p904
g2
(g6
S'O\x08\x00\x00'
p905
tp906
Rp907
sVann
p908
g2
(g6
S'\x91\x00\x00\x00'
p909
tp910
Rp911
sVwebsite
p912
g2
(g6
S'D\t\x00\x00'
p913
tp914
Rp915
sV25k
p916
g2
(g6
S'+\x00\x00\x00'
p917
tp918
Rp919
sVlife
p920
g2
(g6
S'\xea\x04\x00\x00'
p921
tp922
Rp923
sVsydney
p924
g2
(g6
S'<\x08\x00\x00'
p925
tp926
Rp927
sVplaces
p928
g2
(g6
S'B\x06\x00\x00'
p929
tp930
Rp931
sVchionship
p932
g2
(g6
S'\xa8\x01\x00\x00'
p933
tp934
Rp935
sVspin
p936
g2
(g6
S'\xd9\x07\x00\x00'
p937
tp938
Rp939
sVchill
p940
g2
(g6
S'\xa5\x01\x00\x00'
p941
tp942
Rp943
sVdash
p944
g2
(g6
S'?\x02\x00\x00'
p945
tp946
Rp947
sVsay
p948
g2
(g6
S'M\x07\x00\x00'
p949
tp950
Rp951
sVfinder
p952
g2
(g6
S'?\x03\x00\x00'
p953
tp954
Rp955
sVadele
p956
g2
(g6
S'd\x00\x00\x00'
p957
tp958
Rp959
sVbalance
p960
g2
(g6
S'\xdc\x00\x00\x00'
p961
tp962
Rp963
sVemployees
p964
g2
(g6
S'\xd4\x02\x00\x00'
p965
tp966
Rp967
sVmexico
p968
g2
(g6
S'N\x05\x00\x00'
p969
tp970
Rp971
sVim
p972
g2
(g6
S'C\x04\x00\x00'
p973
tp974
Rp975
sVseattle
p976
g2
(g6
S'e\x07\x00\x00'
p977
tp978
Rp979
sVmouse
p980
g2
(g6
S'\x84\x05\x00\x00'
p981
tp982
Rp983
sVid
p984
g2
(g6
S'@\x04\x00\x00'
p985
tp986
Rp987
sVthings
p988
g2
(g6
S'\x80\x08\x00\x00'
p989
tp990
Rp991
sVmake
p992
g2
(g6
S'$\x05\x00\x00'
p993
tp994
Rp995
sVbells
p996
g2
(g6
S'\xf7\x00\x00\x00'
p997
tp998
Rp999
sVgovernors
p1000
g2
(g6
S'\xb4\x03\x00\x00'
p1001
tp1002
Rp1003
sVkik
p1004
g2
(g6
S'\xb1\x04\x00\x00'
p1005
tp1006
Rp1007
sVopportunity
p1008
g2
(g6
S'\xda\x05\x00\x00'
p1009
tp1010
Rp1011
sVtune
p1012
g2
(g6
S'\xd5\x08\x00\x00'
p1013
tp1014
Rp1015
sVkid
p1016
g2
(g6
S'\xaf\x04\x00\x00'
p1017
tp1018
Rp1019
sVyoure
p1020
g2
(g6
S'\x96\t\x00\x00'
p1021
tp1022
Rp1023
sVcharity
p1024
g2
(g6
S'\x93\x01\x00\x00'
p1025
tp1026
Rp1027
sVrome
p1028
g2
(g6
S'"\x07\x00\x00'
p1029
tp1030
Rp1031
sVleft
p1032
g2
(g6
S'\xe2\x04\x00\x00'
p1033
tp1034
Rp1035
sVjust
p1036
g2
(g6
S'\x9f\x04\x00\x00'
p1037
tp1038
Rp1039
sVyes
p1040
g2
(g6
S'\x8e\t\x00\x00'
p1041
tp1042
Rp1043
sVham
p1044
g2
(g6
S'\xd2\x03\x00\x00'
p1045
tp1046
Rp1047
sVcharacter
p1048
g2
(g6
S'\x8f\x01\x00\x00'
p1049
tp1050
Rp1051
sVeasy
p1052
g2
(g6
S'\xc4\x02\x00\x00'
p1053
tp1054
Rp1055
sVeast
p1056
g2
(g6
S'\xc3\x02\x00\x00'
p1057
tp1058
Rp1059
sVhat
p1060
g2
(g6
S'\xe1\x03\x00\x00'
p1061
tp1062
Rp1063
sVtmrw
p1064
g2
(g6
S'\x99\x08\x00\x00'
p1065
tp1066
Rp1067
sVconverged
p1068
g2
(g6
S'\xf8\x01\x00\x00'
p1069
tp1070
Rp1071
sV3pm
p1072
g2
(g6
S'7\x00\x00\x00'
p1073
tp1074
Rp1075
sVperformance
p1076
g2
(g6
S'!\x06\x00\x00'
p1077
tp1078
Rp1079
sVdreams
p1080
g2
(g6
S'\xa9\x02\x00\x00'
p1081
tp1082
Rp1083
sVcomplimentary
p1084
g2
(g6
S'\xeb\x01\x00\x00'
p1085
tp1086
Rp1087
sVperforming
p1088
g2
(g6
S'"\x06\x00\x00'
p1089
tp1090
Rp1091
sVsteps
p1092
g2
(g6
S'\xf8\x07\x00\x00'
p1093
tp1094
Rp1095
sVright
p1096
g2
(g6
S'\x13\x07\x00\x00'
p1097
tp1098
Rp1099
sVold
p1100
g2
(g6
S'\xd2\x05\x00\x00'
p1101
tp1102
Rp1103
sVdeal
p1104
g2
(g6
S'L\x02\x00\x00'
p1105
tp1106
Rp1107
sVpeople
p1108
g2
(g6
S'\x1d\x06\x00\x00'
p1109
tp1110
Rp1111
sVdeaf
p1112
g2
(g6
S'K\x02\x00\x00'
p1113
tp1114
Rp1115
sVdead
p1116
g2
(g6
S'I\x02\x00\x00'
p1117
tp1118
Rp1119
sVcreative
p1120
g2
(g6
S'\x19\x02\x00\x00'
p1121
tp1122
Rp1123
sVtreadmill
p1124
g2
(g6
S'\xbd\x08\x00\x00'
p1125
tp1126
Rp1127
sVgiftcard
p1128
g2
(g6
S'\x93\x03\x00\x00'
p1129
tp1130
Rp1131
sVsleigh
p1132
g2
(g6
S'\xb0\x07\x00\x00'
p1133
tp1134
Rp1135
sVwatson
p1136
g2
(g6
S':\t\x00\x00'
p1137
tp1138
Rp1139
sVkeeper
p1140
g2
(g6
S'\xa4\x04\x00\x00'
p1141
tp1142
Rp1143
sVsuper
p1144
g2
(g6
S'$\x08\x00\x00'
p1145
tp1146
Rp1147
sVafternoon
p1148
g2
(g6
S'r\x00\x00\x00'
p1149
tp1150
Rp1151
sVcraftsman
p1152
g2
(g6
S'\x15\x02\x00\x00'
p1153
tp1154
Rp1155
sVislands
p1156
g2
(g6
S'x\x04\x00\x00'
p1157
tp1158
Rp1159
sVautomatically
p1160
g2
(g6
S'\xc6\x00\x00\x00'
p1161
tp1162
Rp1163
sVraised
p1164
g2
(g6
S'\xb8\x06\x00\x00'
p1165
tp1166
Rp1167
sVwhats
p1168
g2
(g6
S'R\t\x00\x00'
p1169
tp1170
Rp1171
sVtastier
p1172
g2
(g6
S'U\x08\x00\x00'
p1173
tp1174
Rp1175
sVselfie
p1176
g2
(g6
S'o\x07\x00\x00'
p1177
tp1178
Rp1179
sVson
p1180
g2
(g6
S'\xc7\x07\x00\x00'
p1181
tp1182
Rp1183
sVwrap
p1184
g2
(g6
S'\x83\t\x00\x00'
p1185
tp1186
Rp1187
sVreducing
p1188
g2
(g6
S'\xd6\x06\x00\x00'
p1189
tp1190
Rp1191
sVsoon
p1192
g2
(g6
S'\xc9\x07\x00\x00'
p1193
tp1194
Rp1195
sVsupport
p1196
g2
(g6
S'(\x08\x00\x00'
p1197
tp1198
Rp1199
sVtennis
p1200
g2
(g6
S'j\x08\x00\x00'
p1201
tp1202
Rp1203
sVpartnership
p1204
g2
(g6
S'\x08\x06\x00\x00'
p1205
tp1206
Rp1207
sV20
p1208
g2
(g6
S'\x1b\x00\x00\x00'
p1209
tp1210
Rp1211
sVmusic
p1212
g2
(g6
S'\x8e\x05\x00\x00'
p1213
tp1214
Rp1215
sVavocados
p1216
g2
(g6
S'\xcb\x00\x00\x00'
p1217
tp1218
Rp1219
sVhappy
p1220
g2
(g6
S'\xdc\x03\x00\x00'
p1221
tp1222
Rp1223
sVoffering
p1224
g2
(g6
S'\xca\x05\x00\x00'
p1225
tp1226
Rp1227
sVoffer
p1228
g2
(g6
S'\xc9\x05\x00\x00'
p1229
tp1230
Rp1231
sVfireworks
p1232
g2
(g6
S'D\x03\x00\x00'
p1233
tp1234
Rp1235
sVsurrender
p1236
g2
(g6
S'0\x08\x00\x00'
p1237
tp1238
Rp1239
sVcongratulations
p1240
g2
(g6
S'\xf0\x01\x00\x00'
p1241
tp1242
Rp1243
sVstreaming
p1244
g2
(g6
S'\x0c\x08\x00\x00'
p1245
tp1246
Rp1247
sVinside
p1248
g2
(g6
S'\\\x04\x00\x00'
p1249
tp1250
Rp1251
sVtrends
p1252
g2
(g6
S'\xc5\x08\x00\x00'
p1253
tp1254
Rp1255
sVdevices
p1256
g2
(g6
S'm\x02\x00\x00'
p1257
tp1258
Rp1259
sVwhiskey
p1260
g2
(g6
S'T\t\x00\x00'
p1261
tp1262
Rp1263
sVproud
p1264
g2
(g6
S'\x8f\x06\x00\x00'
p1265
tp1266
Rp1267
sVclassic
p1268
g2
(g6
S'\xb8\x01\x00\x00'
p1269
tp1270
Rp1271
sVdrive
p1272
g2
(g6
S'\xaf\x02\x00\x00'
p1273
tp1274
Rp1275
sVproves
p1276
g2
(g6
S'\x90\x06\x00\x00'
p1277
tp1278
Rp1279
sVship
p1280
g2
(g6
S'\x8a\x07\x00\x00'
p1281
tp1282
Rp1283
sV14pm
p1284
g2
(g6
S'\r\x00\x00\x00'
p1285
tp1286
Rp1287
sVbrings
p1288
g2
(g6
S'6\x01\x00\x00'
p1289
tp1290
Rp1291
sVholly
p1292
g2
(g6
S'\x1a\x04\x00\x00'
p1293
tp1294
Rp1295
sVroll
p1296
g2
(g6
S' \x07\x00\x00'
p1297
tp1298
Rp1299
sVmodels
p1300
g2
(g6
S'o\x05\x00\x00'
p1301
tp1302
Rp1303
sVjourney
p1304
g2
(g6
S'\x99\x04\x00\x00'
p1305
tp1306
Rp1307
sVweekend
p1308
g2
(g6
S'I\t\x00\x00'
p1309
tp1310
Rp1311
sVbillion
p1312
g2
(g6
S'\x04\x01\x00\x00'
p1313
tp1314
Rp1315
sVhappening
p1316
g2
(g6
S'\xda\x03\x00\x00'
p1317
tp1318
Rp1319
sVdisruption
p1320
g2
(g6
S'\x89\x02\x00\x00'
p1321
tp1322
Rp1323
sVdaily
p1324
g2
(g6
S'8\x02\x00\x00'
p1325
tp1326
Rp1327
sVtime
p1328
g2
(g6
S'\x90\x08\x00\x00'
p1329
tp1330
Rp1331
sVsomeplace
p1332
g2
(g6
S'\xc6\x07\x00\x00'
p1333
tp1334
Rp1335
sVskip
p1336
g2
(g6
S'\xa9\x07\x00\x00'
p1337
tp1338
Rp1339
sVmanager
p1340
g2
(g6
S'+\x05\x00\x00'
p1341
tp1342
Rp1343
sVshot
p1344
g2
(g6
S'\x96\x07\x00\x00'
p1345
tp1346
Rp1347
sVchair
p1348
g2
(g6
S'\x89\x01\x00\x00'
p1349
tp1350
Rp1351
sVsweeneys
p1352
g2
(g6
S'4\x08\x00\x00'
p1353
tp1354
Rp1355
sV21st
p1356
g2
(g6
S'$\x00\x00\x00'
p1357
tp1358
Rp1359
sVanswered
p1360
g2
(g6
S'\x94\x00\x00\x00'
p1361
tp1362
Rp1363
sVfinally
p1364
g2
(g6
S'=\x03\x00\x00'
p1365
tp1366
Rp1367
sVveterans
p1368
g2
(g6
S'\t\t\x00\x00'
p1369
tp1370
Rp1371
sVsmartphone
p1372
g2
(g6
S'\xb6\x07\x00\x00'
p1373
tp1374
Rp1375
sVchoice
p1376
g2
(g6
S'\xab\x01\x00\x00'
p1377
tp1378
Rp1379
sVembark
p1380
g2
(g6
S'\xd1\x02\x00\x00'
p1381
tp1382
Rp1383
sVstays
p1384
g2
(g6
S'\xf6\x07\x00\x00'
p1385
tp1386
Rp1387
sVmoura
p1388
g2
(g6
S'\x83\x05\x00\x00'
p1389
tp1390
Rp1391
sVminute
p1392
g2
(g6
S'c\x05\x00\x00'
p1393
tp1394
Rp1395
sVsolves
p1396
g2
(g6
S'\xc5\x07\x00\x00'
p1397
tp1398
Rp1399
sVdid
p1400
g2
(g6
S'p\x02\x00\x00'
p1401
tp1402
Rp1403
sVdig
p1404
g2
(g6
S'u\x02\x00\x00'
p1405
tp1406
Rp1407
sVrideshare
p1408
g2
(g6
S'\x10\x07\x00\x00'
p1409
tp1410
Rp1411
sVdiy
p1412
g2
(g6
S'\x8d\x02\x00\x00'
p1413
tp1414
Rp1415
sVteam
p1416
g2
(g6
S'_\x08\x00\x00'
p1417
tp1418
Rp1419
sVround
p1420
g2
(g6
S"'\x07\x00\x00"
p1421
tp1422
Rp1423
sVprevent
p1424
g2
(g6
S'u\x06\x00\x00'
p1425
tp1426
Rp1427
sVsign
p1428
g2
(g6
S'\x9a\x07\x00\x00'
p1429
tp1430
Rp1431
sVrun
p1432
g2
(g6
S'.\x07\x00\x00'
p1433
tp1434
Rp1435
sVafghanistan
p1436
g2
(g6
S'p\x00\x00\x00'
p1437
tp1438
Rp1439
sVheres
p1440
g2
(g6
S'\xff\x03\x00\x00'
p1441
tp1442
Rp1443
sVinternational
p1444
g2
(g6
S'h\x04\x00\x00'
p1445
tp1446
Rp1447
sVground
p1448
g2
(g6
S'\xc3\x03\x00\x00'
p1449
tp1450
Rp1451
sVsnack
p1452
g2
(g6
S'\xbb\x07\x00\x00'
p1453
tp1454
Rp1455
sVaddress
p1456
g2
(g6
S'c\x00\x00\x00'
p1457
tp1458
Rp1459
sVwait
p1460
g2
(g6
S'!\t\x00\x00'
p1461
tp1462
Rp1463
sVbox
p1464
g2
(g6
S'\x1d\x01\x00\x00'
p1465
tp1466
Rp1467
sVboy
p1468
g2
(g6
S' \x01\x00\x00'
p1469
tp1470
Rp1471
sVenroll
p1472
g2
(g6
S'\xdf\x02\x00\x00'
p1473
tp1474
Rp1475
sVhbd
p1476
g2
(g6
S'\xe6\x03\x00\x00'
p1477
tp1478
Rp1479
sVlove
p1480
g2
(g6
S'\x13\x05\x00\x00'
p1481
tp1482
Rp1483
sVprefer
p1484
g2
(g6
S'i\x06\x00\x00'
p1485
tp1486
Rp1487
sVfake
p1488
g2
(g6
S'\x11\x03\x00\x00'
p1489
tp1490
Rp1491
sVhotels
p1492
g2
(g6
S'*\x04\x00\x00'
p1493
tp1494
Rp1495
sVeverybody
p1496
g2
(g6
S'\xf6\x02\x00\x00'
p1497
tp1498
Rp1499
sVeste
p1500
g2
(g6
S'\xee\x02\x00\x00'
p1501
tp1502
Rp1503
sVtroops
p1504
g2
(g6
S'\xcb\x08\x00\x00'
p1505
tp1506
Rp1507
sVworking
p1508
g2
(g6
S'w\t\x00\x00'
p1509
tp1510
Rp1511
sVvisit
p1512
g2
(g6
S'\x1a\t\x00\x00'
p1513
tp1514
Rp1515
sVfrance
p1516
g2
(g6
S'i\x03\x00\x00'
p1517
tp1518
Rp1519
sVloving
p1520
g2
(g6
S'\x16\x05\x00\x00'
p1521
tp1522
Rp1523
sVintroducing
p1524
g2
(g6
S'k\x04\x00\x00'
p1525
tp1526
Rp1527
sVsharing
p1528
g2
(g6
S'\x87\x07\x00\x00'
p1529
tp1530
Rp1531
sVclaus
p1532
g2
(g6
S'\xb9\x01\x00\x00'
p1533
tp1534
Rp1535
sVoregon
p1536
g2
(g6
S'\xdf\x05\x00\x00'
p1537
tp1538
Rp1539
sVscratcher
p1540
g2
(g6
S'[\x07\x00\x00'
p1541
tp1542
Rp1543
sVfly
p1544
g2
(g6
S'U\x03\x00\x00'
p1545
tp1546
Rp1547
sVpretend
p1548
g2
(g6
S's\x06\x00\x00'
p1549
tp1550
Rp1551
sVmaking
p1552
g2
(g6
S"'\x05\x00\x00"
p1553
tp1554
Rp1555
sVarrive
p1556
g2
(g6
S'\xad\x00\x00\x00'
p1557
tp1558
Rp1559
sVmirrors
p1560
g2
(g6
S'e\x05\x00\x00'
p1561
tp1562
Rp1563
sVawesome
p1564
g2
(g6
S'\xd2\x00\x00\x00'
p1565
tp1566
Rp1567
sVagent
p1568
g2
(g6
S't\x00\x00\x00'
p1569
tp1570
Rp1571
sVwinter
p1572
g2
(g6
S'a\t\x00\x00'
p1573
tp1574
Rp1575
sVdeserves
p1576
g2
(g6
S'b\x02\x00\x00'
p1577
tp1578
Rp1579
sVsavor
p1580
g2
(g6
S'K\x07\x00\x00'
p1581
tp1582
Rp1583
sVbernie
p1584
g2
(g6
S'\xfa\x00\x00\x00'
p1585
tp1586
Rp1587
sVpine
p1588
g2
(g6
S';\x06\x00\x00'
p1589
tp1590
Rp1591
sVsunday
p1592
g2
(g6
S'"\x08\x00\x00'
p1593
tp1594
Rp1595
sVnyc
p1596
g2
(g6
S'\xc2\x05\x00\x00'
p1597
tp1598
Rp1599
sVmap
p1600
g2
(g6
S',\x05\x00\x00'
p1601
tp1602
Rp1603
sVdesigner
p1604
g2
(g6
S'd\x02\x00\x00'
p1605
tp1606
Rp1607
sVlaundry
p1608
g2
(g6
S'\xd6\x04\x00\x00'
p1609
tp1610
Rp1611
sVmat
p1612
g2
(g6
S'8\x05\x00\x00'
p1613
tp1614
Rp1615
sVcritics
p1616
g2
(g6
S'\x1e\x02\x00\x00'
p1617
tp1618
Rp1619
sVspot
p1620
g2
(g6
S'\xde\x07\x00\x00'
p1621
tp1622
Rp1623
sVmembership
p1624
g2
(g6
S'F\x05\x00\x00'
p1625
tp1626
Rp1627
sVdate
p1628
g2
(g6
S'A\x02\x00\x00'
p1629
tp1630
Rp1631
sVgros
p1632
g2
(g6
S'\xc2\x03\x00\x00'
p1633
tp1634
Rp1635
sVguys
p1636
g2
(g6
S'\xcb\x03\x00\x00'
p1637
tp1638
Rp1639
sVgrow
p1640
g2
(g6
S'\xc5\x03\x00\x00'
p1641
tp1642
Rp1643
sVman
p1644
g2
(g6
S')\x05\x00\x00'
p1645
tp1646
Rp1647
sVmuertos
p1648
g2
(g6
S'\x8b\x05\x00\x00'
p1649
tp1650
Rp1651
sVmaybe
p1652
g2
(g6
S'=\x05\x00\x00'
p1653
tp1654
Rp1655
sVst
p1656
g2
(g6
S'\xe3\x07\x00\x00'
p1657
tp1658
Rp1659
sVtale
p1660
g2
(g6
S'H\x08\x00\x00'
p1661
tp1662
Rp1663
sVprovide
p1664
g2
(g6
S'\x91\x06\x00\x00'
p1665
tp1666
Rp1667
sVswitch
p1668
g2
(g6
S';\x08\x00\x00'
p1669
tp1670
Rp1671
sVtruck
p1672
g2
(g6
S'\xcd\x08\x00\x00'
p1673
tp1674
Rp1675
sVtall
p1676
g2
(g6
S'N\x08\x00\x00'
p1677
tp1678
Rp1679
sVtalk
p1680
g2
(g6
S'J\x08\x00\x00'
p1681
tp1682
Rp1683
sVcute
p1684
g2
(g6
S'0\x02\x00\x00'
p1685
tp1686
Rp1687
sVshoes
p1688
g2
(g6
S'\x8f\x07\x00\x00'
p1689
tp1690
Rp1691
sVwishing
p1692
g2
(g6
S'f\t\x00\x00'
p1693
tp1694
Rp1695
sVyears
p1696
g2
(g6
S'\x8c\t\x00\x00'
p1697
tp1698
Rp1699
sVepisodes
p1700
g2
(g6
S'\xe7\x02\x00\x00'
p1701
tp1702
Rp1703
sVoccasion
p1704
g2
(g6
S'\xc6\x05\x00\x00'
p1705
tp1706
Rp1707
sVpitch
p1708
g2
(g6
S'>\x06\x00\x00'
p1709
tp1710
Rp1711
sVthank
p1712
g2
(g6
S't\x08\x00\x00'
p1713
tp1714
Rp1715
sVhot
p1716
g2
(g6
S'(\x04\x00\x00'
p1717
tp1718
Rp1719
sVstroll
p1720
g2
(g6
S'\x0f\x08\x00\x00'
p1721
tp1722
Rp1723
sVtexas
p1724
g2
(g6
S'o\x08\x00\x00'
p1725
tp1726
Rp1727
sVinstantly
p1728
g2
(g6
S'c\x04\x00\x00'
p1729
tp1730
Rp1731
sVviews
p1732
g2
(g6
S'\x10\t\x00\x00'
p1733
tp1734
Rp1735
sVfeelin
p1736
g2
(g6
S'+\x03\x00\x00'
p1737
tp1738
Rp1739
sVlunch
p1740
g2
(g6
S'\x1d\x05\x00\x00'
p1741
tp1742
Rp1743
sVtouching
p1744
g2
(g6
S'\xaa\x08\x00\x00'
p1745
tp1746
Rp1747
sVkilled
p1748
g2
(g6
S'\xb3\x04\x00\x00'
p1749
tp1750
Rp1751
sVbeach
p1752
g2
(g6
S'\xe9\x00\x00\x00'
p1753
tp1754
Rp1755
sVdidn
p1756
g2
(g6
S'q\x02\x00\x00'
p1757
tp1758
Rp1759
sVquarter
p1760
g2
(g6
S'\xaa\x06\x00\x00'
p1761
tp1762
Rp1763
sV820
p1764
g2
(g6
S'I\x00\x00\x00'
p1765
tp1766
Rp1767
sVsquare
p1768
g2
(g6
S'\xe2\x07\x00\x00'
p1769
tp1770
Rp1771
sVunlock
p1772
g2
(g6
S'\xef\x08\x00\x00'
p1773
tp1774
Rp1775
sVgirl
p1776
g2
(g6
S'\x97\x03\x00\x00'
p1777
tp1778
Rp1779
sV3rd
p1780
g2
(g6
S'8\x00\x00\x00'
p1781
tp1782
Rp1783
sVblu
p1784
g2
(g6
S'\x10\x01\x00\x00'
p1785
tp1786
Rp1787
sVseriously
p1788
g2
(g6
S'w\x07\x00\x00'
p1789
tp1790
Rp1791
sVmiles
p1792
g2
(g6
S'V\x05\x00\x00'
p1793
tp1794
Rp1795
sVtrauma
p1796
g2
(g6
S'\xba\x08\x00\x00'
p1797
tp1798
Rp1799
sVinternet
p1800
g2
(g6
S'i\x04\x00\x00'
p1801
tp1802
Rp1803
sVcorrect
p1804
g2
(g6
S'\x02\x02\x00\x00'
p1805
tp1806
Rp1807
sVlag
p1808
g2
(g6
S'\xc6\x04\x00\x00'
p1809
tp1810
Rp1811
sVmillion
p1812
g2
(g6
S'Z\x05\x00\x00'
p1813
tp1814
Rp1815
sVquite
p1816
g2
(g6
S'\xb1\x06\x00\x00'
p1817
tp1818
Rp1819
sVcalifornia
p1820
g2
(g6
S'W\x01\x00\x00'
p1821
tp1822
Rp1823
sVquestion
p1824
g2
(g6
S'\xad\x06\x00\x00'
p1825
tp1826
Rp1827
sVwaiter
p1828
g2
(g6
S'"\t\x00\x00'
p1829
tp1830
Rp1831
sVheadphones
p1832
g2
(g6
S'\xec\x03\x00\x00'
p1833
tp1834
Rp1835
sVthing
p1836
g2
(g6
S'\x7f\x08\x00\x00'
p1837
tp1838
Rp1839
sVthink
p1840
g2
(g6
S'\x81\x08\x00\x00'
p1841
tp1842
Rp1843
sVcheese
p1844
g2
(g6
S'\x9b\x01\x00\x00'
p1845
tp1846
Rp1847
sVsaving
p1848
g2
(g6
S'I\x07\x00\x00'
p1849
tp1850
Rp1851
sVfleeing
p1852
g2
(g6
S'M\x03\x00\x00'
p1853
tp1854
Rp1855
sVspoken
p1856
g2
(g6
S'\xdb\x07\x00\x00'
p1857
tp1858
Rp1859
sVamericans
p1860
g2
(g6
S'\x8a\x00\x00\x00'
p1861
tp1862
Rp1863
sVcarry
p1864
g2
(g6
S'o\x01\x00\x00'
p1865
tp1866
Rp1867
sVsounds
p1868
g2
(g6
S'\xcd\x07\x00\x00'
p1869
tp1870
Rp1871
sVopen
p1872
g2
(g6
S'\xd7\x05\x00\x00'
p1873
tp1874
Rp1875
sVcheesy
p1876
g2
(g6
S'\x9d\x01\x00\x00'
p1877
tp1878
Rp1879
sVcity
p1880
g2
(g6
S'\xb6\x01\x00\x00'
p1881
tp1882
Rp1883
sVlittle
p1884
g2
(g6
S'\xfa\x04\x00\x00'
p1885
tp1886
Rp1887
sV1x
p1888
g2
(g6
S'\x1a\x00\x00\x00'
p1889
tp1890
Rp1891
sVbite
p1892
g2
(g6
S'\t\x01\x00\x00'
p1893
tp1894
Rp1895
sVbits
p1896
g2
(g6
S'\n\x01\x00\x00'
p1897
tp1898
Rp1899
sVeyes
p1900
g2
(g6
S'\x0c\x03\x00\x00'
p1901
tp1902
Rp1903
sVmoscow
p1904
g2
(g6
S'\x7f\x05\x00\x00'
p1905
tp1906
Rp1907
sVboba
p1908
g2
(g6
S'\x12\x01\x00\x00'
p1909
tp1910
Rp1911
sVhillary
p1912
g2
(g6
S'\r\x04\x00\x00'
p1913
tp1914
Rp1915
sV11
p1916
g2
(g6
S'\t\x00\x00\x00'
p1917
tp1918
Rp1919
sV10
p1920
g2
(g6
S'\x03\x00\x00\x00'
p1921
tp1922
Rp1923
sV13
p1924
g2
(g6
S'\x0b\x00\x00\x00'
p1925
tp1926
Rp1927
sV12
p1928
g2
(g6
S'\n\x00\x00\x00'
p1929
tp1930
Rp1931
sVtalkies
p1932
g2
(g6
S'L\x08\x00\x00'
p1933
tp1934
Rp1935
sV14
p1936
g2
(g6
S'\x0c\x00\x00\x00'
p1937
tp1938
Rp1939
sV17
p1940
g2
(g6
S'\x12\x00\x00\x00'
p1941
tp1942
Rp1943
sV16
p1944
g2
(g6
S'\x11\x00\x00\x00'
p1945
tp1946
Rp1947
sV19
p1948
g2
(g6
S'\x14\x00\x00\x00'
p1949
tp1950
Rp1951
sV18
p1952
g2
(g6
S'\x13\x00\x00\x00'
p1953
tp1954
Rp1955
sVcoats
p1956
g2
(g6
S'\xcf\x01\x00\x00'
p1957
tp1958
Rp1959
sVsan
p1960
g2
(g6
S'?\x07\x00\x00'
p1961
tp1962
Rp1963
sVsam
p1964
g2
(g6
S'=\x07\x00\x00'
p1965
tp1966
Rp1967
sVturned
p1968
g2
(g6
S'\xdb\x08\x00\x00'
p1969
tp1970
Rp1971
sVlocations
p1972
g2
(g6
S'\x01\x05\x00\x00'
p1973
tp1974
Rp1975
sVsaw
p1976
g2
(g6
S'L\x07\x00\x00'
p1977
tp1978
Rp1979
sVpoliticos
p1980
g2
(g6
S'Z\x06\x00\x00'
p1981
tp1982
Rp1983
sVkevin
p1984
g2
(g6
S'\xa7\x04\x00\x00'
p1985
tp1986
Rp1987
sVowls
p1988
g2
(g6
S'\xeb\x05\x00\x00'
p1989
tp1990
Rp1991
sVtranslate
p1992
g2
(g6
S'\xb9\x08\x00\x00'
p1993
tp1994
Rp1995
sVnote
p1996
g2
(g6
S'\xb8\x05\x00\x00'
p1997
tp1998
Rp1999
sVpotential
p2000
g2
(g6
S'`\x06\x00\x00'
p2001
tp2002
Rp2003
sVdestroy
p2004
g2
(g6
S'h\x02\x00\x00'
p2005
tp2006
Rp2007
sVchannel
p2008
g2
(g6
S'\x8d\x01\x00\x00'
p2009
tp2010
Rp2011
sV28
p2012
g2
(g6
S'.\x00\x00\x00'
p2013
tp2014
Rp2015
sVpain
p2016
g2
(g6
S'\xf7\x05\x00\x00'
p2017
tp2018
Rp2019
sVtrack
p2020
g2
(g6
S'\xb2\x08\x00\x00'
p2021
tp2022
Rp2023
sVknew
p2024
g2
(g6
S'\xba\x04\x00\x00'
p2025
tp2026
Rp2027
sVpaid
p2028
g2
(g6
S'\xf6\x05\x00\x00'
p2029
tp2030
Rp2031
sVprinted
p2032
g2
(g6
S'z\x06\x00\x00'
p2033
tp2034
Rp2035
sVpair
p2036
g2
(g6
S'\xf9\x05\x00\x00'
p2037
tp2038
Rp2039
sVqueens
p2040
g2
(g6
S'\xac\x06\x00\x00'
p2041
tp2042
Rp2043
sVespecially
p2044
g2
(g6
S'\xeb\x02\x00\x00'
p2045
tp2046
Rp2047
sVsurprising
p2048
g2
(g6
S'/\x08\x00\x00'
p2049
tp2050
Rp2051
sVaverage
p2052
g2
(g6
S'\xc8\x00\x00\x00'
p2053
tp2054
Rp2055
sVsale
p2056
g2
(g6
S':\x07\x00\x00'
p2057
tp2058
Rp2059
sVsalt
p2060
g2
(g6
S';\x07\x00\x00'
p2061
tp2062
Rp2063
sVshop
p2064
g2
(g6
S'\x91\x07\x00\x00'
p2065
tp2066
Rp2067
sVwalking
p2068
g2
(g6
S"'\t\x00\x00"
p2069
tp2070
Rp2071
sVbright
p2072
g2
(g6
S'1\x01\x00\x00'
p2073
tp2074
Rp2075
sVshoe
p2076
g2
(g6
S'\x8e\x07\x00\x00'
p2077
tp2078
Rp2079
sVcorner
p2080
g2
(g6
S'\x01\x02\x00\x00'
p2081
tp2082
Rp2083
sVslow
p2084
g2
(g6
S'\xb3\x07\x00\x00'
p2085
tp2086
Rp2087
sVlauder
p2088
g2
(g6
S'\xd3\x04\x00\x00'
p2089
tp2090
Rp2091
sVgourd
p2092
g2
(g6
S'\xb2\x03\x00\x00'
p2093
tp2094
Rp2095
sVgoing
p2096
g2
(g6
S'\xa6\x03\x00\x00'
p2097
tp2098
Rp2099
sVblack
p2100
g2
(g6
S'\x0b\x01\x00\x00'
p2101
tp2102
Rp2103
sVcarolina
p2104
g2
(g6
S'm\x01\x00\x00'
p2105
tp2106
Rp2107
sVprime
p2108
g2
(g6
S'x\x06\x00\x00'
p2109
tp2110
Rp2111
sVartist
p2112
g2
(g6
S'\xb2\x00\x00\x00'
p2113
tp2114
Rp2115
sVmorning
p2116
g2
(g6
S'~\x05\x00\x00'
p2117
tp2118
Rp2119
sVexperience
p2120
g2
(g6
S'\x04\x03\x00\x00'
p2121
tp2122
Rp2123
sVseat
p2124
g2
(g6
S'd\x07\x00\x00'
p2125
tp2126
Rp2127
sVsean
p2128
g2
(g6
S'_\x07\x00\x00'
p2129
tp2130
Rp2131
sVwonder
p2132
g2
(g6
S'p\t\x00\x00'
p2133
tp2134
Rp2135
sVornament
p2136
g2
(g6
S'\xe4\x05\x00\x00'
p2137
tp2138
Rp2139
sVaffecting
p2140
g2
(g6
S'o\x00\x00\x00'
p2141
tp2142
Rp2143
sVteens
p2144
g2
(g6
S'e\x08\x00\x00'
p2145
tp2146
Rp2147
sVreading
p2148
g2
(g6
S'\xc3\x06\x00\x00'
p2149
tp2150
Rp2151
sVaugust
p2152
g2
(g6
S'\xc2\x00\x00\x00'
p2153
tp2154
Rp2155
sVscreen
p2156
g2
(g6
S'\\\x07\x00\x00'
p2157
tp2158
Rp2159
sVawards
p2160
g2
(g6
S'\xcf\x00\x00\x00'
p2161
tp2162
Rp2163
sVjj
p2164
g2
(g6
S'\x90\x04\x00\x00'
p2165
tp2166
Rp2167
sVinstagrams
p2168
g2
(g6
S'a\x04\x00\x00'
p2169
tp2170
Rp2171
sVguitar
p2172
g2
(g6
S'\xca\x03\x00\x00'
p2173
tp2174
Rp2175
sVdates
p2176
g2
(g6
S'B\x02\x00\x00'
p2177
tp2178
Rp2179
sVaccording
p2180
g2
(g6
S'Q\x00\x00\x00'
p2181
tp2182
Rp2183
sVcalled
p2184
g2
(g6
S'X\x01\x00\x00'
p2185
tp2186
Rp2187
sVtour
p2188
g2
(g6
S'\xac\x08\x00\x00'
p2189
tp2190
Rp2191
sVresidency
p2192
g2
(g6
S'\xf5\x06\x00\x00'
p2193
tp2194
Rp2195
sVspare
p2196
g2
(g6
S'\xd1\x07\x00\x00'
p2197
tp2198
Rp2199
sVcancer
p2200
g2
(g6
S'^\x01\x00\x00'
p2201
tp2202
Rp2203
sVvirginians
p2204
g2
(g6
S'\x15\t\x00\x00'
p2205
tp2206
Rp2207
sVencryption
p2208
g2
(g6
S'\xd6\x02\x00\x00'
p2209
tp2210
Rp2211
sVvacation
p2212
g2
(g6
S'\x03\t\x00\x00'
p2213
tp2214
Rp2215
sVmark
p2216
g2
(g6
S'/\x05\x00\x00'
p2217
tp2218
Rp2219
sVbreath
p2220
g2
(g6
S'+\x01\x00\x00'
p2221
tp2222
Rp2223
sVmars
p2224
g2
(g6
S'3\x05\x00\x00'
p2225
tp2226
Rp2227
sVwants
p2228
g2
(g6
S'-\t\x00\x00'
p2229
tp2230
Rp2231
sVenable
p2232
g2
(g6
S'\xd5\x02\x00\x00'
p2233
tp2234
Rp2235
sVshopping
p2236
g2
(g6
S'\x94\x07\x00\x00'
p2237
tp2238
Rp2239
sVreadings
p2240
g2
(g6
S'\xc4\x06\x00\x00'
p2241
tp2242
Rp2243
sVphotos
p2244
g2
(g6
S'0\x06\x00\x00'
p2245
tp2246
Rp2247
sVspills
p2248
g2
(g6
S'\xd8\x07\x00\x00'
p2249
tp2250
Rp2251
sVwake
p2252
g2
(g6
S'$\t\x00\x00'
p2253
tp2254
Rp2255
sVhashtag
p2256
g2
(g6
S'\xe0\x03\x00\x00'
p2257
tp2258
Rp2259
sVweeks
p2260
g2
(g6
S'K\t\x00\x00'
p2261
tp2262
Rp2263
sVtalented
p2264
g2
(g6
S'I\x08\x00\x00'
p2265
tp2266
Rp2267
sVsound
p2268
g2
(g6
S'\xcc\x07\x00\x00'
p2269
tp2270
Rp2271
sVassociates
p2272
g2
(g6
S'\xba\x00\x00\x00'
p2273
tp2274
Rp2275
sVive
p2276
g2
(g6
S'\x82\x04\x00\x00'
p2277
tp2278
Rp2279
sVsleeping
p2280
g2
(g6
S'\xaf\x07\x00\x00'
p2281
tp2282
Rp2283
sVmiddle
p2284
g2
(g6
S'S\x05\x00\x00'
p2285
tp2286
Rp2287
sVtechnology
p2288
g2
(g6
S'b\x08\x00\x00'
p2289
tp2290
Rp2291
sVbags
p2292
g2
(g6
S'\xd9\x00\x00\x00'
p2293
tp2294
Rp2295
sVdifferent
p2296
g2
(g6
S't\x02\x00\x00'
p2297
tp2298
Rp2299
sVpat
p2300
g2
(g6
S'\x0e\x06\x00\x00'
p2301
tp2302
Rp2303
sVdoctor
p2304
g2
(g6
S'\x92\x02\x00\x00'
p2305
tp2306
Rp2307
sVpay
p2308
g2
(g6
S'\x14\x06\x00\x00'
p2309
tp2310
Rp2311
sVemojis
p2312
g2
(g6
S'\xd3\x02\x00\x00'
p2313
tp2314
Rp2315
sVworkout
p2316
g2
(g6
S'x\t\x00\x00'
p2317
tp2318
Rp2319
sVoil
p2320
g2
(g6
S'\xcf\x05\x00\x00'
p2321
tp2322
Rp2323
sVcompanion
p2324
g2
(g6
S'\xe7\x01\x00\x00'
p2325
tp2326
Rp2327
sVrunning
p2328
g2
(g6
S'0\x07\x00\x00'
p2329
tp2330
Rp2331
sVtotally
p2332
g2
(g6
S'\xa8\x08\x00\x00'
p2333
tp2334
Rp2335
sVdimension
p2336
g2
(g6
S'w\x02\x00\x00'
p2337
tp2338
Rp2339
sVscholarship
p2340
g2
(g6
S'S\x07\x00\x00'
p2341
tp2342
Rp2343
sVsummer
p2344
g2
(g6
S' \x08\x00\x00'
p2345
tp2346
Rp2347
sVoutdoor
p2348
g2
(g6
S'\xe5\x05\x00\x00'
p2349
tp2350
Rp2351
sVmoney
p2352
g2
(g6
S'x\x05\x00\x00'
p2353
tp2354
Rp2355
sVrest
p2356
g2
(g6
S'\xfd\x06\x00\x00'
p2357
tp2358
Rp2359
sVnap
p2360
g2
(g6
S'\x96\x05\x00\x00'
p2361
tp2362
Rp2363
sVskies
p2364
g2
(g6
S'\xa6\x07\x00\x00'
p2365
tp2366
Rp2367
sVmom
p2368
g2
(g6
S'r\x05\x00\x00'
p2369
tp2370
Rp2371
sVworld
p2372
g2
(g6
S'z\t\x00\x00'
p2373
tp2374
Rp2375
sVdare
p2376
g2
(g6
S'=\x02\x00\x00'
p2377
tp2378
Rp2379
sVlightning
p2380
g2
(g6
S'\xed\x04\x00\x00'
p2381
tp2382
Rp2383
sV30
p2384
g2
(g6
S'2\x00\x00\x00'
p2385
tp2386
Rp2387
sVmemories
p2388
g2
(g6
S'G\x05\x00\x00'
p2389
tp2390
Rp2391
sVpower
p2392
g2
(g6
S'b\x06\x00\x00'
p2393
tp2394
Rp2395
sVseconds
p2396
g2
(g6
S'g\x07\x00\x00'
p2397
tp2398
Rp2399
sVthailand
p2400
g2
(g6
S's\x08\x00\x00'
p2401
tp2402
Rp2403
sVlucia
p2404
g2
(g6
S'\x1a\x05\x00\x00'
p2405
tp2406
Rp2407
sVpackage
p2408
g2
(g6
S'\xf1\x05\x00\x00'
p2409
tp2410
Rp2411
sVroar
p2412
g2
(g6
S'\x1d\x07\x00\x00'
p2413
tp2414
Rp2415
sVisland
p2416
g2
(g6
S'w\x04\x00\x00'
p2417
tp2418
Rp2419
sVfavorite
p2420
g2
(g6
S'!\x03\x00\x00'
p2421
tp2422
Rp2423
sVdibs
p2424
g2
(g6
S'o\x02\x00\x00'
p2425
tp2426
Rp2427
sVpockets
p2428
g2
(g6
S'U\x06\x00\x00'
p2429
tp2430
Rp2431
sVmixed
p2432
g2
(g6
S'l\x05\x00\x00'
p2433
tp2434
Rp2435
sVluck
p2436
g2
(g6
S'\x1b\x05\x00\x00'
p2437
tp2438
Rp2439
sVroad
p2440
g2
(g6
S'\x1a\x07\x00\x00'
p2441
tp2442
Rp2443
sVmarshmallow
p2444
g2
(g6
S'4\x05\x00\x00'
p2445
tp2446
Rp2447
sVcoupon
p2448
g2
(g6
S'\x0e\x02\x00\x00'
p2449
tp2450
Rp2451
sVinbox
p2452
g2
(g6
S'M\x04\x00\x00'
p2453
tp2454
Rp2455
sVhomeless
p2456
g2
(g6
S'\x1d\x04\x00\x00'
p2457
tp2458
Rp2459
sVhes
p2460
g2
(g6
S'\x01\x04\x00\x00'
p2461
tp2462
Rp2463
sVhey
p2464
g2
(g6
S'\x02\x04\x00\x00'
p2465
tp2466
Rp2467
sVdreaming
p2468
g2
(g6
S'\xa8\x02\x00\x00'
p2469
tp2470
Rp2471
sVmondays
p2472
g2
(g6
S'w\x05\x00\x00'
p2473
tp2474
Rp2475
sVago
p2476
g2
(g6
S'v\x00\x00\x00'
p2477
tp2478
Rp2479
sVcomplete
p2480
g2
(g6
S'\xe9\x01\x00\x00'
p2481
tp2482
Rp2483
sVskywish
p2484
g2
(g6
S'\xad\x07\x00\x00'
p2485
tp2486
Rp2487
sVbuying
p2488
g2
(g6
S'M\x01\x00\x00'
p2489
tp2490
Rp2491
sVrush
p2492
g2
(g6
S'2\x07\x00\x00'
p2493
tp2494
Rp2495
sVoctober
p2496
g2
(g6
S'\xc8\x05\x00\x00'
p2497
tp2498
Rp2499
sVhooray
p2500
g2
(g6
S'$\x04\x00\x00'
p2501
tp2502
Rp2503
sVapplebees
p2504
g2
(g6
S'\x9f\x00\x00\x00'
p2505
tp2506
Rp2507
sVagree
p2508
g2
(g6
S'w\x00\x00\x00'
p2509
tp2510
Rp2511
sVgone
p2512
g2
(g6
S'\xa9\x03\x00\x00'
p2513
tp2514
Rp2515
sVcitizenship
p2516
g2
(g6
S'\xb5\x01\x00\x00'
p2517
tp2518
Rp2519
sVvideos
p2520
g2
(g6
S'\r\t\x00\x00'
p2521
tp2522
Rp2523
sVforgot
p2524
g2
(g6
S'e\x03\x00\x00'
p2525
tp2526
Rp2527
sVgeneral
p2528
g2
(g6
S'\x88\x03\x00\x00'
p2529
tp2530
Rp2531
sVlifetime
p2532
g2
(g6
S'\xeb\x04\x00\x00'
p2533
tp2534
Rp2535
sVsyrian
p2536
g2
(g6
S'>\x08\x00\x00'
p2537
tp2538
Rp2539
sVfilm
p2540
g2
(g6
S':\x03\x00\x00'
p2541
tp2542
Rp2543
sVcream
p2544
g2
(g6
S'\x16\x02\x00\x00'
p2545
tp2546
Rp2547
sVretiring
p2548
g2
(g6
S'\x03\x07\x00\x00'
p2549
tp2550
Rp2551
sVdrivers
p2552
g2
(g6
S'\xb1\x02\x00\x00'
p2553
tp2554
Rp2555
sVastronaut
p2556
g2
(g6
S'\xbd\x00\x00\x00'
p2557
tp2558
Rp2559
sVstudents
p2560
g2
(g6
S'\x14\x08\x00\x00'
p2561
tp2562
Rp2563
sVherbs
p2564
g2
(g6
S'\xfe\x03\x00\x00'
p2565
tp2566
Rp2567
sVimportant
p2568
g2
(g6
S'H\x04\x00\x00'
p2569
tp2570
Rp2571
sVchris
p2572
g2
(g6
S'\xb1\x01\x00\x00'
p2573
tp2574
Rp2575
sVrequires
p2576
g2
(g6
S'\xf1\x06\x00\x00'
p2577
tp2578
Rp2579
sVcaveman
p2580
g2
(g6
S'\x7f\x01\x00\x00'
p2581
tp2582
Rp2583
sVdollar
p2584
g2
(g6
S'\x97\x02\x00\x00'
p2585
tp2586
Rp2587
sVtalks
p2588
g2
(g6
S'M\x08\x00\x00'
p2589
tp2590
Rp2591
sVchildren
p2592
g2
(g6
S'\xa4\x01\x00\x00'
p2593
tp2594
Rp2595
sVcauses
p2596
g2
(g6
S'}\x01\x00\x00'
p2597
tp2598
Rp2599
sVtv
p2600
g2
(g6
S'\xdd\x08\x00\x00'
p2601
tp2602
Rp2603
sVtail
p2604
g2
(g6
S'E\x08\x00\x00'
p2605
tp2606
Rp2607
sVsmile
p2608
g2
(g6
S'\xb8\x07\x00\x00'
p2609
tp2610
Rp2611
sVmornin
p2612
g2
(g6
S'}\x05\x00\x00'
p2613
tp2614
Rp2615
sVreturned
p2616
g2
(g6
S'\x05\x07\x00\x00'
p2617
tp2618
Rp2619
sVsitting
p2620
g2
(g6
S'\xa2\x07\x00\x00'
p2621
tp2622
Rp2623
sVfall
p2624
g2
(g6
S'\x12\x03\x00\x00'
p2625
tp2626
Rp2627
sVgrunion
p2628
g2
(g6
S'\xc6\x03\x00\x00'
p2629
tp2630
Rp2631
sVsteve
p2632
g2
(g6
S'\xf9\x07\x00\x00'
p2633
tp2634
Rp2635
sVregrammed
p2636
g2
(g6
S'\xde\x06\x00\x00'
p2637
tp2638
Rp2639
sVcable
p2640
g2
(g6
S'Q\x01\x00\x00'
p2641
tp2642
Rp2643
sVjoined
p2644
g2
(g6
S'\x95\x04\x00\x00'
p2645
tp2646
Rp2647
sVlarge
p2648
g2
(g6
S'\xce\x04\x00\x00'
p2649
tp2650
Rp2651
sVdinosaur
p2652
g2
(g6
S'{\x02\x00\x00'
p2653
tp2654
Rp2655
sVadjust
p2656
g2
(g6
S'e\x00\x00\x00'
p2657
tp2658
Rp2659
sVsmall
p2660
g2
(g6
S'\xb4\x07\x00\x00'
p2661
tp2662
Rp2663
sVneighborhood
p2664
g2
(g6
S'\xa2\x05\x00\x00'
p2665
tp2666
Rp2667
sVgrabs
p2668
g2
(g6
S'\xb6\x03\x00\x00'
p2669
tp2670
Rp2671
sVsync
p2672
g2
(g6
S'=\x08\x00\x00'
p2673
tp2674
Rp2675
sVcatching
p2676
g2
(g6
S'y\x01\x00\x00'
p2677
tp2678
Rp2679
sVlawyer
p2680
g2
(g6
S'\xd8\x04\x00\x00'
p2681
tp2682
Rp2683
sVclock
p2684
g2
(g6
S'\xc0\x01\x00\x00'
p2685
tp2686
Rp2687
sVsection
p2688
g2
(g6
S'j\x07\x00\x00'
p2689
tp2690
Rp2691
sVscientists
p2692
g2
(g6
S'V\x07\x00\x00'
p2693
tp2694
Rp2695
sVnurse
p2696
g2
(g6
S'\xc0\x05\x00\x00'
p2697
tp2698
Rp2699
sVmalaria
p2700
g2
(g6
S'(\x05\x00\x00'
p2701
tp2702
Rp2703
sVhours
p2704
g2
(g6
S'-\x04\x00\x00'
p2705
tp2706
Rp2707
sVbuzzing
p2708
g2
(g6
S'O\x01\x00\x00'
p2709
tp2710
Rp2711
sVvieques
p2712
g2
(g6
S'\x0e\t\x00\x00'
p2713
tp2714
Rp2715
sVriviera
p2716
g2
(g6
S'\x19\x07\x00\x00'
p2717
tp2718
Rp2719
sVstretching
p2720
g2
(g6
S'\x0e\x08\x00\x00'
p2721
tp2722
Rp2723
sVpics
p2724
g2
(g6
S'6\x06\x00\x00'
p2725
tp2726
Rp2727
sVairport
p2728
g2
(g6
S'z\x00\x00\x00'
p2729
tp2730
Rp2731
sVsocial
p2732
g2
(g6
S'\xc2\x07\x00\x00'
p2733
tp2734
Rp2735
sVaction
p2736
g2
(g6
S'Y\x00\x00\x00'
p2737
tp2738
Rp2739
sVvip
p2740
g2
(g6
S'\x12\t\x00\x00'
p2741
tp2742
Rp2743
sVpulls
p2744
g2
(g6
S'\x98\x06\x00\x00'
p2745
tp2746
Rp2747
sVselect
p2748
g2
(g6
S'm\x07\x00\x00'
p2749
tp2750
Rp2751
sVamenities
p2752
g2
(g6
S'\x87\x00\x00\x00'
p2753
tp2754
Rp2755
sVhirsch
p2756
g2
(g6
S'\x10\x04\x00\x00'
p2757
tp2758
Rp2759
sVreminiscing
p2760
g2
(g6
S'\xe7\x06\x00\x00'
p2761
tp2762
Rp2763
sVdiamond
p2764
g2
(g6
S'n\x02\x00\x00'
p2765
tp2766
Rp2767
sVdoor
p2768
g2
(g6
S'\x9f\x02\x00\x00'
p2769
tp2770
Rp2771
sVcompany
p2772
g2
(g6
S'\xe8\x01\x00\x00'
p2773
tp2774
Rp2775
sVtown
p2776
g2
(g6
S'\xae\x08\x00\x00'
p2777
tp2778
Rp2779
sVkeeping
p2780
g2
(g6
S'\xa5\x04\x00\x00'
p2781
tp2782
Rp2783
sVhour
p2784
g2
(g6
S',\x04\x00\x00'
p2785
tp2786
Rp2787
sVscience
p2788
g2
(g6
S'U\x07\x00\x00'
p2789
tp2790
Rp2791
sVlearn
p2792
g2
(g6
S'\xde\x04\x00\x00'
p2793
tp2794
Rp2795
sVdec
p2796
g2
(g6
S'N\x02\x00\x00'
p2797
tp2798
Rp2799
sVbeautiful
p2800
g2
(g6
S'\xef\x00\x00\x00'
p2801
tp2802
Rp2803
sVscan
p2804
g2
(g6
S'Q\x07\x00\x00'
p2805
tp2806
Rp2807
sVaccept
p2808
g2
(g6
S'M\x00\x00\x00'
p2809
tp2810
Rp2811
sVminimum
p2812
g2
(g6
S'_\x05\x00\x00'
p2813
tp2814
Rp2815
sVpurchased
p2816
g2
(g6
S'\x9d\x06\x00\x00'
p2817
tp2818
Rp2819
sVdress
p2820
g2
(g6
S'\xaa\x02\x00\x00'
p2821
tp2822
Rp2823
sVinformation
p2824
g2
(g6
S'X\x04\x00\x00'
p2825
tp2826
Rp2827
sVneeds
p2828
g2
(g6
S'\xa0\x05\x00\x00'
p2829
tp2830
Rp2831
sVcomfort
p2832
g2
(g6
S'\xe0\x01\x00\x00'
p2833
tp2834
Rp2835
sVatt
p2836
g2
(g6
S'\xbf\x00\x00\x00'
p2837
tp2838
Rp2839
sVearnings
p2840
g2
(g6
S'\xbf\x02\x00\x00'
p2841
tp2842
Rp2843
sVhugs
p2844
g2
(g6
S'3\x04\x00\x00'
p2845
tp2846
Rp2847
sVreyes
p2848
g2
(g6
S'\x0b\x07\x00\x00'
p2849
tp2850
Rp2851
sVcountryside
p2852
g2
(g6
S'\x0b\x02\x00\x00'
p2853
tp2854
Rp2855
sVadvice
p2856
g2
(g6
S'm\x00\x00\x00'
p2857
tp2858
Rp2859
sVbrett
p2860
g2
(g6
S'.\x01\x00\x00'
p2861
tp2862
Rp2863
sVcoming
p2864
g2
(g6
S'\xe2\x01\x00\x00'
p2865
tp2866
Rp2867
sVtweeting
p2868
g2
(g6
S'\xdf\x08\x00\x00'
p2869
tp2870
Rp2871
sVregister
p2872
g2
(g6
S'\xdb\x06\x00\x00'
p2873
tp2874
Rp2875
sVdragon
p2876
g2
(g6
S'\xa5\x02\x00\x00'
p2877
tp2878
Rp2879
sVbailey
p2880
g2
(g6
S'\xdb\x00\x00\x00'
p2881
tp2882
Rp2883
sVplaying
p2884
g2
(g6
S'N\x06\x00\x00'
p2885
tp2886
Rp2887
sVpans
p2888
g2
(g6
S'\xfd\x05\x00\x00'
p2889
tp2890
Rp2891
sVconversation
p2892
g2
(g6
S'\xf9\x01\x00\x00'
p2893
tp2894
Rp2895
sVheartfelt
p2896
g2
(g6
S'\xf3\x03\x00\x00'
p2897
tp2898
Rp2899
sVtrade
p2900
g2
(g6
S'\xb3\x08\x00\x00'
p2901
tp2902
Rp2903
sVscott
p2904
g2
(g6
S'Y\x07\x00\x00'
p2905
tp2906
Rp2907
sVsmiling
p2908
g2
(g6
S'\xb9\x07\x00\x00'
p2909
tp2910
Rp2911
sV24
p2912
g2
(g6
S"'\x00\x00\x00"
p2913
tp2914
Rp2915
sV25
p2916
g2
(g6
S')\x00\x00\x00'
p2917
tp2918
Rp2919
sV26
p2920
g2
(g6
S',\x00\x00\x00'
p2921
tp2922
Rp2923
sV27
p2924
g2
(g6
S'-\x00\x00\x00'
p2925
tp2926
Rp2927
sV21
p2928
g2
(g6
S'#\x00\x00\x00'
p2929
tp2930
Rp2931
sV22
p2932
g2
(g6
S'%\x00\x00\x00'
p2933
tp2934
Rp2935
sV23
p2936
g2
(g6
S'&\x00\x00\x00'
p2937
tp2938
Rp2939
sVdeeds
p2940
g2
(g6
S'R\x02\x00\x00'
p2941
tp2942
Rp2943
sV29
p2944
g2
(g6
S'/\x00\x00\x00'
p2945
tp2946
Rp2947
sVlate
p2948
g2
(g6
S'\xd0\x04\x00\x00'
p2949
tp2950
Rp2951
sVsauce
p2952
g2
(g6
S'E\x07\x00\x00'
p2953
tp2954
Rp2955
sVcabos
p2956
g2
(g6
S'R\x01\x00\x00'
p2957
tp2958
Rp2959
sVgood
p2960
g2
(g6
S'\xab\x03\x00\x00'
p2961
tp2962
Rp2963
sVmystery
p2964
g2
(g6
S'\x91\x05\x00\x00'
p2965
tp2966
Rp2967
sVeasily
p2968
g2
(g6
S'\xc2\x02\x00\x00'
p2969
tp2970
Rp2971
sV2x
p2972
g2
(g6
S'1\x00\x00\x00'
p2973
tp2974
Rp2975
sVnotes
p2976
g2
(g6
S'\xb9\x05\x00\x00'
p2977
tp2978
Rp2979
sVreactions
p2980
g2
(g6
S'\xc0\x06\x00\x00'
p2981
tp2982
Rp2983
sVhouse
p2984
g2
(g6
S'.\x04\x00\x00'
p2985
tp2986
Rp2987
sVenergy
p2988
g2
(g6
S'\xdc\x02\x00\x00'
p2989
tp2990
Rp2991
sVhard
p2992
g2
(g6
S'\xdd\x03\x00\x00'
p2993
tp2994
Rp2995
sVidea
p2996
g2
(g6
S'A\x04\x00\x00'
p2997
tp2998
Rp2999
sVconnect
p3000
g2
(g6
S'\xf1\x01\x00\x00'
p3001
tp3002
Rp3003
sVhart
p3004
g2
(g6
S'\xdf\x03\x00\x00'
p3005
tp3006
Rp3007
sVinsurance
p3008
g2
(g6
S'e\x04\x00\x00'
p3009
tp3010
Rp3011
sVreally
p3012
g2
(g6
S'\xc9\x06\x00\x00'
p3013
tp3014
Rp3015
sVstands
p3016
g2
(g6
S'\xe7\x07\x00\x00'
p3017
tp3018
Rp3019
sVfunding
p3020
g2
(g6
S'y\x03\x00\x00'
p3021
tp3022
Rp3023
sVmissed
p3024
g2
(g6
S'h\x05\x00\x00'
p3025
tp3026
Rp3027
sVsalute
p3028
g2
(g6
S'<\x07\x00\x00'
p3029
tp3030
Rp3031
sVgiveaway
p3032
g2
(g6
S'\x99\x03\x00\x00'
p3033
tp3034
Rp3035
sVmembers
p3036
g2
(g6
S'E\x05\x00\x00'
p3037
tp3038
Rp3039
sVimagine
p3040
g2
(g6
S'E\x04\x00\x00'
p3041
tp3042
Rp3043
sVowners
p3044
g2
(g6
S'\xed\x05\x00\x00'
p3045
tp3046
Rp3047
sVcastle
p3048
g2
(g6
S't\x01\x00\x00'
p3049
tp3050
Rp3051
sVdont
p3052
g2
(g6
S'\x9d\x02\x00\x00'
p3053
tp3054
Rp3055
sVbullies
p3056
g2
(g6
S'D\x01\x00\x00'
p3057
tp3058
Rp3059
sVnumber
p3060
g2
(g6
S'\xbe\x05\x00\x00'
p3061
tp3062
Rp3063
sVheads
p3064
g2
(g6
S'\xed\x03\x00\x00'
p3065
tp3066
Rp3067
sVjet
p3068
g2
(g6
S'\x8d\x04\x00\x00'
p3069
tp3070
Rp3071
sVindulgent
p3072
g2
(g6
S'U\x04\x00\x00'
p3073
tp3074
Rp3075
sVswipe
p3076
g2
(g6
S':\x08\x00\x00'
p3077
tp3078
Rp3079
sVtradition
p3080
g2
(g6
S'\xb4\x08\x00\x00'
p3081
tp3082
Rp3083
sVpaint
p3084
g2
(g6
S'\xf8\x05\x00\x00'
p3085
tp3086
Rp3087
sVsaint
p3088
g2
(g6
S'7\x07\x00\x00'
p3089
tp3090
Rp3091
sVrelationship
p3092
g2
(g6
S'\xdf\x06\x00\x00'
p3093
tp3094
Rp3095
sVpark
p3096
g2
(g6
S'\x05\x06\x00\x00'
p3097
tp3098
Rp3099
sVfocusing
p3100
g2
(g6
S'X\x03\x00\x00'
p3101
tp3102
Rp3103
sVbelieve
p3104
g2
(g6
S'\xf5\x00\x00\x00'
p3105
tp3106
Rp3107
sVobama
p3108
g2
(g6
S'\xc4\x05\x00\x00'
p3109
tp3110
Rp3111
sVapplebee
p3112
g2
(g6
S'\x9e\x00\x00\x00'
p3113
tp3114
Rp3115
sVgetaway
p3116
g2
(g6
S'\x8b\x03\x00\x00'
p3117
tp3118
Rp3119
sVmarriage
p3120
g2
(g6
S'1\x05\x00\x00'
p3121
tp3122
Rp3123
sVinteractive
p3124
g2
(g6
S'g\x04\x00\x00'
p3125
tp3126
Rp3127
sVantarctica
p3128
g2
(g6
S'\x96\x00\x00\x00'
p3129
tp3130
Rp3131
sVorders
p3132
g2
(g6
S'\xde\x05\x00\x00'
p3133
tp3134
Rp3135
sVsell
p3136
g2
(g6
S'p\x07\x00\x00'
p3137
tp3138
Rp3139
sVmountain
p3140
g2
(g6
S'\x82\x05\x00\x00'
p3141
tp3142
Rp3143
sVbuilt
p3144
g2
(g6
S'B\x01\x00\x00'
p3145
tp3146
Rp3147
sVdancing
p3148
g2
(g6
S':\x02\x00\x00'
p3149
tp3150
Rp3151
sVself
p3152
g2
(g6
S'n\x07\x00\x00'
p3153
tp3154
Rp3155
sVplay
p3156
g2
(g6
S'L\x06\x00\x00'
p3157
tp3158
Rp3159
sVyawn
p3160
g2
(g6
S'\x89\t\x00\x00'
p3161
tp3162
Rp3163
sVbrooklyn
p3164
g2
(g6
S':\x01\x00\x00'
p3165
tp3166
Rp3167
sVplan
p3168
g2
(g6
S'C\x06\x00\x00'
p3169
tp3170
Rp3171
sVservices
p3172
g2
(g6
S'|\x07\x00\x00'
p3173
tp3174
Rp3175
sVexp
p3176
g2
(g6
S'\x01\x03\x00\x00'
p3177
tp3178
Rp3179
sVjesse
p3180
g2
(g6
S'\x8c\x04\x00\x00'
p3181
tp3182
Rp3183
sVmicrosoft
p3184
g2
(g6
S'R\x05\x00\x00'
p3185
tp3186
Rp3187
sVjoining
p3188
g2
(g6
S'\x96\x04\x00\x00'
p3189
tp3190
Rp3191
sVcinnamon
p3192
g2
(g6
S'\xb4\x01\x00\x00'
p3193
tp3194
Rp3195
sVgold
p3196
g2
(g6
S'\xa7\x03\x00\x00'
p3197
tp3198
Rp3199
sVbusinesses
p3200
g2
(g6
S'I\x01\x00\x00'
p3201
tp3202
Rp3203
sVfine
p3204
g2
(g6
S'B\x03\x00\x00'
p3205
tp3206
Rp3207
sVimpact
p3208
g2
(g6
S'G\x04\x00\x00'
p3209
tp3210
Rp3211
sVgiant
p3212
g2
(g6
S'\x8f\x03\x00\x00'
p3213
tp3214
Rp3215
sVwithmembership
p3216
g2
(g6
S'i\t\x00\x00'
p3217
tp3218
Rp3219
sVweve
p3220
g2
(g6
S'Q\t\x00\x00'
p3221
tp3222
Rp3223
sVexpress
p3224
g2
(g6
S'\t\x03\x00\x00'
p3225
tp3226
Rp3227
sVcheaper
p3228
g2
(g6
S'\x96\x01\x00\x00'
p3229
tp3230
Rp3231
sVclosely
p3232
g2
(g6
S'\xc4\x01\x00\x00'
p3233
tp3234
Rp3235
sVresolve
p3236
g2
(g6
S'\xf8\x06\x00\x00'
p3237
tp3238
Rp3239
sVremove
p3240
g2
(g6
S'\xe9\x06\x00\x00'
p3241
tp3242
Rp3243
sVbird
p3244
g2
(g6
S'\x06\x01\x00\x00'
p3245
tp3246
Rp3247
sVcommon
p3248
g2
(g6
S'\xe4\x01\x00\x00'
p3249
tp3250
Rp3251
sVpeak
p3252
g2
(g6
S'\x18\x06\x00\x00'
p3253
tp3254
Rp3255
sVriver
p3256
g2
(g6
S'\x18\x07\x00\x00'
p3257
tp3258
Rp3259
sVrestaurants
p3260
g2
(g6
S'\xfe\x06\x00\x00'
p3261
tp3262
Rp3263
sVkalamazoo
p3264
g2
(g6
S'\xa0\x04\x00\x00'
p3265
tp3266
Rp3267
sVset
p3268
g2
(g6
S'~\x07\x00\x00'
p3269
tp3270
Rp3271
sVcreator
p3272
g2
(g6
S'\x1a\x02\x00\x00'
p3273
tp3274
Rp3275
sVbyron
p3276
g2
(g6
S'P\x01\x00\x00'
p3277
tp3278
Rp3279
sVsea
p3280
g2
(g6
S'^\x07\x00\x00'
p3281
tp3282
Rp3283
sVcozy
p3284
g2
(g6
S'\x14\x02\x00\x00'
p3285
tp3286
Rp3287
sVproject
p3288
g2
(g6
S'\x89\x06\x00\x00'
p3289
tp3290
Rp3291
sVmovin
p3292
g2
(g6
S'\x88\x05\x00\x00'
p3293
tp3294
Rp3295
sVmovie
p3296
g2
(g6
S'\x86\x05\x00\x00'
p3297
tp3298
Rp3299
sVfans
p3300
g2
(g6
S'\x19\x03\x00\x00'
p3301
tp3302
Rp3303
sVdonate
p3304
g2
(g6
S'\x9b\x02\x00\x00'
p3305
tp3306
Rp3307
sVnope
p3308
g2
(g6
S'\xb1\x05\x00\x00'
p3309
tp3310
Rp3311
sVuntouched
p3312
g2
(g6
S'\xf0\x08\x00\x00'
p3313
tp3314
Rp3315
sVthou
p3316
g2
(g6
S'\x83\x08\x00\x00'
p3317
tp3318
Rp3319
sVhint
p3320
g2
(g6
S'\x0e\x04\x00\x00'
p3321
tp3322
Rp3323
sVpdf
p3324
g2
(g6
S'\x17\x06\x00\x00'
p3325
tp3326
Rp3327
sVload
p3328
g2
(g6
S'\xfe\x04\x00\x00'
p3329
tp3330
Rp3331
sVsimple
p3332
g2
(g6
S'\x9b\x07\x00\x00'
p3333
tp3334
Rp3335
sVrad
p3336
g2
(g6
S'\xb5\x06\x00\x00'
p3337
tp3338
Rp3339
sVchurch
p3340
g2
(g6
S'\xb3\x01\x00\x00'
p3341
tp3342
Rp3343
sVplatinum
p3344
g2
(g6
S'K\x06\x00\x00'
p3345
tp3346
Rp3347
sVraise
p3348
g2
(g6
S'\xb7\x06\x00\x00'
p3349
tp3350
Rp3351
sVcreate
p3352
g2
(g6
S'\x17\x02\x00\x00'
p3353
tp3354
Rp3355
sVrunner
p3356
g2
(g6
S'/\x07\x00\x00'
p3357
tp3358
Rp3359
sVsecret
p3360
g2
(g6
S'h\x07\x00\x00'
p3361
tp3362
Rp3363
sVinitiation
p3364
g2
(g6
S'Z\x04\x00\x00'
p3365
tp3366
Rp3367
sVireland
p3368
g2
(g6
S't\x04\x00\x00'
p3369
tp3370
Rp3371
sVpeppers
p3372
g2
(g6
S'\x1e\x06\x00\x00'
p3373
tp3374
Rp3375
sVwithhhttg
p3376
g2
(g6
S'h\t\x00\x00'
p3377
tp3378
Rp3379
sV01
p3380
g2
(g6
S'\x02\x00\x00\x00'
p3381
tp3382
Rp3383
sVgas
p3384
g2
(g6
S'\x83\x03\x00\x00'
p3385
tp3386
Rp3387
sVgreat
p3388
g2
(g6
S'\xbb\x03\x00\x00'
p3389
tp3390
Rp3391
sVunderstand
p3392
g2
(g6
S'\xe8\x08\x00\x00'
p3393
tp3394
Rp3395
sVinsiders
p3396
g2
(g6
S']\x04\x00\x00'
p3397
tp3398
Rp3399
sVtowns
p3400
g2
(g6
S'\xaf\x08\x00\x00'
p3401
tp3402
Rp3403
sVstraight
p3404
g2
(g6
S'\x07\x08\x00\x00'
p3405
tp3406
Rp3407
sVfun
p3408
g2
(g6
S'x\x03\x00\x00'
p3409
tp3410
Rp3411
sVreal
p3412
g2
(g6
S'\xc6\x06\x00\x00'
p3413
tp3414
Rp3415
sVcentury
p3416
g2
(g6
S'\x87\x01\x00\x00'
p3417
tp3418
Rp3419
sVfunny
p3420
g2
(g6
S'z\x03\x00\x00'
p3421
tp3422
Rp3423
sVitaly
p3424
g2
(g6
S'~\x04\x00\x00'
p3425
tp3426
Rp3427
sVrules
p3428
g2
(g6
S'-\x07\x00\x00'
p3429
tp3430
Rp3431
sVvirtually
p3432
g2
(g6
S'\x17\t\x00\x00'
p3433
tp3434
Rp3435
sVcaign
p3436
g2
(g6
S'S\x01\x00\x00'
p3437
tp3438
Rp3439
sVpasswords
p3440
g2
(g6
S'\r\x06\x00\x00'
p3441
tp3442
Rp3443
sVyesterday
p3444
g2
(g6
S'\x8f\t\x00\x00'
p3445
tp3446
Rp3447
sVvirginia
p3448
g2
(g6
S'\x14\t\x00\x00'
p3449
tp3450
Rp3451
sVmoment
p3452
g2
(g6
S's\x05\x00\x00'
p3453
tp3454
Rp3455
sVwalmart
p3456
g2
(g6
S')\t\x00\x00'
p3457
tp3458
Rp3459
sVsantorini
p3460
g2
(g6
S'B\x07\x00\x00'
p3461
tp3462
Rp3463
sVpicks
p3464
g2
(g6
S'5\x06\x00\x00'
p3465
tp3466
Rp3467
sVbody
p3468
g2
(g6
S'\x13\x01\x00\x00'
p3469
tp3470
Rp3471
sVtheatres
p3472
g2
(g6
S'y\x08\x00\x00'
p3473
tp3474
Rp3475
sVentry
p3476
g2
(g6
S'\xe4\x02\x00\x00'
p3477
tp3478
Rp3479
sVmoving
p3480
g2
(g6
S'\x89\x05\x00\x00'
p3481
tp3482
Rp3483
sVcheddar
p3484
g2
(g6
S'\x99\x01\x00\x00'
p3485
tp3486
Rp3487
sV109c
p3488
g2
(g6
S'\x07\x00\x00\x00'
p3489
tp3490
Rp3491
sVwearable
p3492
g2
(g6
S'?\t\x00\x00'
p3493
tp3494
Rp3495
sVapple
p3496
g2
(g6
S'\x9d\x00\x00\x00'
p3497
tp3498
Rp3499
sVcut
p3500
g2
(g6
S'/\x02\x00\x00'
p3501
tp3502
Rp3503
sVcup
p3504
g2
(g6
S'*\x02\x00\x00'
p3505
tp3506
Rp3507
sVqueen
p3508
g2
(g6
S'\xab\x06\x00\x00'
p3509
tp3510
Rp3511
sVfitting
p3512
g2
(g6
S'H\x03\x00\x00'
p3513
tp3514
Rp3515
sVsnag
p3516
g2
(g6
S'\xbd\x07\x00\x00'
p3517
tp3518
Rp3519
sVhues
p3520
g2
(g6
S'0\x04\x00\x00'
p3521
tp3522
Rp3523
sVparents
p3524
g2
(g6
S'\x03\x06\x00\x00'
p3525
tp3526
Rp3527
sVlocation
p3528
g2
(g6
S'\x00\x05\x00\x00'
p3529
tp3530
Rp3531
sVsnap
p3532
g2
(g6
S'\xbe\x07\x00\x00'
p3533
tp3534
Rp3535
sVexcited
p3536
g2
(g6
S'\xf9\x02\x00\x00'
p3537
tp3538
Rp3539
sVsurprised
p3540
g2
(g6
S'.\x08\x00\x00'
p3541
tp3542
Rp3543
sVaustralia
p3544
g2
(g6
S'\xc4\x00\x00\x00'
p3545
tp3546
Rp3547
sVvictims
p3548
g2
(g6
S'\n\t\x00\x00'
p3549
tp3550
Rp3551
sVemergency
p3552
g2
(g6
S'\xd2\x02\x00\x00'
p3553
tp3554
Rp3555
sVbig
p3556
g2
(g6
S'\x00\x01\x00\x00'
p3557
tp3558
Rp3559
sVcouple
p3560
g2
(g6
S'\r\x02\x00\x00'
p3561
tp3562
Rp3563
sVmatters
p3564
g2
(g6
S'<\x05\x00\x00'
p3565
tp3566
Rp3567
sVbit
p3568
g2
(g6
S'\x08\x01\x00\x00'
p3569
tp3570
Rp3571
sVknock
p3572
g2
(g6
S'\xbb\x04\x00\x00'
p3573
tp3574
Rp3575
sVstylist
p3576
g2
(g6
S'\x1a\x08\x00\x00'
p3577
tp3578
Rp3579
sVcontinue
p3580
g2
(g6
S'\xf6\x01\x00\x00'
p3581
tp3582
Rp3583
sVstylish
p3584
g2
(g6
S'\x19\x08\x00\x00'
p3585
tp3586
Rp3587
sVgoogle
p3588
g2
(g6
S'\xaf\x03\x00\x00'
p3589
tp3590
Rp3591
sVbuttons
p3592
g2
(g6
S'K\x01\x00\x00'
p3593
tp3594
Rp3595
sVpali
p3596
g2
(g6
S'\xfc\x05\x00\x00'
p3597
tp3598
Rp3599
sVstrongest
p3600
g2
(g6
S'\x11\x08\x00\x00'
p3601
tp3602
Rp3603
sVpale
p3604
g2
(g6
S'\xfb\x05\x00\x00'
p3605
tp3606
Rp3607
sVscale
p3608
g2
(g6
S'P\x07\x00\x00'
p3609
tp3610
Rp3611
sVjewelry
p3612
g2
(g6
S'\x8e\x04\x00\x00'
p3613
tp3614
Rp3615
sVsinging
p3616
g2
(g6
S'\x9c\x07\x00\x00'
p3617
tp3618
Rp3619
sVdecision
p3620
g2
(g6
S'Q\x02\x00\x00'
p3621
tp3622
Rp3623
sVcast
p3624
g2
(g6
S's\x01\x00\x00'
p3625
tp3626
Rp3627
sVpen
p3628
g2
(g6
S'\x1c\x06\x00\x00'
p3629
tp3630
Rp3631
sVepic
p3632
g2
(g6
S'\xe5\x02\x00\x00'
p3633
tp3634
Rp3635
sVword
p3636
g2
(g6
S's\t\x00\x00'
p3637
tp3638
Rp3639
sVcostumes
p3640
g2
(g6
S'\x05\x02\x00\x00'
p3641
tp3642
Rp3643
sVsanta
p3644
g2
(g6
S'A\x07\x00\x00'
p3645
tp3646
Rp3647
sVserved
p3648
g2
(g6
S'y\x07\x00\x00'
p3649
tp3650
Rp3651
sVinspiring
p3652
g2
(g6
S'_\x04\x00\x00'
p3653
tp3654
Rp3655
sVusa
p3656
g2
(g6
S'\xfa\x08\x00\x00'
p3657
tp3658
Rp3659
sVnetflix
p3660
g2
(g6
S'\xa4\x05\x00\x00'
p3661
tp3662
Rp3663
sVoatmeal
p3664
g2
(g6
S'\xc3\x05\x00\x00'
p3665
tp3666
Rp3667
sVhawaiianmiles
p3668
g2
(g6
S'\xe5\x03\x00\x00'
p3669
tp3670
Rp3671
sVjimmy
p3672
g2
(g6
S'\x8f\x04\x00\x00'
p3673
tp3674
Rp3675
sVclinton
p3676
g2
(g6
S'\xbe\x01\x00\x00'
p3677
tp3678
Rp3679
sVcolorado
p3680
g2
(g6
S'\xda\x01\x00\x00'
p3681
tp3682
Rp3683
sVterrorists
p3684
g2
(g6
S'm\x08\x00\x00'
p3685
tp3686
Rp3687
sVdiwali
p3688
g2
(g6
S'\x8c\x02\x00\x00'
p3689
tp3690
Rp3691
sVsubmit
p3692
g2
(g6
S'\x1b\x08\x00\x00'
p3693
tp3694
Rp3695
sVcustom
p3696
g2
(g6
S',\x02\x00\x00'
p3697
tp3698
Rp3699
sVsuit
p3700
g2
(g6
S'\x1e\x08\x00\x00'
p3701
tp3702
Rp3703
sVinvite
p3704
g2
(g6
S'n\x04\x00\x00'
p3705
tp3706
Rp3707
sVimmigration
p3708
g2
(g6
S'F\x04\x00\x00'
p3709
tp3710
Rp3711
sVdelighting
p3712
g2
(g6
S'W\x02\x00\x00'
p3713
tp3714
Rp3715
sVepisode
p3716
g2
(g6
S'\xe6\x02\x00\x00'
p3717
tp3718
Rp3719
sVline
p3720
g2
(g6
S'\xf3\x04\x00\x00'
p3721
tp3722
Rp3723
sVexecs
p3724
g2
(g6
S'\xfe\x02\x00\x00'
p3725
tp3726
Rp3727
sVlanvin
p3728
g2
(g6
S'\xcc\x04\x00\x00'
p3729
tp3730
Rp3731
sVinfluence
p3732
g2
(g6
S'V\x04\x00\x00'
p3733
tp3734
Rp3735
sVsingle
p3736
g2
(g6
S'\x9d\x07\x00\x00'
p3737
tp3738
Rp3739
sVchat
p3740
g2
(g6
S'\x94\x01\x00\x00'
p3741
tp3742
Rp3743
sVgrammasters
p3744
g2
(g6
S'\xb8\x03\x00\x00'
p3745
tp3746
Rp3747
sVthinks
p3748
g2
(g6
S'\x82\x08\x00\x00'
p3749
tp3750
Rp3751
sVdefinitely
p3752
g2
(g6
S'T\x02\x00\x00'
p3753
tp3754
Rp3755
sVscraps
p3756
g2
(g6
S'Z\x07\x00\x00'
p3757
tp3758
Rp3759
sVprepared
p3760
g2
(g6
S'n\x06\x00\x00'
p3761
tp3762
Rp3763
sVmeals
p3764
g2
(g6
S'?\x05\x00\x00'
p3765
tp3766
Rp3767
sVvehicles
p3768
g2
(g6
S'\x08\t\x00\x00'
p3769
tp3770
Rp3771
sVcooked
p3772
g2
(g6
S'\xfb\x01\x00\x00'
p3773
tp3774
Rp3775
sV2000
p3776
g2
(g6
S'\x1c\x00\x00\x00'
p3777
tp3778
Rp3779
sV2006
p3780
g2
(g6
S'\x1d\x00\x00\x00'
p3781
tp3782
Rp3783
sVenrolled
p3784
g2
(g6
S'\xe0\x02\x00\x00'
p3785
tp3786
Rp3787
sVfresh
p3788
g2
(g6
S'n\x03\x00\x00'
p3789
tp3790
Rp3791
sVhello
p3792
g2
(g6
S'\xf9\x03\x00\x00'
p3793
tp3794
Rp3795
sVcode
p3796
g2
(g6
S'\xd1\x01\x00\x00'
p3797
tp3798
Rp3799
sVgroceries
p3800
g2
(g6
S'\xc1\x03\x00\x00'
p3801
tp3802
Rp3803
sVyoung
p3804
g2
(g6
S'\x95\t\x00\x00'
p3805
tp3806
Rp3807
sVsend
p3808
g2
(g6
S'q\x07\x00\x00'
p3809
tp3810
Rp3811
sVhelps
p3812
g2
(g6
S'\xfd\x03\x00\x00'
p3813
tp3814
Rp3815
sVwomen
p3816
g2
(g6
S'n\t\x00\x00'
p3817
tp3818
Rp3819
sVresources
p3820
g2
(g6
S'\xf9\x06\x00\x00'
p3821
tp3822
Rp3823
sVrandom
p3824
g2
(g6
S'\xba\x06\x00\x00'
p3825
tp3826
Rp3827
sVputting
p3828
g2
(g6
S'\xa3\x06\x00\x00'
p3829
tp3830
Rp3831
sVwipe
p3832
g2
(g6
S'b\t\x00\x00'
p3833
tp3834
Rp3835
sVentire
p3836
g2
(g6
S'\xe3\x02\x00\x00'
p3837
tp3838
Rp3839
sVmagic
p3840
g2
(g6
S'"\x05\x00\x00'
p3841
tp3842
Rp3843
sVsalad
p3844
g2
(g6
S'8\x07\x00\x00'
p3845
tp3846
Rp3847
sVhaving
p3848
g2
(g6
S'\xe3\x03\x00\x00'
p3849
tp3850
Rp3851
sVeve
p3852
g2
(g6
S'\xf3\x02\x00\x00'
p3853
tp3854
Rp3855
sVrace
p3856
g2
(g6
S'\xb4\x06\x00\x00'
p3857
tp3858
Rp3859
sVmassachusetts
p3860
g2
(g6
S'7\x05\x00\x00'
p3861
tp3862
Rp3863
sVdockers
p3864
g2
(g6
S'\x91\x02\x00\x00'
p3865
tp3866
Rp3867
sVvideo
p3868
g2
(g6
S'\x0c\t\x00\x00'
p3869
tp3870
Rp3871
sVchicago
p3872
g2
(g6
S'\xa0\x01\x00\x00'
p3873
tp3874
Rp3875
sVgiving
p3876
g2
(g6
S'\x9b\x03\x00\x00'
p3877
tp3878
Rp3879
sVaccess
p3880
g2
(g6
S'O\x00\x00\x00'
p3881
tp3882
Rp3883
sVcurrently
p3884
g2
(g6
S'+\x02\x00\x00'
p3885
tp3886
Rp3887
sVnails
p3888
g2
(g6
S'\x95\x05\x00\x00'
p3889
tp3890
Rp3891
sVexercise
p3892
g2
(g6
S'\xff\x02\x00\x00'
p3893
tp3894
Rp3895
sV3d
p3896
g2
(g6
S'6\x00\x00\x00'
p3897
tp3898
Rp3899
sVlee
p3900
g2
(g6
S'\xe1\x04\x00\x00'
p3901
tp3902
Rp3903
sVexchange
p3904
g2
(g6
S'\xf8\x02\x00\x00'
p3905
tp3906
Rp3907
sVdelivering
p3908
g2
(g6
S'Z\x02\x00\x00'
p3909
tp3910
Rp3911
sVlet
p3912
g2
(g6
S'\xe5\x04\x00\x00'
p3913
tp3914
Rp3915
sVsafer
p3916
g2
(g6
S'4\x07\x00\x00'
p3917
tp3918
Rp3919
sV39
p3920
g2
(g6
S'5\x00\x00\x00'
p3921
tp3922
Rp3923
sV31
p3924
g2
(g6
S'3\x00\x00\x00'
p3925
tp3926
Rp3927
sValaska
p3928
g2
(g6
S'}\x00\x00\x00'
p3929
tp3930
Rp3931
sV35
p3932
g2
(g6
S'4\x00\x00\x00'
p3933
tp3934
Rp3935
sVclimb
p3936
g2
(g6
S'\xbd\x01\x00\x00'
p3937
tp3938
Rp3939
sVmakes
p3940
g2
(g6
S'&\x05\x00\x00'
p3941
tp3942
Rp3943
sVweekends
p3944
g2
(g6
S'J\t\x00\x00'
p3945
tp3946
Rp3947
sVthats
p3948
g2
(g6
S'w\x08\x00\x00'
p3949
tp3950
Rp3951
sVsiri
p3952
g2
(g6
S'\x9e\x07\x00\x00'
p3953
tp3954
Rp3955
sVprivate
p3956
g2
(g6
S'|\x06\x00\x00'
p3957
tp3958
Rp3959
sVtap
p3960
g2
(g6
S'R\x08\x00\x00'
p3961
tp3962
Rp3963
sVtools
p3964
g2
(g6
S'\xa5\x08\x00\x00'
p3965
tp3966
Rp3967
sVbazaar
p3968
g2
(g6
S'\xe7\x00\x00\x00'
p3969
tp3970
Rp3971
sVbreakup
p3972
g2
(g6
S')\x01\x00\x00'
p3973
tp3974
Rp3975
sVcapri
p3976
g2
(g6
S'b\x01\x00\x00'
p3977
tp3978
Rp3979
sVasteroid
p3980
g2
(g6
S'\xbc\x00\x00\x00'
p3981
tp3982
Rp3983
sVupcoming
p3984
g2
(g6
S'\xf3\x08\x00\x00'
p3985
tp3986
Rp3987
sVhalloween
p3988
g2
(g6
S'\xd1\x03\x00\x00'
p3989
tp3990
Rp3991
sVonedrive
p3992
g2
(g6
S'\xd3\x05\x00\x00'
p3993
tp3994
Rp3995
sVtrail
p3996
g2
(g6
S'\xb6\x08\x00\x00'
p3997
tp3998
Rp3999
sVprizes
p4000
g2
(g6
S'~\x06\x00\x00'
p4001
tp4002
Rp4003
sVbaby
p4004
g2
(g6
S'\xd3\x00\x00\x00'
p4005
tp4006
Rp4007
sVok
p4008
g2
(g6
S'\xd0\x05\x00\x00'
p4009
tp4010
Rp4011
sVcustomer
p4012
g2
(g6
S'-\x02\x00\x00'
p4013
tp4014
Rp4015
sVaccount
p4016
g2
(g6
S'R\x00\x00\x00'
p4017
tp4018
Rp4019
sVanimals
p4020
g2
(g6
S'\x8f\x00\x00\x00'
p4021
tp4022
Rp4023
sVchallenge
p4024
g2
(g6
S'\x8a\x01\x00\x00'
p4025
tp4026
Rp4027
sVdidnt
p4028
g2
(g6
S'r\x02\x00\x00'
p4029
tp4030
Rp4031
sVwearing
p4032
g2
(g6
S'@\t\x00\x00'
p4033
tp4034
Rp4035
sVfringe
p4036
g2
(g6
S'u\x03\x00\x00'
p4037
tp4038
Rp4039
sVsnacks
p4040
g2
(g6
S'\xbc\x07\x00\x00'
p4041
tp4042
Rp4043
sVprocess
p4044
g2
(g6
S'\x82\x06\x00\x00'
p4045
tp4046
Rp4047
sVslim
p4048
g2
(g6
S'\xb1\x07\x00\x00'
p4049
tp4050
Rp4051
sVpieces
p4052
g2
(g6
S':\x06\x00\x00'
p4053
tp4054
Rp4055
sVhigh
p4056
g2
(g6
S'\x0b\x04\x00\x00'
p4057
tp4058
Rp4059
sVslip
p4060
g2
(g6
S'\xb2\x07\x00\x00'
p4061
tp4062
Rp4063
sVbones
p4064
g2
(g6
S'\x15\x01\x00\x00'
p4065
tp4066
Rp4067
sVpaws
p4068
g2
(g6
S'\x13\x06\x00\x00'
p4069
tp4070
Rp4071
sVfett
p4072
g2
(g6
S'1\x03\x00\x00'
p4073
tp4074
Rp4075
sVprotect
p4076
g2
(g6
S'\x8e\x06\x00\x00'
p4077
tp4078
Rp4079
sVboxing
p4080
g2
(g6
S'\x1f\x01\x00\x00'
p4081
tp4082
Rp4083
sVdelay
p4084
g2
(g6
S'U\x02\x00\x00'
p4085
tp4086
Rp4087
sVwinners
p4088
g2
(g6
S'`\t\x00\x00'
p4089
tp4090
Rp4091
sVforest
p4092
g2
(g6
S'a\x03\x00\x00'
p4093
tp4094
Rp4095
sVcomedy
p4096
g2
(g6
S'\xde\x01\x00\x00'
p4097
tp4098
Rp4099
sVoz
p4100
g2
(g6
S'\xee\x05\x00\x00'
p4101
tp4102
Rp4103
sVprofile
p4104
g2
(g6
S'\x87\x06\x00\x00'
p4105
tp4106
Rp4107
sVkickstarter
p4108
g2
(g6
S'\xae\x04\x00\x00'
p4109
tp4110
Rp4111
sVact
p4112
g2
(g6
S'X\x00\x00\x00'
p4113
tp4114
Rp4115
sVcollection
p4116
g2
(g6
S'\xd7\x01\x00\x00'
p4117
tp4118
Rp4119
sVfits
p4120
g2
(g6
S'G\x03\x00\x00'
p4121
tp4122
Rp4123
sVlines
p4124
g2
(g6
S'\xf4\x04\x00\x00'
p4125
tp4126
Rp4127
sVchief
p4128
g2
(g6
S'\xa2\x01\x00\x00'
p4129
tp4130
Rp4131
sVallow
p4132
g2
(g6
S'\x82\x00\x00\x00'
p4133
tp4134
Rp4135
sVgalaxy
p4136
g2
(g6
S'~\x03\x00\x00'
p4137
tp4138
Rp4139
sVperfect
p4140
g2
(g6
S'\x1f\x06\x00\x00'
p4141
tp4142
Rp4143
sVlg
p4144
g2
(g6
S'\xe9\x04\x00\x00'
p4145
tp4146
Rp4147
sVla
p4148
g2
(g6
S'\xc3\x04\x00\x00'
p4149
tp4150
Rp4151
sVchosen
p4152
g2
(g6
S'\xb0\x01\x00\x00'
p4153
tp4154
Rp4155
sVll
p4156
g2
(g6
S'\xfd\x04\x00\x00'
p4157
tp4158
Rp4159
sVage
p4160
g2
(g6
S's\x00\x00\x00'
p4161
tp4162
Rp4163
sV2015
p4164
g2
(g6
S'!\x00\x00\x00'
p4165
tp4166
Rp4167
sVpuerto
p4168
g2
(g6
S'\x97\x06\x00\x00'
p4169
tp4170
Rp4171
sV2016
p4172
g2
(g6
S'"\x00\x00\x00'
p4173
tp4174
Rp4175
sV2011
p4176
g2
(g6
S'\x1e\x00\x00\x00'
p4177
tp4178
Rp4179
sV2013
p4180
g2
(g6
S'\x1f\x00\x00\x00'
p4181
tp4182
Rp4183
sVdad
p4184
g2
(g6
S'6\x02\x00\x00'
p4185
tp4186
Rp4187
sVdesigns
p4188
g2
(g6
S'e\x02\x00\x00'
p4189
tp4190
Rp4191
sVgreater
p4192
g2
(g6
S'\xbc\x03\x00\x00'
p4193
tp4194
Rp4195
sVspell
p4196
g2
(g6
S'\xd6\x07\x00\x00'
p4197
tp4198
Rp4199
sVearn
p4200
g2
(g6
S'\xbd\x02\x00\x00'
p4201
tp4202
Rp4203
sVmention
p4204
g2
(g6
S'I\x05\x00\x00'
p4205
tp4206
Rp4207
sVkindness
p4208
g2
(g6
S'\xb6\x04\x00\x00'
p4209
tp4210
Rp4211
sVday
p4212
g2
(g6
S'F\x02\x00\x00'
p4213
tp4214
Rp4215
sVpresidential
p4216
g2
(g6
S'r\x06\x00\x00'
p4217
tp4218
Rp4219
sVfebruary
p4220
g2
(g6
S'&\x03\x00\x00'
p4221
tp4222
Rp4223
sVbetty
p4224
g2
(g6
S'\xfd\x00\x00\x00'
p4225
tp4226
Rp4227
sVtruth
p4228
g2
(g6
S'\xd1\x08\x00\x00'
p4229
tp4230
Rp4231
sVkolento
p4232
g2
(g6
S'\xc1\x04\x00\x00'
p4233
tp4234
Rp4235
sVstock
p4236
g2
(g6
S'\xfb\x07\x00\x00'
p4237
tp4238
Rp4239
sVapologize
p4240
g2
(g6
S'\x9a\x00\x00\x00'
p4241
tp4242
Rp4243
sVpantry
p4244
g2
(g6
S'\xfe\x05\x00\x00'
p4245
tp4246
Rp4247
sVbooks
p4248
g2
(g6
S'\x18\x01\x00\x00'
p4249
tp4250
Rp4251
sVsexual
p4252
g2
(g6
S'\x81\x07\x00\x00'
p4253
tp4254
Rp4255
sVmatt
p4256
g2
(g6
S':\x05\x00\x00'
p4257
tp4258
Rp4259
sValzheimers
p4260
g2
(g6
S'\x84\x00\x00\x00'
p4261
tp4262
Rp4263
sVred
p4264
g2
(g6
S'\xd5\x06\x00\x00'
p4265
tp4266
Rp4267
sVreleaf
p4268
g2
(g6
S'\xe1\x06\x00\x00'
p4269
tp4270
Rp4271
sVgifting
p4272
g2
(g6
S'\x94\x03\x00\x00'
p4273
tp4274
Rp4275
sVdavid
p4276
g2
(g6
S'E\x02\x00\x00'
p4277
tp4278
Rp4279
sVchicken
p4280
g2
(g6
S'\xa1\x01\x00\x00'
p4281
tp4282
Rp4283
sVpudding
p4284
g2
(g6
S'\x96\x06\x00\x00'
p4285
tp4286
Rp4287
sVretail
p4288
g2
(g6
S'\x00\x07\x00\x00'
p4289
tp4290
Rp4291
sVscarf
p4292
g2
(g6
S'R\x07\x00\x00'
p4293
tp4294
Rp4295
sVowner
p4296
g2
(g6
S'\xec\x05\x00\x00'
p4297
tp4298
Rp4299
sVlos
p4300
g2
(g6
S'\r\x05\x00\x00'
p4301
tp4302
Rp4303
sVwiththe
p4304
g2
(g6
S'j\t\x00\x00'
p4305
tp4306
Rp4307
sVgear
p4308
g2
(g6
S'\x86\x03\x00\x00'
p4309
tp4310
Rp4311
sVshorts
p4312
g2
(g6
S'\x95\x07\x00\x00'
p4313
tp4314
Rp4315
sVipad
p4316
g2
(g6
S'q\x04\x00\x00'
p4317
tp4318
Rp4319
sVloved
p4320
g2
(g6
S'\x14\x05\x00\x00'
p4321
tp4322
Rp4323
sVprune
p4324
g2
(g6
S'\x93\x06\x00\x00'
p4325
tp4326
Rp4327
sVloves
p4328
g2
(g6
S'\x15\x05\x00\x00'
p4329
tp4330
Rp4331
sVurrl
p4332
g2
(g6
S'\xf9\x08\x00\x00'
p4333
tp4334
Rp4335
sVcollecting
p4336
g2
(g6
S'\xd6\x01\x00\x00'
p4337
tp4338
Rp4339
sVcomfortable
p4340
g2
(g6
S'\xe1\x01\x00\x00'
p4341
tp4342
Rp4343
sVtonight
p4344
g2
(g6
S'\xa3\x08\x00\x00'
p4345
tp4346
Rp4347
sVsky
p4348
g2
(g6
S'\xab\x07\x00\x00'
p4349
tp4350
Rp4351
sVnecessities
p4352
g2
(g6
S'\x9c\x05\x00\x00'
p4353
tp4354
Rp4355
sVmin
p4356
g2
(g6
S'\\\x05\x00\x00'
p4357
tp4358
Rp4359
sVmills
p4360
g2
(g6
S'[\x05\x00\x00'
p4361
tp4362
Rp4363
sVgravity
p4364
g2
(g6
S'\xb9\x03\x00\x00'
p4365
tp4366
Rp4367
sVbrazil
p4368
g2
(g6
S'$\x01\x00\x00'
p4369
tp4370
Rp4371
sVcourtesy
p4372
g2
(g6
S'\x10\x02\x00\x00'
p4373
tp4374
Rp4375
sVvisa
p4376
g2
(g6
S'\x19\t\x00\x00'
p4377
tp4378
Rp4379
sVdevice
p4380
g2
(g6
S'l\x02\x00\x00'
p4381
tp4382
Rp4383
sVpayment
p4384
g2
(g6
S'\x15\x06\x00\x00'
p4385
tp4386
Rp4387
sVstranded
p4388
g2
(g6
S'\x08\x08\x00\x00'
p4389
tp4390
Rp4391
sVthanksgiving
p4392
g2
(g6
S'v\x08\x00\x00'
p4393
tp4394
Rp4395
sVface
p4396
g2
(g6
S'\x0e\x03\x00\x00'
p4397
tp4398
Rp4399
sVwounded
p4400
g2
(g6
S'\x82\t\x00\x00'
p4401
tp4402
Rp4403
sVskinny
p4404
g2
(g6
S'\xa8\x07\x00\x00'
p4405
tp4406
Rp4407
sVbring
p4408
g2
(g6
S'4\x01\x00\x00'
p4409
tp4410
Rp4411
sVkits
p4412
g2
(g6
S'\xb9\x04\x00\x00'
p4413
tp4414
Rp4415
sVknowledge
p4416
g2
(g6
S'\xbe\x04\x00\x00'
p4417
tp4418
Rp4419
sVpurchs
p4420
g2
(g6
S'\xa0\x06\x00\x00'
p4421
tp4422
Rp4423
sVriding
p4424
g2
(g6
S'\x12\x07\x00\x00'
p4425
tp4426
Rp4427
sVhope
p4428
g2
(g6
S'%\x04\x00\x00'
p4429
tp4430
Rp4431
sVjackpot
p4432
g2
(g6
S'\x84\x04\x00\x00'
p4433
tp4434
Rp4435
sVhandle
p4436
g2
(g6
S'\xd5\x03\x00\x00'
p4437
tp4438
Rp4439
sVbeat
p4440
g2
(g6
S'\xed\x00\x00\x00'
p4441
tp4442
Rp4443
sVlucky
p4444
g2
(g6
S'\x1c\x05\x00\x00'
p4445
tp4446
Rp4447
sVbear
p4448
g2
(g6
S'\xeb\x00\x00\x00'
p4449
tp4450
Rp4451
sVnostam
p4452
g2
(g6
S'\xb7\x05\x00\x00'
p4453
tp4454
Rp4455
sVteams
p4456
g2
(g6
S'`\x08\x00\x00'
p4457
tp4458
Rp4459
sVstuff
p4460
g2
(g6
S'\x16\x08\x00\x00'
p4461
tp4462
Rp4463
sVussernms
p4464
g2
(g6
S'\x01\t\x00\x00'
p4465
tp4466
Rp4467
sVmascara
p4468
g2
(g6
S'6\x05\x00\x00'
p4469
tp4470
Rp4471
sV24hrs
p4472
g2
(g6
S'(\x00\x00\x00'
p4473
tp4474
Rp4475
sVnational
p4476
g2
(g6
S'\x99\x05\x00\x00'
p4477
tp4478
Rp4479
sVedition
p4480
g2
(g6
S'\xca\x02\x00\x00'
p4481
tp4482
Rp4483
sVintensity
p4484
g2
(g6
S'f\x04\x00\x00'
p4485
tp4486
Rp4487
sVwire
p4488
g2
(g6
S'c\t\x00\x00'
p4489
tp4490
Rp4491
sVsuperhero
p4492
g2
(g6
S'%\x08\x00\x00'
p4493
tp4494
Rp4495
sVpattern
p4496
g2
(g6
S'\x12\x06\x00\x00'
p4497
tp4498
Rp4499
sVralph
p4500
g2
(g6
S'\xb9\x06\x00\x00'
p4501
tp4502
Rp4503
sVdiscounts
p4504
g2
(g6
S'\x82\x02\x00\x00'
p4505
tp4506
Rp4507
sVroutine
p4508
g2
(g6
S')\x07\x00\x00'
p4509
tp4510
Rp4511
sVyoull
p4512
g2
(g6
S'\x94\t\x00\x00'
p4513
tp4514
Rp4515
sVemail
p4516
g2
(g6
S'\xcf\x02\x00\x00'
p4517
tp4518
Rp4519
sVends
p4520
g2
(g6
S'\xdb\x02\x00\x00'
p4521
tp4522
Rp4523
sVdeliver
p4524
g2
(g6
S'X\x02\x00\x00'
p4525
tp4526
Rp4527
sVlb
p4528
g2
(g6
S'\xd9\x04\x00\x00'
p4529
tp4530
Rp4531
sVlegit
p4532
g2
(g6
S'\xe4\x04\x00\x00'
p4533
tp4534
Rp4535
sVdrum
p4536
g2
(g6
S'\xb4\x02\x00\x00'
p4537
tp4538
Rp4539
sVmarathoners
p4540
g2
(g6
S'.\x05\x00\x00'
p4541
tp4542
Rp4543
sVconquered
p4544
g2
(g6
S'\xf3\x01\x00\x00'
p4545
tp4546
Rp4547
sVinvites
p4548
g2
(g6
S'o\x04\x00\x00'
p4549
tp4550
Rp4551
sVglorious
p4552
g2
(g6
S'\xa2\x03\x00\x00'
p4553
tp4554
Rp4555
sVchest
p4556
g2
(g6
S'\x9e\x01\x00\x00'
p4557
tp4558
Rp4559
sVcc
p4560
g2
(g6
S'\x80\x01\x00\x00'
p4561
tp4562
Rp4563
sVdenim
p4564
g2
(g6
S'`\x02\x00\x00'
p4565
tp4566
Rp4567
sVnews
p4568
g2
(g6
S'\xa8\x05\x00\x00'
p4569
tp4570
Rp4571
sVct
p4572
g2
(g6
S'&\x02\x00\x00'
p4573
tp4574
Rp4575
sVpowered
p4576
g2
(g6
S'd\x06\x00\x00'
p4577
tp4578
Rp4579
sVhottest
p4580
g2
(g6
S'+\x04\x00\x00'
p4581
tp4582
Rp4583
sVimprove
p4584
g2
(g6
S'L\x04\x00\x00'
p4585
tp4586
Rp4587
sVlouisiana
p4588
g2
(g6
S'\x11\x05\x00\x00'
p4589
tp4590
Rp4591
sVbulk
p4592
g2
(g6
S'C\x01\x00\x00'
p4593
tp4594
Rp4595
sV2014
p4596
g2
(g6
S' \x00\x00\x00'
p4597
tp4598
Rp4599
sVatlanta
p4600
g2
(g6
S'\xbe\x00\x00\x00'
p4601
tp4602
Rp4603
sVtoasting
p4604
g2
(g6
S'\x9c\x08\x00\x00'
p4605
tp4606
Rp4607
sVspain
p4608
g2
(g6
S'\xd0\x07\x00\x00'
p4609
tp4610
Rp4611
sVland
p4612
g2
(g6
S'\xc9\x04\x00\x00'
p4613
tp4614
Rp4615
sVimagination
p4616
g2
(g6
S'D\x04\x00\x00'
p4617
tp4618
Rp4619
sVvalue
p4620
g2
(g6
S'\x05\t\x00\x00'
p4621
tp4622
Rp4623
sVve
p4624
g2
(g6
S'\x06\t\x00\x00'
p4625
tp4626
Rp4627
sVsite
p4628
g2
(g6
S'\xa1\x07\x00\x00'
p4629
tp4630
Rp4631
sVvs
p4632
g2
(g6
S'\x1e\t\x00\x00'
p4633
tp4634
Rp4635
sVarabic
p4636
g2
(g6
S'\xa7\x00\x00\x00'
p4637
tp4638
Rp4639
sVtattoo
p4640
g2
(g6
S'X\x08\x00\x00'
p4641
tp4642
Rp4643
sVandroid
p4644
g2
(g6
S'\x8d\x00\x00\x00'
p4645
tp4646
Rp4647
sVball
p4648
g2
(g6
S'\xde\x00\x00\x00'
p4649
tp4650
Rp4651
sVcolumbia
p4652
g2
(g6
S'\xdb\x01\x00\x00'
p4653
tp4654
Rp4655
sVdrink
p4656
g2
(g6
S'\xac\x02\x00\x00'
p4657
tp4658
Rp4659
sVios
p4660
g2
(g6
S'p\x04\x00\x00'
p4661
tp4662
Rp4663
sVyoga
p4664
g2
(g6
S'\x90\t\x00\x00'
p4665
tp4666
Rp4667
sVbroccoli
p4668
g2
(g6
S'9\x01\x00\x00'
p4669
tp4670
Rp4671
sVdiscounted
p4672
g2
(g6
S'\x81\x02\x00\x00'
p4673
tp4674
Rp4675
sVcenter
p4676
g2
(g6
S'\x85\x01\x00\x00'
p4677
tp4678
Rp4679
sVthought
p4680
g2
(g6
S'\x84\x08\x00\x00'
p4681
tp4682
Rp4683
sVlatest
p4684
g2
(g6
S'\xd2\x04\x00\x00'
p4685
tp4686
Rp4687
sVnewest
p4688
g2
(g6
S'\xa7\x05\x00\x00'
p4689
tp4690
Rp4691
sVlegendary
p4692
g2
(g6
S'\xe3\x04\x00\x00'
p4693
tp4694
Rp4695
sVmoments
p4696
g2
(g6
S't\x05\x00\x00'
p4697
tp4698
Rp4699
sVyogi
p4700
g2
(g6
S'\x91\t\x00\x00'
p4701
tp4702
Rp4703
sVhands
p4704
g2
(g6
S'\xd6\x03\x00\x00'
p4705
tp4706
Rp4707
sVwagner
p4708
g2
(g6
S' \t\x00\x00'
p4709
tp4710
Rp4711
sVrooms
p4712
g2
(g6
S'$\x07\x00\x00'
p4713
tp4714
Rp4715
sVdakota
p4716
g2
(g6
S'9\x02\x00\x00'
p4717
tp4718
Rp4719
sVweb
p4720
g2
(g6
S'B\t\x00\x00'
p4721
tp4722
Rp4723
sVlake
p4724
g2
(g6
S'\xc8\x04\x00\x00'
p4725
tp4726
Rp4727
sVadd
p4728
g2
(g6
S'`\x00\x00\x00'
p4729
tp4730
Rp4731
sVaruba
p4732
g2
(g6
S'\xb4\x00\x00\x00'
p4733
tp4734
Rp4735
sVsmart
p4736
g2
(g6
S'\xb5\x07\x00\x00'
p4737
tp4738
Rp4739
sVincreased
p4740
g2
(g6
S'R\x04\x00\x00'
p4741
tp4742
Rp4743
sVgovernment
p4744
g2
(g6
S'\xb3\x03\x00\x00'
p4745
tp4746
Rp4747
sVpassword
p4748
g2
(g6
S'\x0c\x06\x00\x00'
p4749
tp4750
Rp4751
sVlike
p4752
g2
(g6
S'\xef\x04\x00\x00'
p4753
tp4754
Rp4755
sVonion
p4756
g2
(g6
S'\xd5\x05\x00\x00'
p4757
tp4758
Rp4759
sVworks
p4760
g2
(g6
S'y\t\x00\x00'
p4761
tp4762
Rp4763
sVrequested
p4764
g2
(g6
S'\xef\x06\x00\x00'
p4765
tp4766
Rp4767
sVhair
p4768
g2
(g6
S'\xcf\x03\x00\x00'
p4769
tp4770
Rp4771
sVdaylight
p4772
g2
(g6
S'G\x02\x00\x00'
p4773
tp4774
Rp4775
sVchoosing
p4776
g2
(g6
S'\xae\x01\x00\x00'
p4777
tp4778
Rp4779
sVest
p4780
g2
(g6
S'\xed\x02\x00\x00'
p4781
tp4782
Rp4783
sVavoid
p4784
g2
(g6
S'\xcc\x00\x00\x00'
p4785
tp4786
Rp4787
sVhurricane
p4788
g2
(g6
S'8\x04\x00\x00'
p4789
tp4790
Rp4791
sVfedex
p4792
g2
(g6
S"'\x03\x00\x00"
p4793
tp4794
Rp4795
sVpeep
p4796
g2
(g6
S'\x1b\x06\x00\x00'
p4797
tp4798
Rp4799
sVhost
p4800
g2
(g6
S'&\x04\x00\x00'
p4801
tp4802
Rp4803
sVworthy
p4804
g2
(g6
S'\x7f\t\x00\x00'
p4805
tp4806
Rp4807
sVtrials
p4808
g2
(g6
S'\xc7\x08\x00\x00'
p4809
tp4810
Rp4811
sVgifts
p4812
g2
(g6
S'\x95\x03\x00\x00'
p4813
tp4814
Rp4815
sVsister
p4816
g2
(g6
S'\xa0\x07\x00\x00'
p4817
tp4818
Rp4819
sVangeles
p4820
g2
(g6
S'\x8e\x00\x00\x00'
p4821
tp4822
Rp4823
sVswimming
p4824
g2
(g6
S'8\x08\x00\x00'
p4825
tp4826
Rp4827
sVerrands
p4828
g2
(g6
S'\xe8\x02\x00\x00'
p4829
tp4830
Rp4831
sVsocks
p4832
g2
(g6
S'\xc3\x07\x00\x00'
p4833
tp4834
Rp4835
sVdoesnt
p4836
g2
(g6
S'\x95\x02\x00\x00'
p4837
tp4838
Rp4839
sVroads
p4840
g2
(g6
S'\x1b\x07\x00\x00'
p4841
tp4842
Rp4843
sV1985
p4844
g2
(g6
S'\x17\x00\x00\x00'
p4845
tp4846
Rp4847
sVridge
p4848
g2
(g6
S'\x11\x07\x00\x00'
p4849
tp4850
Rp4851
sVbiggest
p4852
g2
(g6
S'\x02\x01\x00\x00'
p4853
tp4854
Rp4855
sVbuy
p4856
g2
(g6
S'L\x01\x00\x00'
p4857
tp4858
Rp4859
sVbus
p4860
g2
(g6
S'G\x01\x00\x00'
p4861
tp4862
Rp4863
sVbrand
p4864
g2
(g6
S'"\x01\x00\x00'
p4865
tp4866
Rp4867
sVdelivery
p4868
g2
(g6
S'\\\x02\x00\x00'
p4869
tp4870
Rp4871
sVreminds
p4872
g2
(g6
S'\xe6\x06\x00\x00'
p4873
tp4874
Rp4875
sVdelivers
p4876
g2
(g6
S'[\x02\x00\x00'
p4877
tp4878
Rp4879
sVcount
p4880
g2
(g6
S'\x08\x02\x00\x00'
p4881
tp4882
Rp4883
sVdangerous
p4884
g2
(g6
S';\x02\x00\x00'
p4885
tp4886
Rp4887
sVofficial
p4888
g2
(g6
S'\xcd\x05\x00\x00'
p4889
tp4890
Rp4891
sVflip
p4892
g2
(g6
S'R\x03\x00\x00'
p4893
tp4894
Rp4895
sVexcitement
p4896
g2
(g6
S'\xfa\x02\x00\x00'
p4897
tp4898
Rp4899
sVmonument
p4900
g2
(g6
S'{\x05\x00\x00'
p4901
tp4902
Rp4903
sVproblem
p4904
g2
(g6
S'\x81\x06\x00\x00'
p4905
tp4906
Rp4907
sVminutes
p4908
g2
(g6
S'd\x05\x00\x00'
p4909
tp4910
Rp4911
sVirish
p4912
g2
(g6
S'u\x04\x00\x00'
p4913
tp4914
Rp4915
sVsirloin
p4916
g2
(g6
S'\x9f\x07\x00\x00'
p4917
tp4918
Rp4919
sVrecognize
p4920
g2
(g6
S'\xcf\x06\x00\x00'
p4921
tp4922
Rp4923
sVshooting
p4924
g2
(g6
S'\x90\x07\x00\x00'
p4925
tp4926
Rp4927
sVpit
p4928
g2
(g6
S'=\x06\x00\x00'
p4929
tp4930
Rp4931
sVdeeper
p4932
g2
(g6
S'S\x02\x00\x00'
p4933
tp4934
Rp4935
sV48
p4936
g2
(g6
S':\x00\x00\x00'
p4937
tp4938
Rp4939
sV49
p4940
g2
(g6
S';\x00\x00\x00'
p4941
tp4942
Rp4943
sVdressed
p4944
g2
(g6
S'\xab\x02\x00\x00'
p4945
tp4946
Rp4947
sVforests
p4948
g2
(g6
S'b\x03\x00\x00'
p4949
tp4950
Rp4951
sVvirtual
p4952
g2
(g6
S'\x16\t\x00\x00'
p4953
tp4954
Rp4955
sVlately
p4956
g2
(g6
S'\xd1\x04\x00\x00'
p4957
tp4958
Rp4959
sVspecial
p4960
g2
(g6
S'\xd4\x07\x00\x00'
p4961
tp4962
Rp4963
sVbehold
p4964
g2
(g6
S'\xf4\x00\x00\x00'
p4965
tp4966
Rp4967
sVfrancisco
p4968
g2
(g6
S'j\x03\x00\x00'
p4969
tp4970
Rp4971
sVmonday
p4972
g2
(g6
S'v\x05\x00\x00'
p4973
tp4974
Rp4975
sVbundle
p4976
g2
(g6
S'E\x01\x00\x00'
p4977
tp4978
Rp4979
sVchance
p4980
g2
(g6
S'\x8b\x01\x00\x00'
p4981
tp4982
Rp4983
sVoriginal
p4984
g2
(g6
S'\xe2\x05\x00\x00'
p4985
tp4986
Rp4987
sVstatus
p4988
g2
(g6
S'\xf4\x07\x00\x00'
p4989
tp4990
Rp4991
sV4k
p4992
g2
(g6
S'<\x00\x00\x00'
p4993
tp4994
Rp4995
sVlimited
p4996
g2
(g6
S'\xf2\x04\x00\x00'
p4997
tp4998
Rp4999
sVsaves
p5000
g2
(g6
S'H\x07\x00\x00'
p5001
tp5002
Rp5003
sVcatch
p5004
g2
(g6
S'x\x01\x00\x00'
p5005
tp5006
Rp5007
sVsleep
p5008
g2
(g6
S'\xae\x07\x00\x00'
p5009
tp5010
Rp5011
sVsaved
p5012
g2
(g6
S'G\x07\x00\x00'
p5013
tp5014
Rp5015
sVforget
p5016
g2
(g6
S'd\x03\x00\x00'
p5017
tp5018
Rp5019
sVparis
p5020
g2
(g6
S'\x04\x06\x00\x00'
p5021
tp5022
Rp5023
sVtweet
p5024
g2
(g6
S'\xde\x08\x00\x00'
p5025
tp5026
Rp5027
sVbike
p5028
g2
(g6
S'\x03\x01\x00\x00'
p5029
tp5030
Rp5031
sVpride
p5032
g2
(g6
S'w\x06\x00\x00'
p5033
tp5034
Rp5035
sVworth
p5036
g2
(g6
S'~\t\x00\x00'
p5037
tp5038
Rp5039
sVcarried
p5040
g2
(g6
S'n\x01\x00\x00'
p5041
tp5042
Rp5043
sVlack
p5044
g2
(g6
S'\xc4\x04\x00\x00'
p5045
tp5046
Rp5047
sVrisk
p5048
g2
(g6
S'\x17\x07\x00\x00'
p5049
tp5050
Rp5051
sVblanket
p5052
g2
(g6
S'\r\x01\x00\x00'
p5053
tp5054
Rp5055
sVrise
p5056
g2
(g6
S'\x16\x07\x00\x00'
p5057
tp5058
Rp5059
sVjack
p5060
g2
(g6
S'\x83\x04\x00\x00'
p5061
tp5062
Rp5063
sVchapel
p5064
g2
(g6
S'\x8e\x01\x00\x00'
p5065
tp5066
Rp5067
sVtickets
p5068
g2
(g6
S'\x8d\x08\x00\x00'
p5069
tp5070
Rp5071
sVschool
p5072
g2
(g6
S'T\x07\x00\x00'
p5073
tp5074
Rp5075
sVcause
p5076
g2
(g6
S'|\x01\x00\x00'
p5077
tp5078
Rp5079
sVhonor
p5080
g2
(g6
S'\x1f\x04\x00\x00'
p5081
tp5082
Rp5083
sVenjoy
p5084
g2
(g6
S'\xdd\x02\x00\x00'
p5085
tp5086
Rp5087
sVphones
p5088
g2
(g6
S'.\x06\x00\x00'
p5089
tp5090
Rp5091
sVpts
p5092
g2
(g6
S'\x95\x06\x00\x00'
p5093
tp5094
Rp5095
sVnear
p5096
g2
(g6
S'\x9b\x05\x00\x00'
p5097
tp5098
Rp5099
sVsupplies
p5100
g2
(g6
S"'\x08\x00\x00"
p5101
tp5102
Rp5103
sVmints
p5104
g2
(g6
S'a\x05\x00\x00'
p5105
tp5106
Rp5107
sVtold
p5108
g2
(g6
S'\x9f\x08\x00\x00'
p5109
tp5110
Rp5111
sVkicked
p5112
g2
(g6
S'\xac\x04\x00\x00'
p5113
tp5114
Rp5115
sVwrapping
p5116
g2
(g6
S'\x84\t\x00\x00'
p5117
tp5118
Rp5119
sVhundreds
p5120
g2
(g6
S'4\x04\x00\x00'
p5121
tp5122
Rp5123
sVpath
p5124
g2
(g6
S'\x10\x06\x00\x00'
p5125
tp5126
Rp5127
sVcelebration
p5128
g2
(g6
S'\x82\x01\x00\x00'
p5129
tp5130
Rp5131
sVdaughter
p5132
g2
(g6
S'C\x02\x00\x00'
p5133
tp5134
Rp5135
sVtx
p5136
g2
(g6
S'\xe3\x08\x00\x00'
p5137
tp5138
Rp5139
sVitems
p5140
g2
(g6
S'\x80\x04\x00\x00'
p5141
tp5142
Rp5143
sVstudy
p5144
g2
(g6
S'\x15\x08\x00\x00'
p5145
tp5146
Rp5147
sVakc
p5148
g2
(g6
S'{\x00\x00\x00'
p5149
tp5150
Rp5151
sVwalkie
p5152
g2
(g6
S'&\t\x00\x00'
p5153
tp5154
Rp5155
sVfigure
p5156
g2
(g6
S'9\x03\x00\x00'
p5157
tp5158
Rp5159
sVspooky
p5160
g2
(g6
S'\xdc\x07\x00\x00'
p5161
tp5162
Rp5163
sVjulie
p5164
g2
(g6
S'\x9b\x04\x00\x00'
p5165
tp5166
Rp5167
sVbro
p5168
g2
(g6
S'8\x01\x00\x00'
p5169
tp5170
Rp5171
sVpatience
p5172
g2
(g6
S'\x11\x06\x00\x00'
p5173
tp5174
Rp5175
sVgeico
p5176
g2
(g6
S'\x87\x03\x00\x00'
p5177
tp5178
Rp5179
sVsweater
p5180
g2
(g6
S'3\x08\x00\x00'
p5181
tp5182
Rp5183
sVplayed
p5184
g2
(g6
S'M\x06\x00\x00'
p5185
tp5186
Rp5187
sVnegative
p5188
g2
(g6
S'\xa1\x05\x00\x00'
p5189
tp5190
Rp5191
sVprogram
p5192
g2
(g6
S'\x88\x06\x00\x00'
p5193
tp5194
Rp5195
sVaward
p5196
g2
(g6
S'\xce\x00\x00\x00'
p5197
tp5198
Rp5199
sVaware
p5200
g2
(g6
S'\xd0\x00\x00\x00'
p5201
tp5202
Rp5203
sVphone
p5204
g2
(g6
S'-\x06\x00\x00'
p5205
tp5206
Rp5207
sVjoin
p5208
g2
(g6
S'\x94\x04\x00\x00'
p5209
tp5210
Rp5211
sVhomepage
p5212
g2
(g6
S'\x1e\x04\x00\x00'
p5213
tp5214
Rp5215
sVwork
p5216
g2
(g6
S'u\t\x00\x00'
p5217
tp5218
Rp5219
sVmt
p5220
g2
(g6
S'\x8a\x05\x00\x00'
p5221
tp5222
Rp5223
sVtinder
p5224
g2
(g6
S'\x93\x08\x00\x00'
p5225
tp5226
Rp5227
sVtnc
p5228
g2
(g6
S'\x9a\x08\x00\x00'
p5229
tp5230
Rp5231
sVindia
p5232
g2
(g6
S'S\x04\x00\x00'
p5233
tp5234
Rp5235
sVend
p5236
g2
(g6
S'\xd7\x02\x00\x00'
p5237
tp5238
Rp5239
sVrecovery
p5240
g2
(g6
S'\xd3\x06\x00\x00'
p5241
tp5242
Rp5243
sVmacys
p5244
g2
(g6
S'!\x05\x00\x00'
p5245
tp5246
Rp5247
sVdisappear
p5248
g2
(g6
S'~\x02\x00\x00'
p5249
tp5250
Rp5251
sVfudge
p5252
g2
(g6
S'w\x03\x00\x00'
p5253
tp5254
Rp5255
sVcharging
p5256
g2
(g6
S'\x92\x01\x00\x00'
p5257
tp5258
Rp5259
sVpizza
p5260
g2
(g6
S'@\x06\x00\x00'
p5261
tp5262
Rp5263
sVearlier
p5264
g2
(g6
S'\xbb\x02\x00\x00'
p5265
tp5266
Rp5267
sVjcpenney
p5268
g2
(g6
S'\x88\x04\x00\x00'
p5269
tp5270
Rp5271
sVappreciate
p5272
g2
(g6
S'\xa3\x00\x00\x00'
p5273
tp5274
Rp5275
sVgreen
p5276
g2
(g6
S'\xbe\x03\x00\x00'
p5277
tp5278
Rp5279
sVenter
p5280
g2
(g6
S'\xe2\x02\x00\x00'
p5281
tp5282
Rp5283
sVfan
p5284
g2
(g6
S'\x17\x03\x00\x00'
p5285
tp5286
Rp5287
sVorder
p5288
g2
(g6
S'\xdd\x05\x00\x00'
p5289
tp5290
Rp5291
sVoffice
p5292
g2
(g6
S'\xcc\x05\x00\x00'
p5293
tp5294
Rp5295
sVlondon
p5296
g2
(g6
S'\x04\x05\x00\x00'
p5297
tp5298
Rp5299
sVoven
p5300
g2
(g6
S'\xe8\x05\x00\x00'
p5301
tp5302
Rp5303
sVjapan
p5304
g2
(g6
S'\x87\x04\x00\x00'
p5305
tp5306
Rp5307
sVdifference
p5308
g2
(g6
S's\x02\x00\x00'
p5309
tp5310
Rp5311
sVavocado
p5312
g2
(g6
S'\xca\x00\x00\x00'
p5313
tp5314
Rp5315
sVexpectations
p5316
g2
(g6
S'\x02\x03\x00\x00'
p5317
tp5318
Rp5319
sVwriting
p5320
g2
(g6
S'\x86\t\x00\x00'
p5321
tp5322
Rp5323
sVeugene
p5324
g2
(g6
S'\xf1\x02\x00\x00'
p5325
tp5326
Rp5327
sVcoffee
p5328
g2
(g6
S'\xd2\x01\x00\x00'
p5329
tp5330
Rp5331
sVaffected
p5332
g2
(g6
S'n\x00\x00\x00'
p5333
tp5334
Rp5335
sVsafe
p5336
g2
(g6
S'3\x07\x00\x00'
p5337
tp5338
Rp5339
sVbreak
p5340
g2
(g6
S'%\x01\x00\x00'
p5341
tp5342
Rp5343
sVband
p5344
g2
(g6
S'\xdf\x00\x00\x00'
p5345
tp5346
Rp5347
sVwednesdays
p5348
g2
(g6
S'G\t\x00\x00'
p5349
tp5350
Rp5351
sVbank
p5352
g2
(g6
S'\xe0\x00\x00\x00'
p5353
tp5354
Rp5355
sValex
p5356
g2
(g6
S'\x81\x00\x00\x00'
p5357
tp5358
Rp5359
sVnotified
p5360
g2
(g6
S'\xba\x05\x00\x00'
p5361
tp5362
Rp5363
sVdetroit
p5364
g2
(g6
S'j\x02\x00\x00'
p5365
tp5366
Rp5367
sVvictory
p5368
g2
(g6
S'\x0b\t\x00\x00'
p5369
tp5370
Rp5371
sVfitness
p5372
g2
(g6
S'F\x03\x00\x00'
p5373
tp5374
Rp5375
sVcashmere
p5376
g2
(g6
S'r\x01\x00\x00'
p5377
tp5378
Rp5379
sVeuropean
p5380
g2
(g6
S'\xf2\x02\x00\x00'
p5381
tp5382
Rp5383
sVlasting
p5384
g2
(g6
S'\xcf\x04\x00\x00'
p5385
tp5386
Rp5387
sVespaa
p5388
g2
(g6
S'\xea\x02\x00\x00'
p5389
tp5390
Rp5391
sVsears
p5392
g2
(g6
S'a\x07\x00\x00'
p5393
tp5394
Rp5395
sVlogo
p5396
g2
(g6
S'\x03\x05\x00\x00'
p5397
tp5398
Rp5399
sVsaturday
p5400
g2
(g6
S'D\x07\x00\x00'
p5401
tp5402
Rp5403
sVnetwork
p5404
g2
(g6
S'\xa5\x05\x00\x00'
p5405
tp5406
Rp5407
sVdriving
p5408
g2
(g6
S'\xb2\x02\x00\x00'
p5409
tp5410
Rp5411
sVforts
p5412
g2
(g6
S'f\x03\x00\x00'
p5413
tp5414
Rp5415
sVcameras
p5416
g2
(g6
S'\\\x01\x00\x00'
p5417
tp5418
Rp5419
sVstrangers
p5420
g2
(g6
S'\t\x08\x00\x00'
p5421
tp5422
Rp5423
sVlaid
p5424
g2
(g6
S'\xc7\x04\x00\x00'
p5425
tp5426
Rp5427
sVdaniel
p5428
g2
(g6
S'<\x02\x00\x00'
p5429
tp5430
Rp5431
sVgot
p5432
g2
(g6
S'\xb1\x03\x00\x00'
p5433
tp5434
Rp5435
sVgop
p5436
g2
(g6
S'\xb0\x03\x00\x00'
p5437
tp5438
Rp5439
sVhang
p5440
g2
(g6
S'\xd7\x03\x00\x00'
p5441
tp5442
Rp5443
sVfree
p5444
g2
(g6
S'l\x03\x00\x00'
p5445
tp5446
Rp5447
sVstandard
p5448
g2
(g6
S'\xe6\x07\x00\x00'
p5449
tp5450
Rp5451
sVwithcnctd
p5452
g2
(g6
S'g\t\x00\x00'
p5453
tp5454
Rp5455
sVwanted
p5456
g2
(g6
S',\t\x00\x00'
p5457
tp5458
Rp5459
sVrepeat
p5460
g2
(g6
S'\xeb\x06\x00\x00'
p5461
tp5462
Rp5463
sVcreated
p5464
g2
(g6
S'\x18\x02\x00\x00'
p5465
tp5466
Rp5467
sVdays
p5468
g2
(g6
S'H\x02\x00\x00'
p5469
tp5470
Rp5471
sVlocal
p5472
g2
(g6
S'\xff\x04\x00\x00'
p5473
tp5474
Rp5475
sVdelicious
p5476
g2
(g6
S'V\x02\x00\x00'
p5477
tp5478
Rp5479
sVtoy
p5480
g2
(g6
S'\xb0\x08\x00\x00'
p5481
tp5482
Rp5483
sVlikely
p5484
g2
(g6
S'\xf0\x04\x00\x00'
p5485
tp5486
Rp5487
sVfiction
p5488
g2
(g6
S'4\x03\x00\x00'
p5489
tp5490
Rp5491
sVthoughts
p5492
g2
(g6
S'\x86\x08\x00\x00'
p5493
tp5494
Rp5495
sVtom
p5496
g2
(g6
S'\xa0\x08\x00\x00'
p5497
tp5498
Rp5499
sVjohn
p5500
g2
(g6
S'\x93\x04\x00\x00'
p5501
tp5502
Rp5503
sVserve
p5504
g2
(g6
S'x\x07\x00\x00'
p5505
tp5506
Rp5507
sVtook
p5508
g2
(g6
S'\xa4\x08\x00\x00'
p5509
tp5510
Rp5511
sVwestern
p5512
g2
(g6
S'P\t\x00\x00'
p5513
tp5514
Rp5515
sVtarget
p5516
g2
(g6
S'S\x08\x00\x00'
p5517
tp5518
Rp5519
sVthx
p5520
g2
(g6
S'\x8a\x08\x00\x00'
p5521
tp5522
Rp5523
sVfinal
p5524
g2
(g6
S'<\x03\x00\x00'
p5525
tp5526
Rp5527
sViron
p5528
g2
(g6
S'v\x04\x00\x00'
p5529
tp5530
Rp5531
sVpowers
p5532
g2
(g6
S'f\x06\x00\x00'
p5533
tp5534
Rp5535
sVminus
p5536
g2
(g6
S'b\x05\x00\x00'
p5537
tp5538
Rp5539
sVbridge
p5540
g2
(g6
S'0\x01\x00\x00'
p5541
tp5542
Rp5543
sVlbs
p5544
g2
(g6
S'\xda\x04\x00\x00'
p5545
tp5546
Rp5547
sVfashion
p5548
g2
(g6
S'\x1b\x03\x00\x00'
p5549
tp5550
Rp5551
sVpass
p5552
g2
(g6
S'\n\x06\x00\x00'
p5553
tp5554
Rp5555
sVflavorful
p5556
g2
(g6
S'L\x03\x00\x00'
p5557
tp5558
Rp5559
sVreturn
p5560
g2
(g6
S'\x04\x07\x00\x00'
p5561
tp5562
Rp5563
sVray
p5564
g2
(g6
S'\xbe\x06\x00\x00'
p5565
tp5566
Rp5567
sVforced
p5568
g2
(g6
S'`\x03\x00\x00'
p5569
tp5570
Rp5571
sV1969
p5572
g2
(g6
S'\x15\x00\x00\x00'
p5573
tp5574
Rp5575
sVsnow
p5576
g2
(g6
S'\xc0\x07\x00\x00'
p5577
tp5578
Rp5579
sVluxury
p5580
g2
(g6
S'\x1f\x05\x00\x00'
p5581
tp5582
Rp5583
sVgravy
p5584
g2
(g6
S'\xba\x03\x00\x00'
p5585
tp5586
Rp5587
sVplenti
p5588
g2
(g6
S'P\x06\x00\x00'
p5589
tp5590
Rp5591
sVcheeses
p5592
g2
(g6
S'\x9c\x01\x00\x00'
p5593
tp5594
Rp5595
sVbruce
p5596
g2
(g6
S'=\x01\x00\x00'
p5597
tp5598
Rp5599
sVplenty
p5600
g2
(g6
S'Q\x06\x00\x00'
p5601
tp5602
Rp5603
sValabama
p5604
g2
(g6
S'|\x00\x00\x00'
p5605
tp5606
Rp5607
sVtreats
p5608
g2
(g6
S'\xc0\x08\x00\x00'
p5609
tp5610
Rp5611
sValumni
p5612
g2
(g6
S'\x83\x00\x00\x00'
p5613
tp5614
Rp5615
sVaunt
p5616
g2
(g6
S'\xc3\x00\x00\x00'
p5617
tp5618
Rp5619
sVregistrants
p5620
g2
(g6
S'\xdc\x06\x00\x00'
p5621
tp5622
Rp5623
sVpope
p5624
g2
(g6
S'\\\x06\x00\x00'
p5625
tp5626
Rp5627
sVsage
p5628
g2
(g6
S'5\x07\x00\x00'
p5629
tp5630
Rp5631
sVearth
p5632
g2
(g6
S'\xc0\x02\x00\x00'
p5633
tp5634
Rp5635
sVenjoyed
p5636
g2
(g6
S'\xde\x02\x00\x00'
p5637
tp5638
Rp5639
sVtoast
p5640
g2
(g6
S'\x9b\x08\x00\x00'
p5641
tp5642
Rp5643
sVhaven
p5644
g2
(g6
S'\xe2\x03\x00\x00'
p5645
tp5646
Rp5647
sVchipotle
p5648
g2
(g6
S'\xa9\x01\x00\x00'
p5649
tp5650
Rp5651
sVdm
p5652
g2
(g6
S'\x8e\x02\x00\x00'
p5653
tp5654
Rp5655
sVwatch
p5656
g2
(g6
S'7\t\x00\x00'
p5657
tp5658
Rp5659
sVamazon
p5660
g2
(g6
S'\x86\x00\x00\x00'
p5661
tp5662
Rp5663
sVwedding
p5664
g2
(g6
S'E\t\x00\x00'
p5665
tp5666
Rp5667
sVreport
p5668
g2
(g6
S'\xee\x06\x00\x00'
p5669
tp5670
Rp5671
sVnowurrl
p5672
g2
(g6
S'\xbd\x05\x00\x00'
p5673
tp5674
Rp5675
sVruns
p5676
g2
(g6
S'1\x07\x00\x00'
p5677
tp5678
Rp5679
sVcountries
p5680
g2
(g6
S'\t\x02\x00\x00'
p5681
tp5682
Rp5683
sVtwice
p5684
g2
(g6
S'\xe1\x08\x00\x00'
p5685
tp5686
Rp5687
sVkauai
p5688
g2
(g6
S'\xa3\x04\x00\x00'
p5689
tp5690
Rp5691
sVshophhttg
p5692
g2
(g6
S'\x92\x07\x00\x00'
p5693
tp5694
Rp5695
sVskymiles
p5696
g2
(g6
S'\xac\x07\x00\x00'
p5697
tp5698
Rp5699
sVthanks
p5700
g2
(g6
S'u\x08\x00\x00'
p5701
tp5702
Rp5703
sVaway
p5704
g2
(g6
S'\xd1\x00\x00\x00'
p5705
tp5706
Rp5707
sVterms
p5708
g2
(g6
S'k\x08\x00\x00'
p5709
tp5710
Rp5711
sVwi
p5712
g2
(g6
S'X\t\x00\x00'
p5713
tp5714
Rp5715
sVboss
p5716
g2
(g6
S'\x1b\x01\x00\x00'
p5717
tp5718
Rp5719
sVwear
p5720
g2
(g6
S'>\t\x00\x00'
p5721
tp5722
Rp5723
sVpackages
p5724
g2
(g6
S'\xf2\x05\x00\x00'
p5725
tp5726
Rp5727
sVkitchen
p5728
g2
(g6
S'\xb8\x04\x00\x00'
p5729
tp5730
Rp5731
sVclimate
p5732
g2
(g6
S'\xbc\x01\x00\x00'
p5733
tp5734
Rp5735
sVsparkling
p5736
g2
(g6
S'\xd2\x07\x00\x00'
p5737
tp5738
Rp5739
sVparticipating
p5740
g2
(g6
S'\x07\x06\x00\x00'
p5741
tp5742
Rp5743
sVgames
p5744
g2
(g6
S'\x80\x03\x00\x00'
p5745
tp5746
Rp5747
sVcom
p5748
g2
(g6
S'\xdc\x01\x00\x00'
p5749
tp5750
Rp5751
sVtough
p5752
g2
(g6
S'\xab\x08\x00\x00'
p5753
tp5754
Rp5755
sVviruses
p5756
g2
(g6
S'\x18\t\x00\x00'
p5757
tp5758
Rp5759
sVtrust
p5760
g2
(g6
S'\xd0\x08\x00\x00'
p5761
tp5762
Rp5763
sVspeak
p5764
g2
(g6
S'\xd3\x07\x00\x00'
p5765
tp5766
Rp5767
sVbelize
p5768
g2
(g6
S'\xf6\x00\x00\x00'
p5769
tp5770
Rp5771
sVbinge
p5772
g2
(g6
S'\x05\x01\x00\x00'
p5773
tp5774
Rp5775
sVdomino
p5776
g2
(g6
S'\x98\x02\x00\x00'
p5777
tp5778
Rp5779
sVquickly
p5780
g2
(g6
S'\xb0\x06\x00\x00'
p5781
tp5782
Rp5783
sVbeer
p5784
g2
(g6
S'\xf2\x00\x00\x00'
p5785
tp5786
Rp5787
sVexpected
p5788
g2
(g6
S'\x03\x03\x00\x00'
p5789
tp5790
Rp5791
sVfamilies
p5792
g2
(g6
S'\x15\x03\x00\x00'
p5793
tp5794
Rp5795
sVsearch
p5796
g2
(g6
S'`\x07\x00\x00'
p5797
tp5798
Rp5799
sVsmartwatch
p5800
g2
(g6
S'\xb7\x07\x00\x00'
p5801
tp5802
Rp5803
sVseville
p5804
g2
(g6
S'\x80\x07\x00\x00'
p5805
tp5806
Rp5807
sVsave
p5808
g2
(g6
S'F\x07\x00\x00'
p5809
tp5810
Rp5811
sVlaunches
p5812
g2
(g6
S'\xd5\x04\x00\x00'
p5813
tp5814
Rp5815
sVair
p5816
g2
(g6
S'y\x00\x00\x00'
p5817
tp5818
Rp5819
sVteachers
p5820
g2
(g6
S'^\x08\x00\x00'
p5821
tp5822
Rp5823
sVvoice
p5824
g2
(g6
S'\x1b\t\x00\x00'
p5825
tp5826
Rp5827
sVlaunched
p5828
g2
(g6
S'\xd4\x04\x00\x00'
p5829
tp5830
Rp5831
sVaccessories
p5832
g2
(g6
S'P\x00\x00\x00'
p5833
tp5834
Rp5835
sVcone
p5836
g2
(g6
S'\xee\x01\x00\x00'
p5837
tp5838
Rp5839
sVnike
p5840
g2
(g6
S'\xac\x05\x00\x00'
p5841
tp5842
Rp5843
sVarent
p5844
g2
(g6
S'\xab\x00\x00\x00'
p5845
tp5846
Rp5847
sVwheel
p5848
g2
(g6
S'S\t\x00\x00'
p5849
tp5850
Rp5851
sVpick
p5852
g2
(g6
S'3\x06\x00\x00'
p5853
tp5854
Rp5855
sVhand
p5856
g2
(g6
S'\xd3\x03\x00\x00'
p5857
tp5858
Rp5859
sVcycle
p5860
g2
(g6
S'5\x02\x00\x00'
p5861
tp5862
Rp5863
sVdishes
p5864
g2
(g6
S'\x86\x02\x00\x00'
p5865
tp5866
Rp5867
sVthy
p5868
g2
(g6
S'\x8b\x08\x00\x00'
p5869
tp5870
Rp5871
sV1978
p5872
g2
(g6
S'\x16\x00\x00\x00'
p5873
tp5874
Rp5875
sVcongrats
p5876
g2
(g6
S'\xef\x01\x00\x00'
p5877
tp5878
Rp5879
sVsavings
p5880
g2
(g6
S'J\x07\x00\x00'
p5881
tp5882
Rp5883
sVdads
p5884
g2
(g6
S'7\x02\x00\x00'
p5885
tp5886
Rp5887
sVsnowman
p5888
g2
(g6
S'\xc1\x07\x00\x00'
p5889
tp5890
Rp5891
sVphoto
p5892
g2
(g6
S'/\x06\x00\x00'
p5893
tp5894
Rp5895
sVlaptop
p5896
g2
(g6
S'\xcd\x04\x00\x00'
p5897
tp5898
Rp5899
sVsmoothies
p5900
g2
(g6
S'\xba\x07\x00\x00'
p5901
tp5902
Rp5903
sVglitches
p5904
g2
(g6
S'\x9f\x03\x00\x00'
p5905
tp5906
Rp5907
sVmix
p5908
g2
(g6
S'k\x05\x00\x00'
p5909
tp5910
Rp5911
sVfurry
p5912
g2
(g6
S'{\x03\x00\x00'
p5913
tp5914
Rp5915
sVspread
p5916
g2
(g6
S'\xe0\x07\x00\x00'
p5917
tp5918
Rp5919
sVgave
p5920
g2
(g6
S'\x84\x03\x00\x00'
p5921
tp5922
Rp5923
sVgifs
p5924
g2
(g6
S'\x91\x03\x00\x00'
p5925
tp5926
Rp5927
sVbreaks
p5928
g2
(g6
S'(\x01\x00\x00'
p5929
tp5930
Rp5931
sVlooks
p5932
g2
(g6
S'\x0b\x05\x00\x00'
p5933
tp5934
Rp5935
sVboxes
p5936
g2
(g6
S'\x1e\x01\x00\x00'
p5937
tp5938
Rp5939
sVjudge
p5940
g2
(g6
S'\x9a\x04\x00\x00'
p5941
tp5942
Rp5943
sVcape
p5944
g2
(g6
S'`\x01\x00\x00'
p5945
tp5946
Rp5947
sVadvanced
p5948
g2
(g6
S'i\x00\x00\x00'
p5949
tp5950
Rp5951
sVapart
p5952
g2
(g6
S'\x98\x00\x00\x00'
p5953
tp5954
Rp5955
sVtrivia
p5956
g2
(g6
S'\xca\x08\x00\x00'
p5957
tp5958
Rp5959
sVgift
p5960
g2
(g6
S'\x92\x03\x00\x00'
p5961
tp5962
Rp5963
sV55
p5964
g2
(g6
S'A\x00\x00\x00'
p5965
tp5966
Rp5967
sVhunt
p5968
g2
(g6
S'6\x04\x00\x00'
p5969
tp5970
Rp5971
sV50
p5972
g2
(g6
S'>\x00\x00\x00'
p5973
tp5974
Rp5975
sV52
p5976
g2
(g6
S'@\x00\x00\x00'
p5977
tp5978
Rp5979
sVspecific
p5980
g2
(g6
S'\xd5\x07\x00\x00'
p5981
tp5982
Rp5983
sVmosquito
p5984
g2
(g6
S'\x80\x05\x00\x00'
p5985
tp5986
Rp5987
sVnight
p5988
g2
(g6
S'\xab\x05\x00\x00'
p5989
tp5990
Rp5991
sVsecurity
p5992
g2
(g6
S'k\x07\x00\x00'
p5993
tp5994
Rp5995
sVhonored
p5996
g2
(g6
S' \x04\x00\x00'
p5997
tp5998
Rp5999
sVsends
p6000
g2
(g6
S's\x07\x00\x00'
p6001
tp6002
Rp6003
sVdonald
p6004
g2
(g6
S'\x9a\x02\x00\x00'
p6005
tp6006
Rp6007
sVescape
p6008
g2
(g6
S'\xe9\x02\x00\x00'
p6009
tp6010
Rp6011
sVtheyre
p6012
g2
(g6
S'~\x08\x00\x00'
p6013
tp6014
Rp6015
sVwithussernm
p6016
g2
(g6
S'k\t\x00\x00'
p6017
tp6018
Rp6019
sVpurple
p6020
g2
(g6
S'\xa1\x06\x00\x00'
p6021
tp6022
Rp6023
sVice
p6024
g2
(g6
S'=\x04\x00\x00'
p6025
tp6026
Rp6027
sVasking
p6028
g2
(g6
S'\xb7\x00\x00\x00'
p6029
tp6030
Rp6031
sVadorable
p6032
g2
(g6
S'f\x00\x00\x00'
p6033
tp6034
Rp6035
sVchristmas
p6036
g2
(g6
S'\xb2\x01\x00\x00'
p6037
tp6038
Rp6039
sVcord
p6040
g2
(g6
S'\x00\x02\x00\x00'
p6041
tp6042
Rp6043
sVpeek
p6044
g2
(g6
S'\x19\x06\x00\x00'
p6045
tp6046
Rp6047
sVpls
p6048
g2
(g6
S'R\x06\x00\x00'
p6049
tp6050
Rp6051
sVdiscount
p6052
g2
(g6
S'\x80\x02\x00\x00'
p6053
tp6054
Rp6055
sVeye
p6056
g2
(g6
S'\x0b\x03\x00\x00'
p6057
tp6058
Rp6059
sVpost
p6060
g2
(g6
S'^\x06\x00\x00'
p6061
tp6062
Rp6063
sVmonths
p6064
g2
(g6
S'z\x05\x00\x00'
p6065
tp6066
Rp6067
sVdinner
p6068
g2
(g6
S'z\x02\x00\x00'
p6069
tp6070
Rp6071
sVensure
p6072
g2
(g6
S'\xe1\x02\x00\x00'
p6073
tp6074
Rp6075
sVsept
p6076
g2
(g6
S't\x07\x00\x00'
p6077
tp6078
Rp6079
sVthermostat
p6080
g2
(g6
S'{\x08\x00\x00'
p6081
tp6082
Rp6083
sVwasting
p6084
g2
(g6
S'6\t\x00\x00'
p6085
tp6086
Rp6087
sVpuzzle
p6088
g2
(g6
S'\xa4\x06\x00\x00'
p6089
tp6090
Rp6091
sVditto
p6092
g2
(g6
S'\x8b\x02\x00\x00'
p6093
tp6094
Rp6095
sVhandbag
p6096
g2
(g6
S'\xd4\x03\x00\x00'
p6097
tp6098
Rp6099
sVfight
p6100
g2
(g6
S'7\x03\x00\x00'
p6101
tp6102
Rp6103
sVgif
p6104
g2
(g6
S'\x90\x03\x00\x00'
p6105
tp6106
Rp6107
sVway
p6108
g2
(g6
S'<\t\x00\x00'
p6109
tp6110
Rp6111
sVwax
p6112
g2
(g6
S';\t\x00\x00'
p6113
tp6114
Rp6115
sVwar
p6116
g2
(g6
S'.\t\x00\x00'
p6117
tp6118
Rp6119
sVhead
p6120
g2
(g6
S'\xe9\x03\x00\x00'
p6121
tp6122
Rp6123
sVhangover
p6124
g2
(g6
S'\xd8\x03\x00\x00'
p6125
tp6126
Rp6127
sVcrown
p6128
g2
(g6
S'"\x02\x00\x00'
p6129
tp6130
Rp6131
sVremoves
p6132
g2
(g6
S'\xea\x06\x00\x00'
p6133
tp6134
Rp6135
sVwireless
p6136
g2
(g6
S'd\t\x00\x00'
p6137
tp6138
Rp6139
sVheat
p6140
g2
(g6
S'\xf5\x03\x00\x00'
p6141
tp6142
Rp6143
sVhear
p6144
g2
(g6
S'\xf0\x03\x00\x00'
p6145
tp6146
Rp6147
sVelderly
p6148
g2
(g6
S'\xcb\x02\x00\x00'
p6149
tp6150
Rp6151
sVsolar
p6152
g2
(g6
S'\xc4\x07\x00\x00'
p6153
tp6154
Rp6155
sVtrue
p6156
g2
(g6
S'\xce\x08\x00\x00'
p6157
tp6158
Rp6159
sVreset
p6160
g2
(g6
S'\xf4\x06\x00\x00'
p6161
tp6162
Rp6163
sVhhttgurrl
p6164
g2
(g6
S'\x08\x04\x00\x00'
p6165
tp6166
Rp6167
sVunboxing
p6168
g2
(g6
S'\xe7\x08\x00\x00'
p6169
tp6170
Rp6171
sVgapfit
p6172
g2
(g6
S'\x82\x03\x00\x00'
p6173
tp6174
Rp6175
sVpromises
p6176
g2
(g6
S'\x8b\x06\x00\x00'
p6177
tp6178
Rp6179
sVguesses
p6180
g2
(g6
S'\xc8\x03\x00\x00'
p6181
tp6182
Rp6183
sVflat
p6184
g2
(g6
S'K\x03\x00\x00'
p6185
tp6186
Rp6187
sVhhttg
p6188
g2
(g6
S'\x03\x04\x00\x00'
p6189
tp6190
Rp6191
sVevidence
p6192
g2
(g6
S'\xf7\x02\x00\x00'
p6193
tp6194
Rp6195
sVguessed
p6196
g2
(g6
S'\xc7\x03\x00\x00'
p6197
tp6198
Rp6199
sVannoying
p6200
g2
(g6
S'\x92\x00\x00\x00'
p6201
tp6202
Rp6203
sVcheck
p6204
g2
(g6
S'\x97\x01\x00\x00'
p6205
tp6206
Rp6207
sVtix
p6208
g2
(g6
S'\x98\x08\x00\x00'
p6209
tp6210
Rp6211
sVtechs
p6212
g2
(g6
S'c\x08\x00\x00'
p6213
tp6214
Rp6215
sVna
p6216
g2
(g6
S'\x92\x05\x00\x00'
p6217
tp6218
Rp6219
sVtip
p6220
g2
(g6
S'\x94\x08\x00\x00'
p6221
tp6222
Rp6223
sVtis
p6224
g2
(g6
S'\x97\x08\x00\x00'
p6225
tp6226
Rp6227
sVtil
p6228
g2
(g6
S'\x8f\x08\x00\x00'
p6229
tp6230
Rp6231
sVny
p6232
g2
(g6
S'\xc1\x05\x00\x00'
p6233
tp6234
Rp6235
sVholding
p6236
g2
(g6
S'\x16\x04\x00\x00'
p6237
tp6238
Rp6239
sVtest
p6240
g2
(g6
S'n\x08\x00\x00'
p6241
tp6242
Rp6243
sVrealize
p6244
g2
(g6
S'\xc8\x06\x00\x00'
p6245
tp6246
Rp6247
sVpicture
p6248
g2
(g6
S'7\x06\x00\x00'
p6249
tp6250
Rp6251
sVwelcome
p6252
g2
(g6
S'N\t\x00\x00'
p6253
tp6254
Rp6255
sVupdate
p6256
g2
(g6
S'\xf4\x08\x00\x00'
p6257
tp6258
Rp6259
sVlonger
p6260
g2
(g6
S'\x06\x05\x00\x00'
p6261
tp6262
Rp6263
sVloyal
p6264
g2
(g6
S'\x19\x05\x00\x00'
p6265
tp6266
Rp6267
sVneighbors
p6268
g2
(g6
S'\xa3\x05\x00\x00'
p6269
tp6270
Rp6271
sVcoach
p6272
g2
(g6
S'\xcd\x01\x00\x00'
p6273
tp6274
Rp6275
sVcelebs
p6276
g2
(g6
S'\x83\x01\x00\x00'
p6277
tp6278
Rp6279
sVglobal
p6280
g2
(g6
S'\xa1\x03\x00\x00'
p6281
tp6282
Rp6283
sVfocus
p6284
g2
(g6
S'W\x03\x00\x00'
p6285
tp6286
Rp6287
sVbattle
p6288
g2
(g6
S'\xe5\x00\x00\x00'
p6289
tp6290
Rp6291
sVsuperpower
p6292
g2
(g6
S'&\x08\x00\x00'
p6293
tp6294
Rp6295
sVessentials
p6296
g2
(g6
S'\xec\x02\x00\x00'
p6297
tp6298
Rp6299
sVzone
p6300
g2
(g6
S'\x99\t\x00\x00'
p6301
tp6302
Rp6303
sVflash
p6304
g2
(g6
S'J\x03\x00\x00'
p6305
tp6306
Rp6307
sVclick
p6308
g2
(g6
S'\xbb\x01\x00\x00'
p6309
tp6310
Rp6311
sVcharge
p6312
g2
(g6
S'\x90\x01\x00\x00'
p6313
tp6314
Rp6315
sVtext
p6316
g2
(g6
S'p\x08\x00\x00'
p6317
tp6318
Rp6319
sVstove
p6320
g2
(g6
S'\x06\x08\x00\x00'
p6321
tp6322
Rp6323
sVbrown
p6324
g2
(g6
S'<\x01\x00\x00'
p6325
tp6326
Rp6327
sVadvantage
p6328
g2
(g6
S'j\x00\x00\x00'
p6329
tp6330
Rp6331
sVcook
p6332
g2
(g6
S'\xfa\x01\x00\x00'
p6333
tp6334
Rp6335
sVtrouble
p6336
g2
(g6
S'\xcc\x08\x00\x00'
p6337
tp6338
Rp6339
sVcool
p6340
g2
(g6
S'\xfd\x01\x00\x00'
p6341
tp6342
Rp6343
sVclouds
p6344
g2
(g6
S'\xc9\x01\x00\x00'
p6345
tp6346
Rp6347
sVlevel
p6348
g2
(g6
S'\xe8\x04\x00\x00'
p6349
tp6350
Rp6351
sVturns
p6352
g2
(g6
S'\xdc\x08\x00\x00'
p6353
tp6354
Rp6355
sVphilippines
p6356
g2
(g6
S',\x06\x00\x00'
p6357
tp6358
Rp6359
sVhawaii
p6360
g2
(g6
S'\xe4\x03\x00\x00'
p6361
tp6362
Rp6363
sVgrilled
p6364
g2
(g6
S'\xc0\x03\x00\x00'
p6365
tp6366
Rp6367
sVrecall
p6368
g2
(g6
S'\xcc\x06\x00\x00'
p6369
tp6370
Rp6371
sVquick
p6372
g2
(g6
S'\xaf\x06\x00\x00'
p6373
tp6374
Rp6375
sVsays
p6376
g2
(g6
S'O\x07\x00\x00'
p6377
tp6378
Rp6379
sVtrend
p6380
g2
(g6
S'\xc3\x08\x00\x00'
p6381
tp6382
Rp6383
sVdiscover
p6384
g2
(g6
S'\x83\x02\x00\x00'
p6385
tp6386
Rp6387
sVcyber
p6388
g2
(g6
S'3\x02\x00\x00'
p6389
tp6390
Rp6391
sVcost
p6392
g2
(g6
S'\x03\x02\x00\x00'
p6393
tp6394
Rp6395
sVdrinks
p6396
g2
(g6
S'\xae\x02\x00\x00'
p6397
tp6398
Rp6399
sVshares
p6400
g2
(g6
S'\x86\x07\x00\x00'
p6401
tp6402
Rp6403
sVgoes
p6404
g2
(g6
S'\xa5\x03\x00\x00'
p6405
tp6406
Rp6407
sVreply
p6408
g2
(g6
S'\xed\x06\x00\x00'
p6409
tp6410
Rp6411
sVsupporting
p6412
g2
(g6
S'*\x08\x00\x00'
p6413
tp6414
Rp6415
sVpeeled
p6416
g2
(g6
S'\x1a\x06\x00\x00'
p6417
tp6418
Rp6419
sVwater
p6420
g2
(g6
S'9\t\x00\x00'
p6421
tp6422
Rp6423
sVbaseball
p6424
g2
(g6
S'\xe1\x00\x00\x00'
p6425
tp6426
Rp6427
sVq5
p6428
g2
(g6
S'\xa5\x06\x00\x00'
p6429
tp6430
Rp6431
sVchange
p6432
g2
(g6
S'\x8c\x01\x00\x00'
p6433
tp6434
Rp6435
sVsending
p6436
g2
(g6
S'r\x07\x00\x00'
p6437
tp6438
Rp6439
sVhealthy
p6440
g2
(g6
S'\xef\x03\x00\x00'
p6441
tp6442
Rp6443
sVearned
p6444
g2
(g6
S'\xbe\x02\x00\x00'
p6445
tp6446
Rp6447
sVtrial
p6448
g2
(g6
S'\xc6\x08\x00\x00'
p6449
tp6450
Rp6451
sVweird
p6452
g2
(g6
S'M\t\x00\x00'
p6453
tp6454
Rp6455
sVextra
p6456
g2
(g6
S'\n\x03\x00\x00'
p6457
tp6458
Rp6459
sVseashore
p6460
g2
(g6
S'b\x07\x00\x00'
p6461
tp6462
Rp6463
sV1st
p6464
g2
(g6
S'\x19\x00\x00\x00'
p6465
tp6466
Rp6467
sVrarely
p6468
g2
(g6
S'\xbc\x06\x00\x00'
p6469
tp6470
Rp6471
sVjan
p6472
g2
(g6
S'\x86\x04\x00\x00'
p6473
tp6474
Rp6475
sVsports
p6476
g2
(g6
S'\xdd\x07\x00\x00'
p6477
tp6478
Rp6479
sVlive
p6480
g2
(g6
S'\xfb\x04\x00\x00'
p6481
tp6482
Rp6483
sVplanted
p6484
g2
(g6
S'H\x06\x00\x00'
p6485
tp6486
Rp6487
sViphone
p6488
g2
(g6
S'r\x04\x00\x00'
p6489
tp6490
Rp6491
sVprep
p6492
g2
(g6
S'l\x06\x00\x00'
p6493
tp6494
Rp6495
sVtoday
p6496
g2
(g6
S'\x9d\x08\x00\x00'
p6497
tp6498
Rp6499
sVclub
p6500
g2
(g6
S'\xca\x01\x00\x00'
p6501
tp6502
Rp6503
sVshare
p6504
g2
(g6
S'\x84\x07\x00\x00'
p6505
tp6506
Rp6507
sVchocolate
p6508
g2
(g6
S'\xaa\x01\x00\x00'
p6509
tp6510
Rp6511
sVstates
p6512
g2
(g6
S'\xf2\x07\x00\x00'
p6513
tp6514
Rp6515
sVmigrants
p6516
g2
(g6
S'U\x05\x00\x00'
p6517
tp6518
Rp6519
sVibm
p6520
g2
(g6
S'<\x04\x00\x00'
p6521
tp6522
Rp6523
sVcar
p6524
g2
(g6
S'e\x01\x00\x00'
p6525
tp6526
Rp6527
sVmodified
p6528
g2
(g6
S'q\x05\x00\x00'
p6529
tp6530
Rp6531
sVcat
p6532
g2
(g6
S'w\x01\x00\x00'
p6533
tp6534
Rp6535
sVcal
p6536
g2
(g6
S'U\x01\x00\x00'
p6537
tp6538
Rp6539
sVprocrastinators
p6540
g2
(g6
S'\x83\x06\x00\x00'
p6541
tp6542
Rp6543
sVpowerball
p6544
g2
(g6
S'c\x06\x00\x00'
p6545
tp6546
Rp6547
sVnordictrack
p6548
g2
(g6
S'\xb4\x05\x00\x00'
p6549
tp6550
Rp6551
sVtrump
p6552
g2
(g6
S'\xcf\x08\x00\x00'
p6553
tp6554
Rp6555
sVstream
p6556
g2
(g6
S'\x0b\x08\x00\x00'
p6557
tp6558
Rp6559
sVnexus
p6560
g2
(g6
S'\xa9\x05\x00\x00'
p6561
tp6562
Rp6563
sVdecember
p6564
g2
(g6
S'O\x02\x00\x00'
p6565
tp6566
Rp6567
sVgeous
p6568
g2
(g6
S'\x89\x03\x00\x00'
p6569
tp6570
Rp6571
sVtopic
p6572
g2
(g6
S'\xa6\x08\x00\x00'
p6573
tp6574
Rp6575
sVheard
p6576
g2
(g6
S'\xf1\x03\x00\x00'
p6577
tp6578
Rp6579
sVchic
p6580
g2
(g6
S'\x9f\x01\x00\x00'
p6581
tp6582
Rp6583
sVproductive
p6584
g2
(g6
S'\x85\x06\x00\x00'
p6585
tp6586
Rp6587
sVcollards
p6588
g2
(g6
S'\xd4\x01\x00\x00'
p6589
tp6590
Rp6591
sVcuba
p6592
g2
(g6
S"'\x02\x00\x00"
p6593
tp6594
Rp6595
sVwrite
p6596
g2
(g6
S'\x85\t\x00\x00'
p6597
tp6598
Rp6599
sVrubik
p6600
g2
(g6
S',\x07\x00\x00'
p6601
tp6602
Rp6603
sVplus
p6604
g2
(g6
S'S\x06\x00\x00'
p6605
tp6606
Rp6607
sVpocus
p6608
g2
(g6
S'V\x06\x00\x00'
p6609
tp6610
Rp6611
sVproduct
p6612
g2
(g6
S'\x84\x06\x00\x00'
p6613
tp6614
Rp6615
sVhuge
p6616
g2
(g6
S'2\x04\x00\x00'
p6617
tp6618
Rp6619
sVbirthday
p6620
g2
(g6
S'\x07\x01\x00\x00'
p6621
tp6622
Rp6623
sVremember
p6624
g2
(g6
S'\xe4\x06\x00\x00'
p6625
tp6626
Rp6627
sVones
p6628
g2
(g6
S'\xd4\x05\x00\x00'
p6629
tp6630
Rp6631
sVexclusive
p6632
g2
(g6
S'\xfb\x02\x00\x00'
p6633
tp6634
Rp6635
sVserving
p6636
g2
(g6
S'}\x07\x00\x00'
p6637
tp6638
Rp6639
sVwords
p6640
g2
(g6
S't\t\x00\x00'
p6641
tp6642
Rp6643
sVmidnight
p6644
g2
(g6
S'T\x05\x00\x00'
p6645
tp6646
Rp6647
sVended
p6648
g2
(g6
S'\xd8\x02\x00\x00'
p6649
tp6650
Rp6651
sVtablets
p6652
g2
(g6
S'B\x08\x00\x00'
p6653
tp6654
Rp6655
sVcold
p6656
g2
(g6
S'\xd3\x01\x00\x00'
p6657
tp6658
Rp6659
sVplatform
p6660
g2
(g6
S'J\x06\x00\x00'
p6661
tp6662
Rp6663
sVoffers
p6664
g2
(g6
S'\xcb\x05\x00\x00'
p6665
tp6666
Rp6667
sVnon
p6668
g2
(g6
S'\xaf\x05\x00\x00'
p6669
tp6670
Rp6671
sVmoms
p6672
g2
(g6
S'u\x05\x00\x00'
p6673
tp6674
Rp6675
sVhilarious
p6676
g2
(g6
S'\x0c\x04\x00\x00'
p6677
tp6678
Rp6679
sVhalf
p6680
g2
(g6
S'\xd0\x03\x00\x00'
p6681
tp6682
Rp6683
sVfeature
p6684
g2
(g6
S'#\x03\x00\x00'
p6685
tp6686
Rp6687
sVwont
p6688
g2
(g6
S'r\t\x00\x00'
p6689
tp6690
Rp6691
sVjames
p6692
g2
(g6
S'\x85\x04\x00\x00'
p6693
tp6694
Rp6695
sVdrop
p6696
g2
(g6
S'\xb3\x02\x00\x00'
p6697
tp6698
Rp6699
sVem
p6700
g2
(g6
S'\xce\x02\x00\x00'
p6701
tp6702
Rp6703
sVwebinar
p6704
g2
(g6
S'C\t\x00\x00'
p6705
tp6706
Rp6707
sVreplay
p6708
g2
(g6
S'\xec\x06\x00\x00'
p6709
tp6710
Rp6711
sVyear
p6712
g2
(g6
S'\x8b\t\x00\x00'
p6713
tp6714
Rp6715
sVet
p6716
g2
(g6
S'\xef\x02\x00\x00'
p6717
tp6718
Rp6719
sVhappen
p6720
g2
(g6
S'\xd9\x03\x00\x00'
p6721
tp6722
Rp6723
sVcalling
p6724
g2
(g6
S'Y\x01\x00\x00'
p6725
tp6726
Rp6727
sVplans
p6728
g2
(g6
S'G\x06\x00\x00'
p6729
tp6730
Rp6731
sValbum
p6732
g2
(g6
S'~\x00\x00\x00'
p6733
tp6734
Rp6735
sV100k
p6736
g2
(g6
S'\x06\x00\x00\x00'
p6737
tp6738
Rp6739
sVopened
p6740
g2
(g6
S'\xd8\x05\x00\x00'
p6741
tp6742
Rp6743
sVspace
p6744
g2
(g6
S'\xcf\x07\x00\x00'
p6745
tp6746
Rp6747
sVhacked
p6748
g2
(g6
S'\xce\x03\x00\x00'
p6749
tp6750
Rp6751
sVreceiving
p6752
g2
(g6
S'\xce\x06\x00\x00'
p6753
tp6754
Rp6755
sVshows
p6756
g2
(g6
S'\x98\x07\x00\x00'
p6757
tp6758
Rp6759
sVburpy
p6760
g2
(g6
S'F\x01\x00\x00'
p6761
tp6762
Rp6763
sVzuckerberg
p6764
g2
(g6
S'\x9a\t\x00\x00'
p6765
tp6766
Rp6767
sVunwanted
p6768
g2
(g6
S'\xf1\x08\x00\x00'
p6769
tp6770
Rp6771
sVcare
p6772
g2
(g6
S'j\x01\x00\x00'
p6773
tp6774
Rp6775
sVcouldn
p6776
g2
(g6
S'\x07\x02\x00\x00'
p6777
tp6778
Rp6779
sVbritish
p6780
g2
(g6
S'7\x01\x00\x00'
p6781
tp6782
Rp6783
sVturn
p6784
g2
(g6
S'\xda\x08\x00\x00'
p6785
tp6786
Rp6787
sVplane
p6788
g2
(g6
S'D\x06\x00\x00'
p6789
tp6790
Rp6791
sVplace
p6792
g2
(g6
S'A\x06\x00\x00'
p6793
tp6794
Rp6795
sVswing
p6796
g2
(g6
S'9\x08\x00\x00'
p6797
tp6798
Rp6799
sVstyles
p6800
g2
(g6
S'\x18\x08\x00\x00'
p6801
tp6802
Rp6803
sV1000
p6804
g2
(g6
S'\x05\x00\x00\x00'
p6805
tp6806
Rp6807
sVflying
p6808
g2
(g6
S'V\x03\x00\x00'
p6809
tp6810
Rp6811
sVclumsy
p6812
g2
(g6
S'\xcb\x01\x00\x00'
p6813
tp6814
Rp6815
sVdirectly
p6816
g2
(g6
S'|\x02\x00\x00'
p6817
tp6818
Rp6819
sVfi
p6820
g2
(g6
S'2\x03\x00\x00'
p6821
tp6822
Rp6823
sVimpossible
p6824
g2
(g6
S'I\x04\x00\x00'
p6825
tp6826
Rp6827
sVmessage
p6828
g2
(g6
S'L\x05\x00\x00'
p6829
tp6830
Rp6831
sVtomorrow
p6832
g2
(g6
S'\xa1\x08\x00\x00'
p6833
tp6834
Rp6835
sVsize
p6836
g2
(g6
S'\xa3\x07\x00\x00'
p6837
tp6838
Rp6839
sVchecked
p6840
g2
(g6
S'\x98\x01\x00\x00'
p6841
tp6842
Rp6843
sVstuck
p6844
g2
(g6
S'\x12\x08\x00\x00'
p6845
tp6846
Rp6847
sVbreed
p6848
g2
(g6
S',\x01\x00\x00'
p6849
tp6850
Rp6851
sVreturns
p6852
g2
(g6
S'\x06\x07\x00\x00'
p6853
tp6854
Rp6855
sVwhite
p6856
g2
(g6
S'U\t\x00\x00'
p6857
tp6858
Rp6859
sVfriend
p6860
g2
(g6
S'r\x03\x00\x00'
p6861
tp6862
Rp6863
sVgives
p6864
g2
(g6
S'\x9a\x03\x00\x00'
p6865
tp6866
Rp6867
sVhug
p6868
g2
(g6
S'1\x04\x00\x00'
p6869
tp6870
Rp6871
sVseason
p6872
g2
(g6
S'c\x07\x00\x00'
p6873
tp6874
Rp6875
sVcopy
p6876
g2
(g6
S'\xff\x01\x00\x00'
p6877
tp6878
Rp6879
sVholder
p6880
g2
(g6
S'\x15\x04\x00\x00'
p6881
tp6882
Rp6883
sVparticipated
p6884
g2
(g6
S'\x06\x06\x00\x00'
p6885
tp6886
Rp6887
sVrequire
p6888
g2
(g6
S'\xf0\x06\x00\x00'
p6889
tp6890
Rp6891
sVyouve
p6892
g2
(g6
S'\x97\t\x00\x00'
p6893
tp6894
Rp6895
sVcards
p6896
g2
(g6
S'i\x01\x00\x00'
p6897
tp6898
Rp6899
sVtamu
p6900
g2
(g6
S'P\x08\x00\x00'
p6901
tp6902
Rp6903
sVpre
p6904
g2
(g6
S'h\x06\x00\x00'
p6905
tp6906
Rp6907
sVpro
p6908
g2
(g6
S'\x7f\x06\x00\x00'
p6909
tp6910
Rp6911
sVgreece
p6912
g2
(g6
S'\xbd\x03\x00\x00'
p6913
tp6914
Rp6915
sVbreakfast
p6916
g2
(g6
S'&\x01\x00\x00'
p6917
tp6918
Rp6919
sVmarathon
p6920
g2
(g6
S'-\x05\x00\x00'
p6921
tp6922
Rp6923
sVideas
p6924
g2
(g6
S'B\x04\x00\x00'
p6925
tp6926
Rp6927
sVdining
p6928
g2
(g6
S'y\x02\x00\x00'
p6929
tp6930
Rp6931
sVspotify
p6932
g2
(g6
S'\xdf\x07\x00\x00'
p6933
tp6934
Rp6935
sVonline
p6936
g2
(g6
S'\xd6\x05\x00\x00'
p6937
tp6938
Rp6939
sVsurf
p6940
g2
(g6
S',\x08\x00\x00'
p6941
tp6942
Rp6943
sVsure
p6944
g2
(g6
S'+\x08\x00\x00'
p6945
tp6946
Rp6947
sVaspen
p6948
g2
(g6
S'\xb9\x00\x00\x00'
p6949
tp6950
Rp6951
sVprice
p6952
g2
(g6
S'v\x06\x00\x00'
p6953
tp6954
Rp6955
sVfalls
p6956
g2
(g6
S'\x13\x03\x00\x00'
p6957
tp6958
Rp6959
sVdonation
p6960
g2
(g6
S'\x9c\x02\x00\x00'
p6961
tp6962
Rp6963
sVamerica
p6964
g2
(g6
S'\x88\x00\x00\x00'
p6965
tp6966
Rp6967
sVicon
p6968
g2
(g6
S'>\x04\x00\x00'
p6969
tp6970
Rp6971
sVforever
p6972
g2
(g6
S'c\x03\x00\x00'
p6973
tp6974
Rp6975
sVhungry
p6976
g2
(g6
S'5\x04\x00\x00'
p6977
tp6978
Rp6979
sVpremieres
p6980
g2
(g6
S'k\x06\x00\x00'
p6981
tp6982
Rp6983
sVgerman
p6984
g2
(g6
S'\x8a\x03\x00\x00'
p6985
tp6986
Rp6987
sVcheap
p6988
g2
(g6
S'\x95\x01\x00\x00'
p6989
tp6990
Rp6991
sVhack
p6992
g2
(g6
S'\xcd\x03\x00\x00'
p6993
tp6994
Rp6995
sVupgrade
p6996
g2
(g6
S'\xf6\x08\x00\x00'
p6997
tp6998
Rp6999
sVhoverboard
p7000
g2
(g6
S'/\x04\x00\x00'
p7001
tp7002
Rp7003
sVstate
p7004
g2
(g6
S'\xf0\x07\x00\x00'
p7005
tp7006
Rp7007
sVpumpkin
p7008
g2
(g6
S'\x9a\x06\x00\x00'
p7009
tp7010
Rp7011
sVdyk
p7012
g2
(g6
S'\xba\x02\x00\x00'
p7013
tp7014
Rp7015
sVcelebrate
p7016
g2
(g6
S'\x81\x01\x00\x00'
p7017
tp7018
Rp7019
sVleather
p7020
g2
(g6
S'\xdf\x04\x00\x00'
p7021
tp7022
Rp7023
sVjokes
p7024
g2
(g6
S'\x97\x04\x00\x00'
p7025
tp7026
Rp7027
sVpaper
p7028
g2
(g6
S'\x00\x06\x00\x00'
p7029
tp7030
Rp7031
sVpants
p7032
g2
(g6
S'\xff\x05\x00\x00'
p7033
tp7034
Rp7035
sVconcert
p7036
g2
(g6
S'\xed\x01\x00\x00'
p7037
tp7038
Rp7039
sVcollege
p7040
g2
(g6
S'\xd8\x01\x00\x00'
p7041
tp7042
Rp7043
sVhell
p7044
g2
(g6
S'\xf8\x03\x00\x00'
p7045
tp7046
Rp7047
sVapologies
p7048
g2
(g6
S'\x99\x00\x00\x00'
p7049
tp7050
Rp7051
sVways
p7052
g2
(g6
S'=\t\x00\x00'
p7053
tp7054
Rp7055
sVreview
p7056
g2
(g6
S'\x08\x07\x00\x00'
p7057
tp7058
Rp7059
sVoutside
p7060
g2
(g6
S'\xe7\x05\x00\x00'
p7061
tp7062
Rp7063
sVarrival
p7064
g2
(g6
S'\xac\x00\x00\x00'
p7065
tp7066
Rp7067
sVstyle
p7068
g2
(g6
S'\x17\x08\x00\x00'
p7069
tp7070
Rp7071
sVarticle
p7072
g2
(g6
S'\xb1\x00\x00\x00'
p7073
tp7074
Rp7075
sVcome
p7076
g2
(g6
S'\xdd\x01\x00\x00'
p7077
tp7078
Rp7079
sVregion
p7080
g2
(g6
S'\xda\x06\x00\x00'
p7081
tp7082
Rp7083
sVcomes
p7084
g2
(g6
S'\xdf\x01\x00\x00'
p7085
tp7086
Rp7087
sVduty
p7088
g2
(g6
S'\xb8\x02\x00\x00'
p7089
tp7090
Rp7091
sV150
p7092
g2
(g6
S'\x0f\x00\x00\x00'
p7093
tp7094
Rp7095
sVcolor
p7096
g2
(g6
S'\xd9\x01\x00\x00'
p7097
tp7098
Rp7099
sVjeans
p7100
g2
(g6
S'\x89\x04\x00\x00'
p7101
tp7102
Rp7103
sVpop
p7104
g2
(g6
S'[\x06\x00\x00'
p7105
tp7106
Rp7107
sVsatisfaction
p7108
g2
(g6
S'C\x07\x00\x00'
p7109
tp7110
Rp7111
sVpod
p7112
g2
(g6
S'W\x06\x00\x00'
p7113
tp7114
Rp7115
sVturkey
p7116
g2
(g6
S'\xd9\x08\x00\x00'
p7117
tp7118
Rp7119
sVfilmmakers
p7120
g2
(g6
S';\x03\x00\x00'
p7121
tp7122
Rp7123
sV500
p7124
g2
(g6
S'?\x00\x00\x00'
p7125
tp7126
Rp7127
sVtiger
p7128
g2
(g6
S'\x8e\x08\x00\x00'
p7129
tp7130
Rp7131
sVinstant
p7132
g2
(g6
S'b\x04\x00\x00'
p7133
tp7134
Rp7135
sVcareful
p7136
g2
(g6
S'k\x01\x00\x00'
p7137
tp7138
Rp7139
sVspirit
p7140
g2
(g6
S'\xda\x07\x00\x00'
p7141
tp7142
Rp7143
sVcase
p7144
g2
(g6
S'p\x01\x00\x00'
p7145
tp7146
Rp7147
sVcash
p7148
g2
(g6
S'q\x01\x00\x00'
p7149
tp7150
Rp7151
sVtrick
p7152
g2
(g6
S'\xc8\x08\x00\x00'
p7153
tp7154
Rp7155
sVtaking
p7156
g2
(g6
S'G\x08\x00\x00'
p7157
tp7158
Rp7159
sVcoolest
p7160
g2
(g6
S'\xfe\x01\x00\x00'
p7161
tp7162
Rp7163
sVclutter
p7164
g2
(g6
S'\xcc\x01\x00\x00'
p7165
tp7166
Rp7167
sVheels
p7168
g2
(g6
S'\xf7\x03\x00\x00'
p7169
tp7170
Rp7171
sVworry
p7172
g2
(g6
S'|\t\x00\x00'
p7173
tp7174
Rp7175
sVdevelop
p7176
g2
(g6
S'k\x02\x00\x00'
p7177
tp7178
Rp7179
sVauthor
p7180
g2
(g6
S'\xc5\x00\x00\x00'
p7181
tp7182
Rp7183
sVmedia
p7184
g2
(g6
S'B\x05\x00\x00'
p7185
tp7186
Rp7187
sVtrip
p7188
g2
(g6
S'\xc9\x08\x00\x00'
p7189
tp7190
Rp7191
sVfood
p7192
g2
(g6
S'[\x03\x00\x00'
p7193
tp7194
Rp7195
sVbuys
p7196
g2
(g6
S'N\x01\x00\x00'
p7197
tp7198
Rp7199
sVreminder
p7200
g2
(g6
S'\xe5\x06\x00\x00'
p7201
tp7202
Rp7203
sVisle
p7204
g2
(g6
S'y\x04\x00\x00'
p7205
tp7206
Rp7207
sVweek
p7208
g2
(g6
S'H\t\x00\x00'
p7209
tp7210
Rp7211
sVfinish
p7212
g2
(g6
S'C\x03\x00\x00'
p7213
tp7214
Rp7215
sVclosest
p7216
g2
(g6
S'\xc6\x01\x00\x00'
p7217
tp7218
Rp7219
sVdunkaroos
p7220
g2
(g6
S'\xb7\x02\x00\x00'
p7221
tp7222
Rp7223
sVdriver
p7224
g2
(g6
S'\xb0\x02\x00\x00'
p7225
tp7226
Rp7227
sVdirector
p7228
g2
(g6
S'}\x02\x00\x00'
p7229
tp7230
Rp7231
sVpersons
p7232
g2
(g6
S'(\x06\x00\x00'
p7233
tp7234
Rp7235
sVinvestigates
p7236
g2
(g6
S'm\x04\x00\x00'
p7237
tp7238
Rp7239
sVtheater
p7240
g2
(g6
S'x\x08\x00\x00'
p7241
tp7242
Rp7243
sVcharges
p7244
g2
(g6
S'\x91\x01\x00\x00'
p7245
tp7246
Rp7247
sVmagical
p7248
g2
(g6
S'#\x05\x00\x00'
p7249
tp7250
Rp7251
sVbreeze
p7252
g2
(g6
S'-\x01\x00\x00'
p7253
tp7254
Rp7255
sVmodel
p7256
g2
(g6
S'n\x05\x00\x00'
p7257
tp7258
Rp7259
sVreward
p7260
g2
(g6
S'\t\x07\x00\x00'
p7261
tp7262
Rp7263
sVresearchers
p7264
g2
(g6
S'\xf3\x06\x00\x00'
p7265
tp7266
Rp7267
sVkill
p7268
g2
(g6
S'\xb2\x04\x00\x00'
p7269
tp7270
Rp7271
sVtouch
p7272
g2
(g6
S'\xa9\x08\x00\x00'
p7273
tp7274
Rp7275
sVreality
p7276
g2
(g6
S'\xc7\x06\x00\x00'
p7277
tp7278
Rp7279
sVresidents
p7280
g2
(g6
S'\xf6\x06\x00\x00'
p7281
tp7282
Rp7283
sVrose
p7284
g2
(g6
S'%\x07\x00\x00'
p7285
tp7286
Rp7287
sVlets
p7288
g2
(g6
S'\xe6\x04\x00\x00'
p7289
tp7290
Rp7291
sVross
p7292
g2
(g6
S'&\x07\x00\x00'
p7293
tp7294
Rp7295
sVread
p7296
g2
(g6
S'\xc2\x06\x00\x00'
p7297
tp7298
Rp7299
sVdigital
p7300
g2
(g6
S'v\x02\x00\x00'
p7301
tp7302
Rp7303
sVfridge
p7304
g2
(g6
S'q\x03\x00\x00'
p7305
tp7306
Rp7307
sVgonna
p7308
g2
(g6
S'\xaa\x03\x00\x00'
p7309
tp7310
Rp7311
sVearly
p7312
g2
(g6
S'\xbc\x02\x00\x00'
p7313
tp7314
Rp7315
sVlistening
p7316
g2
(g6
S'\xf8\x04\x00\x00'
p7317
tp7318
Rp7319
sVusing
p7320
g2
(g6
S'\xff\x08\x00\x00'
p7321
tp7322
Rp7323
sVaccepted
p7324
g2
(g6
S'N\x00\x00\x00'
p7325
tp7326
Rp7327
sVfortune
p7328
g2
(g6
S'g\x03\x00\x00'
p7329
tp7330
Rp7331
sVpounds
p7332
g2
(g6
S'a\x06\x00\x00'
p7333
tp7334
Rp7335
sVpet
p7336
g2
(g6
S')\x06\x00\x00'
p7337
tp7338
Rp7339
sVpreparedness
p7340
g2
(g6
S'o\x06\x00\x00'
p7341
tp7342
Rp7343
sVmaker
p7344
g2
(g6
S'%\x05\x00\x00'
p7345
tp7346
Rp7347
sVblackberry
p7348
g2
(g6
S'\x0c\x01\x00\x00'
p7349
tp7350
Rp7351
sVtower
p7352
g2
(g6
S'\xad\x08\x00\x00'
p7353
tp7354
Rp7355
sVpacific
p7356
g2
(g6
S'\xef\x05\x00\x00'
p7357
tp7358
Rp7359
sVtable
p7360
g2
(g6
S'?\x08\x00\x00'
p7361
tp7362
Rp7363
sVcaribbean
p7364
g2
(g6
S'l\x01\x00\x00'
p7365
tp7366
Rp7367
sVmood
p7368
g2
(g6
S'|\x05\x00\x00'
p7369
tp7370
Rp7371
sVprovides
p7372
g2
(g6
S'\x92\x06\x00\x00'
p7373
tp7374
Rp7375
sVfootball
p7376
g2
(g6
S'^\x03\x00\x00'
p7377
tp7378
Rp7379
sVbusiness
p7380
g2
(g6
S'H\x01\x00\x00'
p7381
tp7382
Rp7383
sVasap
p7384
g2
(g6
S'\xb5\x00\x00\x00'
p7385
tp7386
Rp7387
sVcommunicate
p7388
g2
(g6
S'\xe5\x01\x00\x00'
p7389
tp7390
Rp7391
sVcredits
p7392
g2
(g6
S'\x1d\x02\x00\x00'
p7393
tp7394
Rp7395
sVthrow
p7396
g2
(g6
S'\x87\x08\x00\x00'
p7397
tp7398
Rp7399
sVbeaches
p7400
g2
(g6
S'\xea\x00\x00\x00'
p7401
tp7402
Rp7403
sVcentral
p7404
g2
(g6
S'\x86\x01\x00\x00'
p7405
tp7406
Rp7407
sVoh
p7408
g2
(g6
S'\xce\x05\x00\x00'
p7409
tp7410
Rp7411
sVjeep
p7412
g2
(g6
S'\x8b\x04\x00\x00'
p7413
tp7414
Rp7415
sVbased
p7416
g2
(g6
S'\xe2\x00\x00\x00'
p7417
tp7418
Rp7419
sVchoo
p7420
g2
(g6
S'\xac\x01\x00\x00'
p7421
tp7422
Rp7423
sVfell
p7424
g2
(g6
S'0\x03\x00\x00'
p7425
tp7426
Rp7427
sVstand
p7428
g2
(g6
S'\xe5\x07\x00\x00'
p7429
tp7430
Rp7431
sV2k
p7432
g2
(g6
S'0\x00\x00\x00'
p7433
tp7434
Rp7435
sVyoud
p7436
g2
(g6
S'\x93\t\x00\x00'
p7437
tp7438
Rp7439
sVsnapchat
p7440
g2
(g6
S'\xbf\x07\x00\x00'
p7441
tp7442
Rp7443
sVaccounts
p7444
g2
(g6
S'S\x00\x00\x00'
p7445
tp7446
Rp7447
sVfast
p7448
g2
(g6
S'\x1c\x03\x00\x00'
p7449
tp7450
Rp7451
sVprepare
p7452
g2
(g6
S'm\x06\x00\x00'
p7453
tp7454
Rp7455
sVarea
p7456
g2
(g6
S'\xa9\x00\x00\x00'
p7457
tp7458
Rp7459
sVaren
p7460
g2
(g6
S'\xaa\x00\x00\x00'
p7461
tp7462
Rp7463
sVstart
p7464
g2
(g6
S'\xec\x07\x00\x00'
p7465
tp7466
Rp7467
sVcats
p7468
g2
(g6
S'{\x01\x00\x00'
p7469
tp7470
Rp7471
sVlow
p7472
g2
(g6
S'\x17\x05\x00\x00'
p7473
tp7474
Rp7475
sVlot
p7476
g2
(g6
S'\x0f\x05\x00\x00'
p7477
tp7478
Rp7479
sVvalley
p7480
g2
(g6
S'\x04\t\x00\x00'
p7481
tp7482
Rp7483
sVpiton
p7484
g2
(g6
S'?\x06\x00\x00'
p7485
tp7486
Rp7487
sVmischief
p7488
g2
(g6
S'f\x05\x00\x00'
p7489
tp7490
Rp7491
sVfsa
p7492
g2
(g6
S'v\x03\x00\x00'
p7493
tp7494
Rp7495
sVtrying
p7496
g2
(g6
S'\xd3\x08\x00\x00'
p7497
tp7498
Rp7499
sVfaster
p7500
g2
(g6
S'\x1d\x03\x00\x00'
p7501
tp7502
Rp7503
sVhire
p7504
g2
(g6
S'\x0f\x04\x00\x00'
p7505
tp7506
Rp7507
sVappliance
p7508
g2
(g6
S'\xa0\x00\x00\x00'
p7509
tp7510
Rp7511
sVkatrina
p7512
g2
(g6
S'\xa2\x04\x00\x00'
p7513
tp7514
Rp7515
sVcastles
p7516
g2
(g6
S'u\x01\x00\x00'
p7517
tp7518
Rp7519
sVtaylor
p7520
g2
(g6
S'Z\x08\x00\x00'
p7521
tp7522
Rp7523
sV600
p7524
g2
(g6
S'C\x00\x00\x00'
p7525
tp7526
Rp7527
sVtaste
p7528
g2
(g6
S'T\x08\x00\x00'
p7529
tp7530
Rp7531
sVtotaling
p7532
g2
(g6
S'\xa7\x08\x00\x00'
p7533
tp7534
Rp7535
sVsunroof
p7536
g2
(g6
S'#\x08\x00\x00'
p7537
tp7538
Rp7539
sVfinancial
p7540
g2
(g6
S'>\x03\x00\x00'
p7541
tp7542
Rp7543
sVtasty
p7544
g2
(g6
S'W\x08\x00\x00'
p7545
tp7546
Rp7547
sVmoves
p7548
g2
(g6
S'\x85\x05\x00\x00'
p7549
tp7550
Rp7551
sVportland
p7552
g2
(g6
S']\x06\x00\x00'
p7553
tp7554
Rp7555
sVreceive
p7556
g2
(g6
S'\xcd\x06\x00\x00'
p7557
tp7558
Rp7559
sVdeserve
p7560
g2
(g6
S'a\x02\x00\x00'
p7561
tp7562
Rp7563
sVstorage
p7564
g2
(g6
S'\x00\x08\x00\x00'
p7565
tp7566
Rp7567
sVregistry
p7568
g2
(g6
S'\xdd\x06\x00\x00'
p7569
tp7570
Rp7571
sVcoverage
p7572
g2
(g6
S'\x11\x02\x00\x00'
p7573
tp7574
Rp7575
sVstocks
p7576
g2
(g6
S'\xfd\x07\x00\x00'
p7577
tp7578
Rp7579
sVbuilding
p7580
g2
(g6
S'A\x01\x00\x00'
p7581
tp7582
Rp7583
sVwife
p7584
g2
(g6
S'Y\t\x00\x00'
p7585
tp7586
Rp7587
sVinvest
p7588
g2
(g6
S'l\x04\x00\x00'
p7589
tp7590
Rp7591
sVmissouri
p7592
g2
(g6
S'j\x05\x00\x00'
p7593
tp7594
Rp7595
sVoverseas
p7596
g2
(g6
S'\xea\x05\x00\x00'
p7597
tp7598
Rp7599
sVtheyll
p7600
g2
(g6
S'}\x08\x00\x00'
p7601
tp7602
Rp7603
sVale
p7604
g2
(g6
S'\x7f\x00\x00\x00'
p7605
tp7606
Rp7607
sVmonth
p7608
g2
(g6
S'y\x05\x00\x00'
p7609
tp7610
Rp7611
sVthoughtful
p7612
g2
(g6
S'\x85\x08\x00\x00'
p7613
tp7614
Rp7615
sVdeadline
p7616
g2
(g6
S'J\x02\x00\x00'
p7617
tp7618
Rp7619
sVdish
p7620
g2
(g6
S'\x85\x02\x00\x00'
p7621
tp7622
Rp7623
sVfollow
p7624
g2
(g6
S'Z\x03\x00\x00'
p7625
tp7626
Rp7627
sVglimpse
p7628
g2
(g6
S'\x9e\x03\x00\x00'
p7629
tp7630
Rp7631
sVicons
p7632
g2
(g6
S'?\x04\x00\x00'
p7633
tp7634
Rp7635
sVthursday
p7636
g2
(g6
S'\x89\x08\x00\x00'
p7637
tp7638
Rp7639
sVfoster
p7640
g2
(g6
S'h\x03\x00\x00'
p7641
tp7642
Rp7643
sVactivities
p7644
g2
(g6
S'\\\x00\x00\x00'
p7645
tp7646
Rp7647
sVwoman
p7648
g2
(g6
S'm\t\x00\x00'
p7649
tp7650
Rp7651
sVsong
p7652
g2
(g6
S'\xc8\x07\x00\x00'
p7653
tp7654
Rp7655
sVfar
p7656
g2
(g6
S'\x1a\x03\x00\x00'
p7657
tp7658
Rp7659
sVworst
p7660
g2
(g6
S'}\t\x00\x00'
p7661
tp7662
Rp7663
sVdecide
p7664
g2
(g6
S'P\x02\x00\x00'
p7665
tp7666
Rp7667
sVfam
p7668
g2
(g6
S'\x14\x03\x00\x00'
p7669
tp7670
Rp7671
sVtreating
p7672
g2
(g6
S'\xbf\x08\x00\x00'
p7673
tp7674
Rp7675
sVlist
p7676
g2
(g6
S'\xf6\x04\x00\x00'
p7677
tp7678
Rp7679
sVskate
p7680
g2
(g6
S'\xa5\x07\x00\x00'
p7681
tp7682
Rp7683
sVinstagram
p7684
g2
(g6
S'`\x04\x00\x00'
p7685
tp7686
Rp7687
sVtea
p7688
g2
(g6
S'\\\x08\x00\x00'
p7689
tp7690
Rp7691
sVted
p7692
g2
(g6
S'd\x08\x00\x00'
p7693
tp7694
Rp7695
sVrate
p7696
g2
(g6
S'\xbd\x06\x00\x00'
p7697
tp7698
Rp7699
sVdesign
p7700
g2
(g6
S'c\x02\x00\x00'
p7701
tp7702
Rp7703
sVcasual
p7704
g2
(g6
S'v\x01\x00\x00'
p7705
tp7706
Rp7707
sVpinterest
p7708
g2
(g6
S'<\x06\x00\x00'
p7709
tp7710
Rp7711
sVsun
p7712
g2
(g6
S'!\x08\x00\x00'
p7713
tp7714
Rp7715
sVmilk
p7716
g2
(g6
S'X\x05\x00\x00'
p7717
tp7718
Rp7719
sVcrush
p7720
g2
(g6
S'%\x02\x00\x00'
p7721
tp7722
Rp7723
sVjedi
p7724
g2
(g6
S'\x8a\x04\x00\x00'
p7725
tp7726
Rp7727
sVanswers
p7728
g2
(g6
S'\x95\x00\x00\x00'
p7729
tp7730
Rp7731
sViraq
p7732
g2
(g6
S's\x04\x00\x00'
p7733
tp7734
Rp7735
sVtragedy
p7736
g2
(g6
S'\xb5\x08\x00\x00'
p7737
tp7738
Rp7739
sVcappella
p7740
g2
(g6
S'a\x01\x00\x00'
p7741
tp7742
Rp7743
sVahead
p7744
g2
(g6
S'x\x00\x00\x00'
p7745
tp7746
Rp7747
sVinspired
p7748
g2
(g6
S'^\x04\x00\x00'
p7749
tp7750
Rp7751
sVoptions
p7752
g2
(g6
S'\xdc\x05\x00\x00'
p7753
tp7754
Rp7755
sVpoint
p7756
g2
(g6
S'X\x06\x00\x00'
p7757
tp7758
Rp7759
sVfamily
p7760
g2
(g6
S'\x16\x03\x00\x00'
p7761
tp7762
Rp7763
sVscreens
p7764
g2
(g6
S']\x07\x00\x00'
p7765
tp7766
Rp7767
sVtexts
p7768
g2
(g6
S'q\x08\x00\x00'
p7769
tp7770
Rp7771
sVappliances
p7772
g2
(g6
S'\xa1\x00\x00\x00'
p7773
tp7774
Rp7775
sVtoys
p7776
g2
(g6
S'\xb1\x08\x00\x00'
p7777
tp7778
Rp7779
sVflorence
p7780
g2
(g6
S'S\x03\x00\x00'
p7781
tp7782
Rp7783
sVtakes
p7784
g2
(g6
S'F\x08\x00\x00'
p7785
tp7786
Rp7787
sVmysterious
p7788
g2
(g6
S'\x90\x05\x00\x00'
p7789
tp7790
Rp7791
sVmarkets
p7792
g2
(g6
S'0\x05\x00\x00'
p7793
tp7794
Rp7795
sVturbo
p7796
g2
(g6
S'\xd7\x08\x00\x00'
p7797
tp7798
Rp7799
sVknows
p7800
g2
(g6
S'\xc0\x04\x00\x00'
p7801
tp7802
Rp7803
sVpairs
p7804
g2
(g6
S'\xfa\x05\x00\x00'
p7805
tp7806
Rp7807
sVexcuse
p7808
g2
(g6
S'\xfd\x02\x00\x00'
p7809
tp7810
Rp7811
sVantibiotics
p7812
g2
(g6
S'\x97\x00\x00\x00'
p7813
tp7814
Rp7815
sVstick
p7816
g2
(g6
S'\xfa\x07\x00\x00'
p7817
tp7818
Rp7819
sVknown
p7820
g2
(g6
S'\xbf\x04\x00\x00'
p7821
tp7822
Rp7823
sVhurry
p7824
g2
(g6
S'9\x04\x00\x00'
p7825
tp7826
Rp7827
sVglad
p7828
g2
(g6
S'\x9c\x03\x00\x00'
p7829
tp7830
Rp7831
sVhelped
p7832
g2
(g6
S'\xfb\x03\x00\x00'
p7833
tp7834
Rp7835
sVlandfills
p7836
g2
(g6
S'\xca\x04\x00\x00'
p7837
tp7838
Rp7839
sVhistory
p7840
g2
(g6
S'\x11\x04\x00\x00'
p7841
tp7842
Rp7843
sVcourt
p7844
g2
(g6
S'\x0f\x02\x00\x00'
p7845
tp7846
Rp7847
sVgoal
p7848
g2
(g6
S'\xa3\x03\x00\x00'
p7849
tp7850
Rp7851
sVbreaking
p7852
g2
(g6
S"'\x01\x00\x00"
p7853
tp7854
Rp7855
sVstrong
p7856
g2
(g6
S'\x10\x08\x00\x00'
p7857
tp7858
Rp7859
sVokay
p7860
g2
(g6
S'\xd1\x05\x00\x00'
p7861
tp7862
Rp7863
sVreflect
p7864
g2
(g6
S'\xd8\x06\x00\x00'
p7865
tp7866
Rp7867
sVfa
p7868
g2
(g6
S'\r\x03\x00\x00'
p7869
tp7870
Rp7871
sVbrands
p7872
g2
(g6
S'#\x01\x00\x00'
p7873
tp7874
Rp7875
sVadventure
p7876
g2
(g6
S'k\x00\x00\x00'
p7877
tp7878
Rp7879
sVtacos
p7880
g2
(g6
S'C\x08\x00\x00'
p7881
tp7882
Rp7883
sVovernight
p7884
g2
(g6
S'\xe9\x05\x00\x00'
p7885
tp7886
Rp7887
sVdream
p7888
g2
(g6
S'\xa6\x02\x00\x00'
p7889
tp7890
Rp7891
sVhelp
p7892
g2
(g6
S'\xfa\x03\x00\x00'
p7893
tp7894
Rp7895
sVseptember
p7896
g2
(g6
S'u\x07\x00\x00'
p7897
tp7898
Rp7899
sVmission
p7900
g2
(g6
S'i\x05\x00\x00'
p7901
tp7902
Rp7903
sVisnt
p7904
g2
(g6
S'{\x04\x00\x00'
p7905
tp7906
Rp7907
sVrsvps
p7908
g2
(g6
S'*\x07\x00\x00'
p7909
tp7910
Rp7911
sVactually
p7912
g2
(g6
S'_\x00\x00\x00'
p7913
tp7914
Rp7915
sVfeel
p7916
g2
(g6
S'*\x03\x00\x00'
p7917
tp7918
Rp7919
sVfool
p7920
g2
(g6
S'\\\x03\x00\x00'
p7921
tp7922
Rp7923
sVwouldn
p7924
g2
(g6
S'\x80\t\x00\x00'
p7925
tp7926
Rp7927
sVevening
p7928
g2
(g6
S'\xf4\x02\x00\x00'
p7929
tp7930
Rp7931
sVya
p7932
g2
(g6
S'\x88\t\x00\x00'
p7933
tp7934
Rp7935
sVye
p7936
g2
(g6
S'\x8a\t\x00\x00'
p7937
tp7938
Rp7939
sVinch
p7940
g2
(g6
S'N\x04\x00\x00'
p7941
tp7942
Rp7943
sVces
p7944
g2
(g6
S'\x88\x01\x00\x00'
p7945
tp7946
Rp7947
sVstarbucks
p7948
g2
(g6
S'\xe9\x07\x00\x00'
p7949
tp7950
Rp7951
sVfoot
p7952
g2
(g6
S']\x03\x00\x00'
p7953
tp7954
Rp7955
sVninja
p7956
g2
(g6
S'\xad\x05\x00\x00'
p7957
tp7958
Rp7959
sVbigger
p7960
g2
(g6
S'\x01\x01\x00\x00'
p7961
tp7962
Rp7963
sVgets
p7964
g2
(g6
S'\x8c\x03\x00\x00'
p7965
tp7966
Rp7967
sVstopped
p7968
g2
(g6
S'\xff\x07\x00\x00'
p7969
tp7970
Rp7971
sVheavy
p7972
g2
(g6
S'\xf6\x03\x00\x00'
p7973
tp7974
Rp7975
sVweight
p7976
g2
(g6
S'L\t\x00\x00'
p7977
tp7978
Rp7979
sVfees
p7980
g2
(g6
S'.\x03\x00\x00'
p7981
tp7982
Rp7983
sVbrother
p7984
g2
(g6
S';\x01\x00\x00'
p7985
tp7986
Rp7987
sVevent
p7988
g2
(g6
S'\xf5\x02\x00\x00'
p7989
tp7990
Rp7991
sVleave
p7992
g2
(g6
S'\xe0\x04\x00\x00'
p7993
tp7994
Rp7995
sVbali
p7996
g2
(g6
S'\xdd\x00\x00\x00'
p7997
tp7998
Rp7999
sVitem
p8000
g2
(g6
S'\x7f\x04\x00\x00'
p8001
tp8002
Rp8003
sVjolly
p8004
g2
(g6
S'\x98\x04\x00\x00'
p8005
tp8006
Rp8007
sVhealth
p8008
g2
(g6
S'\xee\x03\x00\x00'
p8009
tp8010
Rp8011
sVparadise
p8012
g2
(g6
S'\x02\x06\x00\x00'
p8013
tp8014
Rp8015
sVissue
p8016
g2
(g6
S'|\x04\x00\x00'
p8017
tp8018
Rp8019
sVfiber
p8020
g2
(g6
S'3\x03\x00\x00'
p8021
tp8022
Rp8023
sVfriday
p8024
g2
(g6
S'p\x03\x00\x00'
p8025
tp8026
Rp8027
sVreason
p8028
g2
(g6
S'\xca\x06\x00\x00'
p8029
tp8030
Rp8031
sVask
p8032
g2
(g6
S'\xb6\x00\x00\x00'
p8033
tp8034
Rp8035
sVteach
p8036
g2
(g6
S']\x08\x00\x00'
p8037
tp8038
Rp8039
sVpup
p8040
g2
(g6
S'\x9b\x06\x00\x00'
p8041
tp8042
Rp8043
sVterrible
p8044
g2
(g6
S'l\x08\x00\x00'
p8045
tp8046
Rp8047
sVamerican
p8048
g2
(g6
S'\x89\x00\x00\x00'
p8049
tp8050
Rp8051
sVvirgin
p8052
g2
(g6
S'\x13\t\x00\x00'
p8053
tp8054
Rp8055
sVfeed
p8056
g2
(g6
S'(\x03\x00\x00'
p8057
tp8058
Rp8059
sVdine
p8060
g2
(g6
S'x\x02\x00\x00'
p8061
tp8062
Rp8063
sVfancy
p8064
g2
(g6
S'\x18\x03\x00\x00'
p8065
tp8066
Rp8067
sVfeet
p8068
g2
(g6
S'/\x03\x00\x00'
p8069
tp8070
Rp8071
sVmiss
p8072
g2
(g6
S'g\x05\x00\x00'
p8073
tp8074
Rp8075
sVstory
p8076
g2
(g6
S'\x04\x08\x00\x00'
p8077
tp8078
Rp8079
sVtemperature
p8080
g2
(g6
S'i\x08\x00\x00'
p8081
tp8082
Rp8083
sVstation
p8084
g2
(g6
S'\xf3\x07\x00\x00'
p8085
tp8086
Rp8087
sVstore
p8088
g2
(g6
S'\x01\x08\x00\x00'
p8089
tp8090
Rp8091
sVattendants
p8092
g2
(g6
S'\xc0\x00\x00\x00'
p8093
tp8094
Rp8095
sVstatement
p8096
g2
(g6
S'\xf1\x07\x00\x00'
p8097
tp8098
Rp8099
sVhotel
p8100
g2
(g6
S')\x04\x00\x00'
p8101
tp8102
Rp8103
sV60
p8104
g2
(g6
S'B\x00\x00\x00'
p8105
tp8106
Rp8107
sVnopurnecus18
p8108
g2
(g6
S'\xb3\x05\x00\x00'
p8109
tp8110
Rp8111
sVking
p8112
g2
(g6
S'\xb7\x04\x00\x00'
p8113
tp8114
Rp8115
sVkind
p8116
g2
(g6
S'\xb4\x04\x00\x00'
p8117
tp8118
Rp8119
sVdouble
p8120
g2
(g6
S'\xa3\x02\x00\x00'
p8121
tp8122
Rp8123
sVrousey
p8124
g2
(g6
S'(\x07\x00\x00'
p8125
tp8126
Rp8127
sVkindle
p8128
g2
(g6
S'\xb5\x04\x00\x00'
p8129
tp8130
Rp8131
sVhhttgechogiveaway
p8132
g2
(g6
S'\x04\x04\x00\x00'
p8133
tp8134
Rp8135
sVoption
p8136
g2
(g6
S'\xdb\x05\x00\x00'
p8137
tp8138
Rp8139
sVlil
p8140
g2
(g6
S'\xf1\x04\x00\x00'
p8141
tp8142
Rp8143
sVscotland
p8144
g2
(g6
S'X\x07\x00\x00'
p8145
tp8146
Rp8147
sVexperienced
p8148
g2
(g6
S'\x05\x03\x00\x00'
p8149
tp8150
Rp8151
sVelectric
p8152
g2
(g6
S'\xcc\x02\x00\x00'
p8153
tp8154
Rp8155
sVquote
p8156
g2
(g6
S'\xb3\x06\x00\x00'
p8157
tp8158
Rp8159
sVsets
p8160
g2
(g6
S'\x7f\x07\x00\x00'
p8161
tp8162
Rp8163
sVreach
p8164
g2
(g6
S'\xbf\x06\x00\x00'
p8165
tp8166
Rp8167
sVreunited
p8168
g2
(g6
S'\x07\x07\x00\x00'
p8169
tp8170
Rp8171
sV75
p8172
g2
(g6
S'F\x00\x00\x00'
p8173
tp8174
Rp8175
sV70
p8176
g2
(g6
S'D\x00\x00\x00'
p8177
tp8178
Rp8179
sVgilt
p8180
g2
(g6
S'\x96\x03\x00\x00'
p8181
tp8182
Rp8183
sVappear
p8184
g2
(g6
S'\x9c\x00\x00\x00'
p8185
tp8186
Rp8187
sVsalary
p8188
g2
(g6
S'9\x07\x00\x00'
p8189
tp8190
Rp8191
sVmobile
p8192
g2
(g6
S'm\x05\x00\x00'
p8193
tp8194
Rp8195
sVclean
p8196
g2
(g6
S'\xba\x01\x00\x00'
p8197
tp8198
Rp8199
sVhyper
p8200
g2
(g6
S':\x04\x00\x00'
p8201
tp8202
Rp8203
sVstores
p8204
g2
(g6
S'\x02\x08\x00\x00'
p8205
tp8206
Rp8207
sVtfw
p8208
g2
(g6
S'r\x08\x00\x00'
p8209
tp8210
Rp8211
sVetsy
p8212
g2
(g6
S'\xf0\x02\x00\x00'
p8213
tp8214
Rp8215
sVbff
p8216
g2
(g6
S'\xfe\x00\x00\x00'
p8217
tp8218
Rp8219
sVpretty
p8220
g2
(g6
S't\x06\x00\x00'
p8221
tp8222
Rp8223
sVhit
p8224
g2
(g6
S'\x12\x04\x00\x00'
p8225
tp8226
Rp8227
sVtcs
p8228
g2
(g6
S'[\x08\x00\x00'
p8229
tp8230
Rp8231
sVfeels
p8232
g2
(g6
S'-\x03\x00\x00'
p8233
tp8234
Rp8235
sVlongest
p8236
g2
(g6
S'\x07\x05\x00\x00'
p8237
tp8238
Rp8239
sVemails
p8240
g2
(g6
S'\xd0\x02\x00\x00'
p8241
tp8242
Rp8243
sVchimney
p8244
g2
(g6
S'\xa6\x01\x00\x00'
p8245
tp8246
Rp8247
sVnumbersync
p8248
g2
(g6
S'\xbf\x05\x00\x00'
p8249
tp8250
Rp8251
sVclocks
p8252
g2
(g6
S'\xc1\x01\x00\x00'
p8253
tp8254
Rp8255
sVart
p8256
g2
(g6
S'\xaf\x00\x00\x00'
p8257
tp8258
Rp8259
sVthrowing
p8260
g2
(g6
S'\x88\x08\x00\x00'
p8261
tp8262
Rp8263
sVarrives
p8264
g2
(g6
S'\xae\x00\x00\x00'
p8265
tp8266
Rp8267
sVculture
p8268
g2
(g6
S')\x02\x00\x00'
p8269
tp8270
Rp8271
sVard
p8272
g2
(g6
S'\xa8\x00\x00\x00'
p8273
tp8274
Rp8275
sVclose
p8276
g2
(g6
S'\xc2\x01\x00\x00'
p8277
tp8278
Rp8279
sVpictures
p8280
g2
(g6
S'8\x06\x00\x00'
p8281
tp8282
Rp8283
sVwon
p8284
g2
(g6
S'o\t\x00\x00'
p8285
tp8286
Rp8287
sVprobably
p8288
g2
(g6
S'\x80\x06\x00\x00'
p8289
tp8290
Rp8291
sVkorea
p8292
g2
(g6
S'\xc2\x04\x00\x00'
p8293
tp8294
Rp8295
sVattention
p8296
g2
(g6
S'\xc1\x00\x00\x00'
p8297
tp8298
Rp8299
sVoutfit
p8300
g2
(g6
S'\xe6\x05\x00\x00'
p8301
tp8302
Rp8303
sVresponse
p8304
g2
(g6
S'\xfb\x06\x00\x00'
p8305
tp8306
Rp8307
sVbibs
p8308
g2
(g6
S'\xff\x00\x00\x00'
p8309
tp8310
Rp8311
sVshared
p8312
g2
(g6
S'\x85\x07\x00\x00'
p8313
tp8314
Rp8315
sVsecrets
p8316
g2
(g6
S'i\x07\x00\x00'
p8317
tp8318
Rp8319
sVbond
p8320
g2
(g6
S'\x14\x01\x00\x00'
p8321
tp8322
Rp8323
sVmickey
p8324
g2
(g6
S'Q\x05\x00\x00'
p8325
tp8326
Rp8327
sVflies
p8328
g2
(g6
S'P\x03\x00\x00'
p8329
tp8330
Rp8331
sVheaded
p8332
g2
(g6
S'\xea\x03\x00\x00'
p8333
tp8334
Rp8335
sVreasons
p8336
g2
(g6
S'\xcb\x06\x00\x00'
p8337
tp8338
Rp8339
sVsweet
p8340
g2
(g6
S'6\x08\x00\x00'
p8341
tp8342
Rp8343
sVpt
p8344
g2
(g6
S'\x94\x06\x00\x00'
p8345
tp8346
Rp8347
sVstrategy
p8348
g2
(g6
S'\n\x08\x00\x00'
p8349
tp8350
Rp8351
sVpc
p8352
g2
(g6
S'\x16\x06\x00\x00'
p8353
tp8354
Rp8355
sVpm
p8356
g2
(g6
S'T\x06\x00\x00'
p8357
tp8358
Rp8359
sVsanders
p8360
g2
(g6
S'@\x07\x00\x00'
p8361
tp8362
Rp8363
sVflight
p8364
g2
(g6
S'Q\x03\x00\x00'
p8365
tp8366
Rp8367
sVghost
p8368
g2
(g6
S'\x8e\x03\x00\x00'
p8369
tp8370
Rp8371
sVtransferring
p8372
g2
(g6
S'\xb8\x08\x00\x00'
p8373
tp8374
Rp8375
sVlives
p8376
g2
(g6
S'\xfc\x04\x00\x00'
p8377
tp8378
Rp8379
sVrocking
p8380
g2
(g6
S'\x1f\x07\x00\x00'
p8381
tp8382
Rp8383
sVlook
p8384
g2
(g6
S'\x08\x05\x00\x00'
p8385
tp8386
Rp8387
sVmatch
p8388
g2
(g6
S'9\x05\x00\x00'
p8389
tp8390
Rp8391
sVfleet
p8392
g2
(g6
S'N\x03\x00\x00'
p8393
tp8394
Rp8395
sVguide
p8396
g2
(g6
S'\xc9\x03\x00\x00'
p8397
tp8398
Rp8399
sVtheres
p8400
g2
(g6
S'z\x08\x00\x00'
p8401
tp8402
Rp8403
sVrip
p8404
g2
(g6
S'\x15\x07\x00\x00'
p8405
tp8406
Rp8407
sVready
p8408
g2
(g6
S'\xc5\x06\x00\x00'
p8409
tp8410
Rp8411
sVhomeactive
p8412
g2
(g6
S'\x1c\x04\x00\x00'
p8413
tp8414
Rp8415
sVrid
p8416
g2
(g6
S'\x0e\x07\x00\x00'
p8417
tp8418
Rp8419
sVyosemite
p8420
g2
(g6
S'\x92\t\x00\x00'
p8421
tp8422
Rp8423
sVshirt
p8424
g2
(g6
S'\x8d\x07\x00\x00'
p8425
tp8426
Rp8427
sVbelong
p8428
g2
(g6
S'\xf8\x00\x00\x00'
p8429
tp8430
Rp8431
sVmillennials
p8432
g2
(g6
S'Y\x05\x00\x00'
p8433
tp8434
Rp8435
sVdaughters
p8436
g2
(g6
S'D\x02\x00\x00'
p8437
tp8438
Rp8439
sVbonus
p8440
g2
(g6
S'\x16\x01\x00\x00'
p8441
tp8442
Rp8443
sVultimate
p8444
g2
(g6
S'\xe6\x08\x00\x00'
p8445
tp8446
Rp8447
sVfriends
p8448
g2
(g6
S't\x03\x00\x00'
p8449
tp8450
Rp8451
sVholidays
p8452
g2
(g6
S'\x19\x04\x00\x00'
p8453
tp8454
Rp8455
sV000
p8456
g2
(g6
S'\x01\x00\x00\x00'
p8457
tp8458
Rp8459
sVlower
p8460
g2
(g6
S'\x18\x05\x00\x00'
p8461
tp8462
Rp8463
sVtry
p8464
g2
(g6
S'\xd2\x08\x00\x00'
p8465
tp8466
Rp8467
sVactivewear
p8468
g2
(g6
S'[\x00\x00\x00'
p8469
tp8470
Rp8471
sVcheer
p8472
g2
(g6
S'\x9a\x01\x00\x00'
p8473
tp8474
Rp8475
sVedge
p8476
g2
(g6
S'\xc9\x02\x00\x00'
p8477
tp8478
Rp8479
sViberia
p8480
g2
(g6
S';\x04\x00\x00'
p8481
tp8482
Rp8483
sVknow
p8484
g2
(g6
S'\xbd\x04\x00\x00'
p8485
tp8486
Rp8487
sVdesk
p8488
g2
(g6
S'f\x02\x00\x00'
p8489
tp8490
Rp8491
sV767
p8492
g2
(g6
S'G\x00\x00\x00'
p8493
tp8494
Rp8495
sVquestions
p8496
g2
(g6
S'\xae\x06\x00\x00'
p8497
tp8498
Rp8499
sVprince
p8500
g2
(g6
S'y\x06\x00\x00'
p8501
tp8502
Rp8503
sVtables
p8504
g2
(g6
S'@\x08\x00\x00'
p8505
tp8506
Rp8507
sVretirement
p8508
g2
(g6
S'\x02\x07\x00\x00'
p8509
tp8510
Rp8511
sVtablet
p8512
g2
(g6
S'A\x08\x00\x00'
p8513
tp8514
Rp8515
sVworkers
p8516
g2
(g6
S'v\t\x00\x00'
p8517
tp8518
Rp8519
sVexercising
p8520
g2
(g6
S'\x00\x03\x00\x00'
p8521
tp8522
Rp8523
sVexclusively
p8524
g2
(g6
S'\xfc\x02\x00\x00'
p8525
tp8526
Rp8527
sVbuild
p8528
g2
(g6
S'@\x01\x00\x00'
p8529
tp8530
Rp8531
sVassociations
p8532
g2
(g6
S'\xbb\x00\x00\x00'
p8533
tp8534
Rp8535
sVcustomers
p8536
g2
(g6
S'.\x02\x00\x00'
p8537
tp8538
Rp8539
sVunlimited
p8540
g2
(g6
S'\xee\x08\x00\x00'
p8541
tp8542
Rp8543
sVfinding
p8544
g2
(g6
S'@\x03\x00\x00'
p8545
tp8546
Rp8547
sVgame
p8548
g2
(g6
S'\x7f\x03\x00\x00'
p8549
tp8550
Rp8551
sVsuccess
p8552
g2
(g6
S'\x1c\x08\x00\x00'
p8553
tp8554
Rp8555
sVglitters
p8556
g2
(g6
S'\xa0\x03\x00\x00'
p8557
tp8558
Rp8559
sVshapes
p8560
g2
(g6
S'\x83\x07\x00\x00'
p8561
tp8562
Rp8563
sVcollect
p8564
g2
(g6
S'\xd5\x01\x00\x00'
p8565
tp8566
Rp8567
sVarthur
p8568
g2
(g6
S'\xb0\x00\x00\x00'
p8569
tp8570
Rp8571
sVparade
p8572
g2
(g6
S'\x01\x06\x00\x00'
p8573
tp8574
Rp8575
sVfathers
p8576
g2
(g6
S'\x1e\x03\x00\x00'
p8577
tp8578
Rp8579
sVadded
p8580
g2
(g6
S'a\x00\x00\x00'
p8581
tp8582
Rp8583
sVcandy
p8584
g2
(g6
S'_\x01\x00\x00'
p8585
tp8586
Rp8587
sVwonderland
p8588
g2
(g6
S'q\t\x00\x00'
p8589
tp8590
Rp8591
sVluxe
p8592
g2
(g6
S'\x1e\x05\x00\x00'
p8593
tp8594
Rp8595
sVdelivered
p8596
g2
(g6
S'Y\x02\x00\x00'
p8597
tp8598
Rp8599
sVpros
p8600
g2
(g6
S'\x8d\x06\x00\x00'
p8601
tp8602
Rp8603
sVeating
p8604
g2
(g6
S'\xc6\x02\x00\x00'
p8605
tp8606
Rp8607
sVstep
p8608
g2
(g6
S'\xf7\x07\x00\x00'
p8609
tp8610
Rp8611
sVshine
p8612
g2
(g6
S'\x89\x07\x00\x00'
p8613
tp8614
Rp8615
sVcautious
p8616
g2
(g6
S'~\x01\x00\x00'
p8617
tp8618
Rp8619
sVwouldnt
p8620
g2
(g6
S'\x81\t\x00\x00'
p8621
tp8622
Rp8623
sVplaza
p8624
g2
(g6
S'O\x06\x00\x00'
p8625
tp8626
Rp8627
sVexperiences
p8628
g2
(g6
S'\x06\x03\x00\x00'
p8629
tp8630
Rp8631
sVwanna
p8632
g2
(g6
S'*\t\x00\x00'
p8633
tp8634
Rp8635
sVblock
p8636
g2
(g6
S'\x0f\x01\x00\x00'
p8637
tp8638
Rp8639
sVrolls
p8640
g2
(g6
S'!\x07\x00\x00'
p8641
tp8642
Rp8643
sVcomputer
p8644
g2
(g6
S'\xec\x01\x00\x00'
p8645
tp8646
Rp8647
sVlong
p8648
g2
(g6
S'\x05\x05\x00\x00'
p8649
tp8650
Rp8651
sVtwitter
p8652
g2
(g6
S'\xe2\x08\x00\x00'
p8653
tp8654
Rp8655
sVservicemembers
p8656
g2
(g6
S'{\x07\x00\x00'
p8657
tp8658
Rp8659
sVtasting
p8660
g2
(g6
S'V\x08\x00\x00'
p8661
tp8662
Rp8663
sVreed
p8664
g2
(g6
S'\xd7\x06\x00\x00'
p8665
tp8666
Rp8667
sVinfo
p8668
g2
(g6
S'W\x04\x00\x00'
p8669
tp8670
Rp8671
sVskull
p8672
g2
(g6
S'\xaa\x07\x00\x00'
p8673
tp8674
Rp8675
sVwindows
p8676
g2
(g6
S']\t\x00\x00'
p8677
tp8678
Rp8679
sVfdx
p8680
g2
(g6
S'"\x03\x00\x00'
p8681
tp8682
Rp8683
sVuber
p8684
g2
(g6
S'\xe5\x08\x00\x00'
p8685
tp8686
Rp8687
sVfreak
p8688
g2
(g6
S'k\x03\x00\x00'
p8689
tp8690
Rp8691
sVadults
p8692
g2
(g6
S'h\x00\x00\x00'
p8693
tp8694
Rp8695
sVdoesn
p8696
g2
(g6
S'\x94\x02\x00\x00'
p8697
tp8698
Rp8699
sVmerry
p8700
g2
(g6
S'K\x05\x00\x00'
p8701
tp8702
Rp8703
sVwarning
p8704
g2
(g6
S'0\t\x00\x00'
p8705
tp8706
Rp8707
sVcotton
p8708
g2
(g6
S'\x06\x02\x00\x00'
p8709
tp8710
Rp8711
sVancestors
p8712
g2
(g6
S'\x8c\x00\x00\x00'
p8713
tp8714
Rp8715
sVrains
p8716
g2
(g6
S'\xb6\x06\x00\x00'
p8717
tp8718
Rp8719
sVnat
p8720
g2
(g6
S'\x97\x05\x00\x00'
p8721
tp8722
Rp8723
sVnice
p8724
g2
(g6
S'\xaa\x05\x00\x00'
p8725
tp8726
Rp8727
sVusers
p8728
g2
(g6
S'\xfe\x08\x00\x00'
p8729
tp8730
Rp8731
sVunderstatement
p8732
g2
(g6
S'\xe9\x08\x00\x00'
p8733
tp8734
Rp8735
sVhelping
p8736
g2
(g6
S'\xfc\x03\x00\x00'
p8737
tp8738
Rp8739
sVmeaning
p8740
g2
(g6
S'A\x05\x00\x00'
p8741
tp8742
Rp8743
sVdelta
p8744
g2
(g6
S'^\x02\x00\x00'
p8745
tp8746
Rp8747
sVincl
p8748
g2
(g6
S'O\x04\x00\x00'
p8749
tp8750
Rp8751
sVdvr
p8752
g2
(g6
S'\xb9\x02\x00\x00'
p8753
tp8754
Rp8755
sVhooky
p8756
g2
(g6
S'#\x04\x00\x00'
p8757
tp8758
Rp8759
sVgc
p8760
g2
(g6
S'\x85\x03\x00\x00'
p8761
tp8762
Rp8763
sVhhttgs
p8764
g2
(g6
S'\x07\x04\x00\x00'
p8765
tp8766
Rp8767
sVcroix
p8768
g2
(g6
S'\x1f\x02\x00\x00'
p8769
tp8770
Rp8771
sVkate
p8772
g2
(g6
S'\xa1\x04\x00\x00'
p8773
tp8774
Rp8775
sVissues
p8776
g2
(g6
S'}\x04\x00\x00'
p8777
tp8778
Rp8779
sVitll
p8780
g2
(g6
S'\x81\x04\x00\x00'
p8781
tp8782
Rp8783
sVsuits
p8784
g2
(g6
S'\x1f\x08\x00\x00'
p8785
tp8786
Rp8787
sVlanguages
p8788
g2
(g6
S'\xcb\x04\x00\x00'
p8789
tp8790
Rp8791
sVdoes
p8792
g2
(g6
S'\x93\x02\x00\x00'
p8793
tp8794
Rp8795
sVdetails
p8796
g2
(g6
S'i\x02\x00\x00'
p8797
tp8798
Rp8799
sVinclude
p8800
g2
(g6
S'P\x04\x00\x00'
p8801
tp8802
Rp8803
sVfriendly
p8804
g2
(g6
S's\x03\x00\x00'
p8805
tp8806
Rp8807
sV711
p8808
g2
(g6
S'E\x00\x00\x00'
p8809
tp8810
Rp8811
sVfacebook
p8812
g2
(g6
S'\x0f\x03\x00\x00'
p8813
tp8814
Rp8815
sVdrinking
p8816
g2
(g6
S'\xad\x02\x00\x00'
p8817
tp8818
Rp8819
sVpaternity
p8820
g2
(g6
S'\x0f\x06\x00\x00'
p8821
tp8822
Rp8823
sVbutton
p8824
g2
(g6
S'J\x01\x00\x00'
p8825
tp8826
Rp8827
sVmichael
p8828
g2
(g6
S'P\x05\x00\x00'
p8829
tp8830
Rp8831
sVdeals
p8832
g2
(g6
S'M\x02\x00\x00'
p8833
tp8834
Rp8835
sVgoodies
p8836
g2
(g6
S'\xad\x03\x00\x00'
p8837
tp8838
Rp8839
sVboots
p8840
g2
(g6
S'\x1a\x01\x00\x00'
p8841
tp8842
Rp8843
sVjump
p8844
g2
(g6
S'\x9d\x04\x00\x00'
p8845
tp8846
Rp8847
sVbooth
p8848
g2
(g6
S'\x19\x01\x00\x00'
p8849
tp8850
Rp8851
sVdownload
p8852
g2
(g6
S'\xa4\x02\x00\x00'
p8853
tp8854
Rp8855
sVacid
p8856
g2
(g6
S'V\x00\x00\x00'
p8857
tp8858
Rp8859
sVhonors
p8860
g2
(g6
S'!\x04\x00\x00'
p8861
tp8862
Rp8863
sVsouth
p8864
g2
(g6
S'\xce\x07\x00\x00'
p8865
tp8866
Rp8867
sVwaiting
p8868
g2
(g6
S'#\t\x00\x00'
p8869
tp8870
Rp8871
sVchose
p8872
g2
(g6
S'\xaf\x01\x00\x00'
p8873
tp8874
Rp8875
sVcommercial
p8876
g2
(g6
S'\xe3\x01\x00\x00'
p8877
tp8878
Rp8879
sVexplore
p8880
g2
(g6
S'\x08\x03\x00\x00'
p8881
tp8882
Rp8883
sVpresale
p8884
g2
(g6
S'p\x06\x00\x00'
p8885
tp8886
Rp8887
sVsuggests
p8888
g2
(g6
S'\x1d\x08\x00\x00'
p8889
tp8890
Rp8891
sVproducts
p8892
g2
(g6
S'\x86\x06\x00\x00'
p8893
tp8894
Rp8895
sVheart
p8896
g2
(g6
S'\xf2\x03\x00\x00'
p8897
tp8898
Rp8899
sVwin
p8900
g2
(g6
S'[\t\x00\x00'
p8901
tp8902
Rp8903
sVapp
p8904
g2
(g6
S'\x9b\x00\x00\x00'
p8905
tp8906
Rp8907
sVmanage
p8908
g2
(g6
S'*\x05\x00\x00'
p8909
tp8910
Rp8911
sVduck
p8912
g2
(g6
S'\xb6\x02\x00\x00'
p8913
tp8914
Rp8915
sVapply
p8916
g2
(g6
S'\xa2\x00\x00\x00'
p8917
tp8918
Rp8919
sVcloud
p8920
g2
(g6
S'\xc8\x01\x00\x00'
p8921
tp8922
Rp8923
sVuse
p8924
g2
(g6
S'\xfc\x08\x00\x00'
p8925
tp8926
Rp8927
sVdoodle
p8928
g2
(g6
S'\x9e\x02\x00\x00'
p8929
tp8930
Rp8931
sVcamera
p8932
g2
(g6
S'[\x01\x00\x00'
p8933
tp8934
Rp8935
sVvehicle
p8936
g2
(g6
S'\x07\t\x00\x00'
p8937
tp8938
Rp8939
sVstage
p8940
g2
(g6
S'\xe4\x07\x00\x00'
p8941
tp8942
Rp8943
sVsort
p8944
g2
(g6
S'\xcb\x07\x00\x00'
p8945
tp8946
Rp8947
sVstarted
p8948
g2
(g6
S'\xed\x07\x00\x00'
p8949
tp8950
Rp8951
sVimpress
p8952
g2
(g6
S'J\x04\x00\x00'
p8953
tp8954
Rp8955
sVbcrf
p8956
g2
(g6
S'\xe8\x00\x00\x00'
p8957
tp8958
Rp8959
sVactual
p8960
g2
(g6
S'^\x00\x00\x00'
p8961
tp8962
Rp8963
sVride
p8964
g2
(g6
S'\x0f\x07\x00\x00'
p8965
tp8966
Rp8967
sVcrossed
p8968
g2
(g6
S'!\x02\x00\x00'
p8969
tp8970
Rp8971
sVfreedom
p8972
g2
(g6
S'm\x03\x00\x00'
p8973
tp8974
Rp8975
sVmeet
p8976
g2
(g6
S'C\x05\x00\x00'
p8977
tp8978
Rp8979
sVproof
p8980
g2
(g6
S'\x8c\x06\x00\x00'
p8981
tp8982
Rp8983
sVcontrol
p8984
g2
(g6
S'\xf7\x01\x00\x00'
p8985
tp8986
Rp8987
sVindulgence
p8988
g2
(g6
S'T\x04\x00\x00'
p8989
tp8990
Rp8991
sVtax
p8992
g2
(g6
S'Y\x08\x00\x00'
p8993
tp8994
Rp8995
sVtag
p8996
g2
(g6
S'D\x08\x00\x00'
p8997
tp8998
Rp8999
sVunited
p9000
g2
(g6
S'\xec\x08\x00\x00'
p9001
tp9002
Rp9003
sVbrian
p9004
g2
(g6
S'/\x01\x00\x00'
p9005
tp9006
Rp9007
sVfidgeting
p9008
g2
(g6
S'6\x03\x00\x00'
p9009
tp9010
Rp9011
sVinstead
p9012
g2
(g6
S'd\x04\x00\x00'
p9013
tp9014
Rp9015
sVstars
p9016
g2
(g6
S'\xeb\x07\x00\x00'
p9017
tp9018
Rp9019
sVintroduced
p9020
g2
(g6
S'j\x04\x00\x00'
p9021
tp9022
Rp9023
sVlight
p9024
g2
(g6
S'\xec\x04\x00\x00'
p9025
tp9026
Rp9027
sVdiscussion
p9028
g2
(g6
S'\x84\x02\x00\x00'
p9029
tp9030
Rp9031
sVbreast
p9032
g2
(g6
S'*\x01\x00\x00'
p9033
tp9034
Rp9035
sVcovet
p9036
g2
(g6
S'\x13\x02\x00\x00'
p9037
tp9038
Rp9039
sVincluding
p9040
g2
(g6
S'Q\x04\x00\x00'
p9041
tp9042
Rp9043
sVcostume
p9044
g2
(g6
S'\x04\x02\x00\x00'
p9045
tp9046
Rp9047
sVcruise
p9048
g2
(g6
S'$\x02\x00\x00'
p9049
tp9050
Rp9051
sVlooky
p9052
g2
(g6
S'\x0c\x05\x00\x00'
p9053
tp9054
Rp9055
sVlounge
p9056
g2
(g6
S'\x12\x05\x00\x00'
p9057
tp9058
Rp9059
sVchoose
p9060
g2
(g6
S'\xad\x01\x00\x00'
p9061
tp9062
Rp9063
sVcovered
p9064
g2
(g6
S'\x12\x02\x00\x00'
p9065
tp9066
Rp9067
sVholiday
p9068
g2
(g6
S'\x18\x04\x00\x00'
p9069
tp9070
Rp9071
sVflex
p9072
g2
(g6
S'O\x03\x00\x00'
p9073
tp9074
Rp9075
sVpractice
p9076
g2
(g6
S'g\x06\x00\x00'
p9077
tp9078
Rp9079
sVstout
p9080
g2
(g6
S'\x05\x08\x00\x00'
p9081
tp9082
Rp9083
sVworlds
p9084
g2
(g6
S'{\t\x00\x00'
p9085
tp9086
Rp9087
sVweather
p9088
g2
(g6
S'A\t\x00\x00'
p9089
tp9090
Rp9091
sVnonstop
p9092
g2
(g6
S'\xb0\x05\x00\x00'
p9093
tp9094
Rp9095
sVpromise
p9096
g2
(g6
S'\x8a\x06\x00\x00'
p9097
tp9098
Rp9099
sVbluetooth
p9100
g2
(g6
S'\x11\x01\x00\x00'
p9101
tp9102
Rp9103
sV80
p9104
g2
(g6
S'H\x00\x00\x00'
p9105
tp9106
Rp9107
sVebooks
p9108
g2
(g6
S'\xc7\x02\x00\x00'
p9109
tp9110
Rp9111
sVcategory
p9112
g2
(g6
S'z\x01\x00\x00'
p9113
tp9114
Rp9115
sVoccupied
p9116
g2
(g6
S'\xc7\x05\x00\x00'
p9117
tp9118
Rp9119
sVturducken
p9120
g2
(g6
S'\xd8\x08\x00\x00'
p9121
tp9122
Rp9123
sVeco
p9124
g2
(g6
S'\xc8\x02\x00\x00'
p9125
tp9126
Rp9127
sVreacts
p9128
g2
(g6
S'\xc1\x06\x00\x00'
p9129
tp9130
Rp9131
sVactivity
p9132
g2
(g6
S']\x00\x00\x00'
p9133
tp9134
Rp9135
sVorganic
p9136
g2
(g6
S'\xe0\x05\x00\x00'
p9137
tp9138
Rp9139
sVflorida
p9140
g2
(g6
S'T\x03\x00\x00'
p9141
tp9142
Rp9143
sVmac
p9144
g2
(g6
S' \x05\x00\x00'
p9145
tp9146
Rp9147
sVtimer
p9148
g2
(g6
S'\x91\x08\x00\x00'
p9149
tp9150
Rp9151
sVtimes
p9152
g2
(g6
S'\x92\x08\x00\x00'
p9153
tp9154
Rp9155
sV4th
p9156
g2
(g6
S'=\x00\x00\x00'
p9157
tp9158
Rp9159
sVtransfer
p9160
g2
(g6
S'\xb7\x08\x00\x00'
p9161
tp9162
Rp9163
sVpowerful
p9164
g2
(g6
S'e\x06\x00\x00'
p9165
tp9166
Rp9167
sVdestinations
p9168
g2
(g6
S'g\x02\x00\x00'
p9169
tp9170
Rp9171
sVbears
p9172
g2
(g6
S'\xec\x00\x00\x00'
p9173
tp9174
Rp9175
sVdata
p9176
g2
(g6
S'@\x02\x00\x00'
p9177
tp9178
Rp9179
sVperfectly
p9180
g2
(g6
S' \x06\x00\x00'
p9181
tp9182
Rp9183
sVstartup
p9184
g2
(g6
S'\xef\x07\x00\x00'
p9185
tp9186
Rp9187
sVlists
p9188
g2
(g6
S'\xf9\x04\x00\x00'
p9189
tp9190
Rp9191
sVjuly
p9192
g2
(g6
S'\x9c\x04\x00\x00'
p9193
tp9194
Rp9195
sVbadlands
p9196
g2
(g6
S'\xd6\x00\x00\x00'
p9197
tp9198
Rp9199
sVbed
p9200
g2
(g6
S'\xf1\x00\x00\x00'
p9201
tp9202
Rp9203
sV150m
p9204
g2
(g6
S'\x10\x00\x00\x00'
p9205
tp9206
Rp9207
sVmoto
p9208
g2
(g6
S'\x81\x05\x00\x00'
p9209
tp9210
Rp9211
sVdrunk
p9212
g2
(g6
S'\xb5\x02\x00\x00'
p9213
tp9214
Rp9215
sVclip
p9216
g2
(g6
S'\xbf\x01\x00\x00'
p9217
tp9218
Rp9219
sVrobot
p9220
g2
(g6
S'\x1e\x07\x00\x00'
p9221
tp9222
Rp9223
sVfaux
p9224
g2
(g6
S'\x1f\x03\x00\x00'
p9225
tp9226
Rp9227
sVlinked
p9228
g2
(g6
S'\xf5\x04\x00\x00'
p9229
tp9230
Rp9231
sVafraid
p9232
g2
(g6
S'q\x00\x00\x00'
p9233
tp9234
Rp9235
sVable
p9236
g2
(g6
S'L\x00\x00\x00'
p9237
tp9238
Rp9239
sVpurchasing
p9240
g2
(g6
S'\x9f\x06\x00\x00'
p9241
tp9242
Rp9243
sVmartha
p9244
g2
(g6
S'5\x05\x00\x00'
p9245
tp9246
Rp9247
sVconnected
p9248
g2
(g6
S'\xf2\x01\x00\x00'
p9249
tp9250
Rp9251
sVhearthstone
p9252
g2
(g6
S'\xf4\x03\x00\x00'
p9253
tp9254
Rp9255
sVfuture
p9256
g2
(g6
S'|\x03\x00\x00'
p9257
tp9258
Rp9259
sVclass
p9260
g2
(g6
S'\xb7\x01\x00\x00'
p9261
tp9262
Rp9263
sVcellphone
p9264
g2
(g6
S'\x84\x01\x00\x00'
p9265
tp9266
Rp9267
sVlooked
p9268
g2
(g6
S'\t\x05\x00\x00'
p9269
tp9270
Rp9271
sVnailed
p9272
g2
(g6
S'\x94\x05\x00\x00'
p9273
tp9274
Rp9275
sVgain
p9276
g2
(g6
S'}\x03\x00\x00'
p9277
tp9278
Rp9279
sVimpression
p9280
g2
(g6
S'K\x04\x00\x00'
p9281
tp9282
Rp9283
sVqualms
p9284
g2
(g6
S'\xa9\x06\x00\x00'
p9285
tp9286
Rp9287
sVplanning
p9288
g2
(g6
S'F\x06\x00\x00'
p9289
tp9290
Rp9291
sVtelling
p9292
g2
(g6
S'g\x08\x00\x00'
p9293
tp9294
Rp9295
sVdarkest
p9296
g2
(g6
S'>\x02\x00\x00'
p9297
tp9298
Rp9299
sVq7
p9300
g2
(g6
S'\xa7\x06\x00\x00'
p9301
tp9302
Rp9303
sVq6
p9304
g2
(g6
S'\xa6\x06\x00\x00'
p9305
tp9306
Rp9307
sVwinner
p9308
g2
(g6
S'_\t\x00\x00'
p9309
tp9310
Rp9311
sVbrighten
p9312
g2
(g6
S'2\x01\x00\x00'
p9313
tp9314
Rp9315
sVbrighter
p9316
g2
(g6
S'3\x01\x00\x00'
p9317
tp9318
Rp9319
sVcube
p9320
g2
(g6
S'(\x02\x00\x00'
p9321
tp9322
Rp9323
sVwatching
p9324
g2
(g6
S'8\t\x00\x00'
p9325
tp9326
Rp9327
sVendless
p9328
g2
(g6
S'\xda\x02\x00\x00'
p9329
tp9330
Rp9331
sVamex
p9332
g2
(g6
S'\x8b\x00\x00\x00'
p9333
tp9334
Rp9335
sVmarried
p9336
g2
(g6
S'2\x05\x00\x00'
p9337
tp9338
Rp9339
sVtuned
p9340
g2
(g6
S'\xd6\x08\x00\x00'
p9341
tp9342
Rp9343
sVqa
p9344
g2
(g6
S'\xa8\x06\x00\x00'
p9345
tp9346
Rp9347
sVwish
p9348
g2
(g6
S'e\t\x00\x00'
p9349
tp9350
Rp9351
sVgrab
p9352
g2
(g6
S'\xb5\x03\x00\x00'
p9353
tp9354
Rp9355
sVview
p9356
g2
(g6
S'\x0f\t\x00\x00'
p9357
tp9358
Rp9359
sVavailable
p9360
g2
(g6
S'\xc7\x00\x00\x00'
p9361
tp9362
Rp9363
sVhhttgedge
p9364
g2
(g6
S'\x05\x04\x00\x00'
p9365
tp9366
Rp9367
sVcloser
p9368
g2
(g6
S'\xc5\x01\x00\x00'
p9369
tp9370
Rp9371
sVroadsjust
p9372
g2
(g6
S'\x1c\x07\x00\x00'
p9373
tp9374
Rp9375
sVputs
p9376
g2
(g6
S'\xa2\x06\x00\x00'
p9377
tp9378
Rp9379
sVnecessity
p9380
g2
(g6
S'\x9d\x05\x00\x00'
p9381
tp9382
Rp9383
sVclosed
p9384
g2
(g6
S'\xc3\x01\x00\x00'
p9385
tp9386
Rp9387
sVopening
p9388
g2
(g6
S'\xd9\x05\x00\x00'
p9389
tp9390
Rp9391
sVkicking
p9392
g2
(g6
S'\xad\x04\x00\x00'
p9393
tp9394
Rp9395
sVjob
p9396
g2
(g6
S'\x91\x04\x00\x00'
p9397
tp9398
Rp9399
sVjoe
p9400
g2
(g6
S'\x92\x04\x00\x00'
p9401
tp9402
Rp9403
sVkey
p9404
g2
(g6
S'\xa8\x04\x00\x00'
p9405
tp9406
Rp9407
sVcybersale
p9408
g2
(g6
S'4\x02\x00\x00'
p9409
tp9410
Rp9411
sVgroup
p9412
g2
(g6
S'\xc4\x03\x00\x00'
p9413
tp9414
Rp9415
sVapril
p9416
g2
(g6
S'\xa6\x00\x00\x00'
p9417
tp9418
Rp9419
sVgrain
p9420
g2
(g6
S'\xb7\x03\x00\x00'
p9421
tp9422
Rp9423
sVwall
p9424
g2
(g6
S'(\t\x00\x00'
p9425
tp9426
Rp9427
sVtuesday
p9428
g2
(g6
S'\xd4\x08\x00\x00'
p9429
tp9430
Rp9431
sVdell
p9432
g2
(g6
S']\x02\x00\x00'
p9433
tp9434
Rp9435
sVwalk
p9436
g2
(g6
S'%\t\x00\x00'
p9437
tp9438
Rp9439
sVpackaging
p9440
g2
(g6
S'\xf3\x05\x00\x00'
p9441
tp9442
Rp9443
sVrespect
p9444
g2
(g6
S'\xfa\x06\x00\x00'
p9445
tp9446
Rp9447
sVhunters
p9448
g2
(g6
S'7\x04\x00\x00'
p9449
tp9450
Rp9451
sVquiz
p9452
g2
(g6
S'\xb2\x06\x00\x00'
p9453
tp9454
Rp9455
sVtreat
p9456
g2
(g6
S'\xbe\x08\x00\x00'
p9457
tp9458
Rp9459
sVkhali
p9460
g2
(g6
S'\xaa\x04\x00\x00'
p9461
tp9462
Rp9463
sVpic
p9464
g2
(g6
S'2\x06\x00\x00'
p9465
tp9466
Rp9467
sVreleasing
p9468
g2
(g6
S'\xe3\x06\x00\x00'
p9469
tp9470
Rp9471
sVtweets
p9472
g2
(g6
S'\xe0\x08\x00\x00'
p9473
tp9474
Rp9475
sVbrunch
p9476
g2
(g6
S'>\x01\x00\x00'
p9477
tp9478
Rp9479
sVnovel
p9480
g2
(g6
S'\xbb\x05\x00\x00'
p9481
tp9482
Rp9483
sVneed
p9484
g2
(g6
S'\x9e\x05\x00\x00'
p9485
tp9486
Rp9487
sVharder
p9488
g2
(g6
S'\xde\x03\x00\x00'
p9489
tp9490
Rp9491
sVsurface
p9492
g2
(g6
S'-\x08\x00\x00'
p9493
tp9494
Rp9495
sVcapture
p9496
g2
(g6
S'd\x01\x00\x00'
p9497
tp9498
Rp9499
sVhocus
p9500
g2
(g6
S'\x13\x04\x00\x00'
p9501
tp9502
Rp9503
sVvintage
p9504
g2
(g6
S'\x11\t\x00\x00'
p9505
tp9506
Rp9507
sVbegan
p9508
g2
(g6
S'\xf3\x00\x00\x00'
p9509
tp9510
Rp9511
sVcross
p9512
g2
(g6
S' \x02\x00\x00'
p9513
tp9514
Rp9515
sVmember
p9516
g2
(g6
S'D\x05\x00\x00'
p9517
tp9518
Rp9519
sVparty
p9520
g2
(g6
S'\t\x06\x00\x00'
p9521
tp9522
Rp9523
sVpremiere
p9524
g2
(g6
S'j\x06\x00\x00'
p9525
tp9526
Rp9527
sVstudent
p9528
g2
(g6
S'\x13\x08\x00\x00'
p9529
tp9530
Rp9531
sVspree
p9532
g2
(g6
S'\xe1\x07\x00\x00'
p9533
tp9534
Rp9535
sVnation
p9536
g2
(g6
S'\x98\x05\x00\x00'
p9537
tp9538
Rp9539
sVingredients
p9540
g2
(g6
S'Y\x04\x00\x00'
p9541
tp9542
Rp9543
sVfighting
p9544
g2
(g6
S'8\x03\x00\x00'
p9545
tp9546
Rp9547
sVfinds
p9548
g2
(g6
S'A\x03\x00\x00'
p9549
tp9550
Rp9551
sVshrimp
p9552
g2
(g6
S'\x99\x07\x00\x00'
p9553
tp9554
Rp9555
sVphotosussernm
p9556
g2
(g6
S'1\x06\x00\x00'
p9557
tp9558
Rp9559
sVaccurate
p9560
g2
(g6
S'U\x00\x00\x00'
p9561
tp9562
Rp9563
sVdose
p9564
g2
(g6
S'\xa2\x02\x00\x00'
p9565
tp9566
Rp9567
sV40
p9568
g2
(g6
S'9\x00\x00\x00'
p9569
tp9570
Rp9571
sVlauren
p9572
g2
(g6
S'\xd7\x04\x00\x00'
p9573
tp9574
Rp9575
sVhappiness
p9576
g2
(g6
S'\xdb\x03\x00\x00'
p9577
tp9578
Rp9579
sVbrad
p9580
g2
(g6
S'!\x01\x00\x00'
p9581
tp9582
Rp9583
sVbattery
p9584
g2
(g6
S'\xe4\x00\x00\x00'
p9585
tp9586
Rp9587
sVusage
p9588
g2
(g6
S'\xfb\x08\x00\x00'
p9589
tp9590
Rp9591
sVkick
p9592
g2
(g6
S'\xab\x04\x00\x00'
p9593
tp9594
Rp9595
sVutah
p9596
g2
(g6
S'\x02\t\x00\x00'
p9597
tp9598
Rp9599
sVknot
p9600
g2
(g6
S'\xbc\x04\x00\x00'
p9601
tp9602
Rp9603
sVsizes
p9604
g2
(g6
S'\xa4\x07\x00\x00'
p9605
tp9606
Rp9607
sVmiami
p9608
g2
(g6
S'O\x05\x00\x00'
p9609
tp9610
Rp9611
sVbacklash
p9612
g2
(g6
S'\xd4\x00\x00\x00'
p9613
tp9614
Rp9615
sVlose
p9616
g2
(g6
S'\x0e\x05\x00\x00'
p9617
tp9618
Rp9619
sVstarred
p9620
g2
(g6
S'\xea\x07\x00\x00'
p9621
tp9622
Rp9623
sVrefugees
p9624
g2
(g6
S'\xd9\x06\x00\x00'
p9625
tp9626
Rp9627
sVpage
p9628
g2
(g6
S'\xf5\x05\x00\x00'
p9629
tp9630
Rp9631
sVupgrades
p9632
g2
(g6
S'\xf7\x08\x00\x00'
p9633
tp9634
Rp9635
sVshes
p9636
g2
(g6
S'\x88\x07\x00\x00'
p9637
tp9638
Rp9639
sVhome
p9640
g2
(g6
S'\x1b\x04\x00\x00'
p9641
tp9642
Rp9643
sVpeter
p9644
g2
(g6
S'*\x06\x00\x00'
p9645
tp9646
Rp9647
sVleaf
p9648
g2
(g6
S'\xdc\x04\x00\x00'
p9649
tp9650
Rp9651
sVlead
p9652
g2
(g6
S'\xdb\x04\x00\x00'
p9653
tp9654
Rp9655
sVdenali
p9656
g2
(g6
S'_\x02\x00\x00'
p9657
tp9658
Rp9659
sVleap
p9660
g2
(g6
S'\xdd\x04\x00\x00'
p9661
tp9662
Rp9663
sVsweepstakes
p9664
g2
(g6
S'5\x08\x00\x00'
p9665
tp9666
Rp9667
sVmultiple
p9668
g2
(g6
S'\x8c\x05\x00\x00'
p9669
tp9670
Rp9671
sV98c
p9672
g2
(g6
S'J\x00\x00\x00'
p9673
tp9674
Rp9675
sVrare
p9676
g2
(g6
S'\xbb\x06\x00\x00'
p9677
tp9678
Rp9679
sVgetting
p9680
g2
(g6
S'\x8d\x03\x00\x00'
p9681
tp9682
Rp9683
sVuniverse
p9684
g2
(g6
S'\xed\x08\x00\x00'
p9685
tp9686
Rp9687
sVshipping
p9688
g2
(g6
S'\x8c\x07\x00\x00'
p9689
tp9690
Rp9691
sVperks
p9692
g2
(g6
S'$\x06\x00\x00'
p9693
tp9694
Rp9695
sVtongue
p9696
g2
(g6
S'\xa2\x08\x00\x00'
p9697
tp9698
Rp9699
sVwarranty
p9700
g2
(g6
S'1\t\x00\x00'
p9701
tp9702
Rp9703
sVwashington
p9704
g2
(g6
S'4\t\x00\x00'
p9705
tp9706
Rp9707
sVcocoa
p9708
g2
(g6
S'\xd0\x01\x00\x00'
p9709
tp9710
Rp9711
sVartists
p9712
g2
(g6
S'\xb3\x00\x00\x00'
p9713
tp9714
Rp9715
sVwhos
p9716
g2
(g6
S'W\t\x00\x00'
p9717
tp9718
Rp9719
sVpostal
p9720
g2
(g6
S'_\x06\x00\x00'
p9721
tp9722
Rp9723
sVappt
p9724
g2
(g6
S'\xa5\x00\x00\x00'
p9725
tp9726
Rp9727
sVapps
p9728
g2
(g6
S'\xa4\x00\x00\x00'
p9729
tp9730
Rp9731
sVinner
p9732
g2
(g6
S'[\x04\x00\x00'
p9733
tp9734
Rp9735
sVnorth
p9736
g2
(g6
S'\xb6\x05\x00\x00'
p9737
tp9738
Rp9739
sVunwrap
p9740
g2
(g6
S'\xf2\x08\x00\x00'
p9741
tp9742
Rp9743
sVhhttghhttg
p9744
g2
(g6
S'\x06\x04\x00\x00'
p9745
tp9746
Rp9747
sVhi
p9748
g2
(g6
S'\t\x04\x00\x00'
p9749
tp9750
Rp9751
sVgoals
p9752
g2
(g6
S'\xa4\x03\x00\x00'
p9753
tp9754
Rp9755
sVeat
p9756
g2
(g6
S'\xc5\x02\x00\x00'
p9757
tp9758
Rp9759
sVhd
p9760
g2
(g6
S'\xe7\x03\x00\x00'
p9761
tp9762
Rp9763
sVhosting
p9764
g2
(g6
S"'\x04\x00\x00"
p9765
tp9766
Rp9767
sVrecord
p9768
g2
(g6
S'\xd2\x06\x00\x00'
p9769
tp9770
Rp9771
sVstories
p9772
g2
(g6
S'\x03\x08\x00\x00'
p9773
tp9774
Rp9775
sVdmv
p9776
g2
(g6
S'\x8f\x02\x00\x00'
p9777
tp9778
Rp9779
sVpumped
p9780
g2
(g6
S'\x99\x06\x00\x00'
p9781
tp9782
Rp9783
sVcake
p9784
g2
(g6
S'T\x01\x00\x00'
p9785
tp9786
Rp9787
sVpiece
p9788
g2
(g6
S'9\x06\x00\x00'
p9789
tp9790
Rp9791
sVdisplay
p9792
g2
(g6
S'\x88\x02\x00\x00'
p9793
tp9794
Rp9795
sVbeats
p9796
g2
(g6
S'\xee\x00\x00\x00'
p9797
tp9798
Rp9799
sVgoodness
p9800
g2
(g6
S'\xae\x03\x00\x00'
p9801
tp9802
Rp9803
sVcontest
p9804
g2
(g6
S'\xf5\x01\x00\x00'
p9805
tp9806
Rp9807
sVpacks
p9808
g2
(g6
S'\xf4\x05\x00\x00'
p9809
tp9810
Rp9811
sVbook
p9812
g2
(g6
S'\x17\x01\x00\x00'
p9813
tp9814
Rp9815
sVtalkie
p9816
g2
(g6
S'K\x08\x00\x00'
p9817
tp9818
Rp9819
sVcanada
p9820
g2
(g6
S']\x01\x00\x00'
p9821
tp9822
Rp9823
sVjunk
p9824
g2
(g6
S'\x9e\x04\x00\x00'
p9825
tp9826
Rp9827
sVstar
p9828
g2
(g6
S'\xe8\x07\x00\x00'
p9829
tp9830
Rp9831
sVstay
p9832
g2
(g6
S'\xf5\x07\x00\x00'
p9833
tp9834
Rp9835
sVsamsung
p9836
g2
(g6
S'>\x07\x00\x00'
p9837
tp9838
Rp9839
sVawake
p9840
g2
(g6
S'\xcd\x00\x00\x00'
p9841
tp9842
Rp9843
s.