(dp0
Vtodays
p1
cnumpy.core.multiarray
scalar
p2
(cnumpy
dtype
p3
(S'i4'
p4
I0
I1
tp5
Rp6
(I3
S'<'
p7
NNNI-1
I-1
I0
tp8
bS'\xbd\n\x00\x00'
p9
tp10
Rp11
sVhanging
p12
g2
(g6
S'\xe3\x04\x00\x00'
p13
tp14
Rp15
sV6pm
p16
g2
(g6
S'W\x00\x00\x00'
p17
tp18
Rp19
sVincrease
p20
g2
(g6
S'y\x05\x00\x00'
p21
tp22
Rp23
sVaug
p24
g2
(g6
S'\x05\x01\x00\x00'
p25
tp26
Rp27
sVelectricity
p28
g2
(g6
S'y\x03\x00\x00'
p29
tp30
Rp31
sVpresents
p32
g2
(g6
S'+\x08\x00\x00'
p33
tp34
Rp35
sVrecycle
p36
g2
(g6
S'\xa7\x08\x00\x00'
p37
tp38
Rp39
sVup3
p40
g2
(g6
S'$\x0b\x00\x00'
p41
tp42
Rp43
sVevangelical
p44
g2
(g6
S'\xc1\x03\x00\x00'
p45
tp46
Rp47
sVussernm
p48
g2
(g6
S'5\x0b\x00\x00'
p49
tp50
Rp51
sVdynamic
p52
g2
(g6
S'Z\x03\x00\x00'
p53
tp54
Rp55
sVdell
p56
g2
(g6
S'\xee\x02\x00\x00'
p57
tp58
Rp59
sVupdates
p60
g2
(g6
S'(\x0b\x00\x00'
p61
tp62
Rp63
sVbringing
p64
g2
(g6
S'\x7f\x01\x00\x00'
p65
tp66
Rp67
sVdominate
p68
g2
(g6
S':\x03\x00\x00'
p69
tp70
Rp71
sVprize
p72
g2
(g6
S'=\x08\x00\x00'
p73
tp74
Rp75
sVcalled
p76
g2
(g6
S'\xa5\x01\x00\x00'
p77
tp78
Rp79
sVskills
p80
g2
(g6
S'\xa6\t\x00\x00'
p81
tp82
Rp83
sVcompanies
p84
g2
(g6
S'J\x02\x00\x00'
p85
tp86
Rp87
sVwednesday
p88
g2
(g6
S'\x8e\x0b\x00\x00'
p89
tp90
Rp91
sVenhance
p92
g2
(g6
S'\x98\x03\x00\x00'
p93
tp94
Rp95
sVreliable
p96
g2
(g6
S'\xb9\x08\x00\x00'
p97
tp98
Rp99
sV9pm
p100
g2
(g6
S'p\x00\x00\x00'
p101
tp102
Rp103
sVforce
p104
g2
(g6
S'T\x04\x00\x00'
p105
tp106
Rp107
sVtired
p108
g2
(g6
S'\xb7\n\x00\x00'
p109
tp110
Rp111
sVmiller
p112
g2
(g6
S'\xe1\x06\x00\x00'
p113
tp114
Rp115
sVsecond
p116
g2
(g6
S'J\t\x00\x00'
p117
tp118
Rp119
sVcooking
p120
g2
(g6
S'y\x02\x00\x00'
p121
tp122
Rp123
sVasia
p124
g2
(g6
S'\xf2\x00\x00\x00'
p125
tp126
Rp127
sVlights
p128
g2
(g6
S'T\x06\x00\x00'
p129
tp130
Rp131
sVnew
p132
g2
(g6
S'7\x07\x00\x00'
p133
tp134
Rp135
sVincreasing
p136
g2
(g6
S'{\x05\x00\x00'
p137
tp138
Rp139
sVhero
p140
g2
(g6
S'\x0b\x05\x00\x00'
p141
tp142
Rp143
sVjoin
p144
g2
(g6
S'\xdf\x05\x00\x00'
p145
tp146
Rp147
sVmen
p148
g2
(g6
S'\xc4\x06\x00\x00'
p149
tp150
Rp151
sVcourtroom
p152
g2
(g6
S'\x8b\x02\x00\x00'
p153
tp154
Rp155
sVlgbt
p156
g2
(g6
S'O\x06\x00\x00'
p157
tp158
Rp159
sVchina
p160
g2
(g6
S'\xff\x01\x00\x00'
p161
tp162
Rp163
sV100
p164
g2
(g6
S'\x03\x00\x00\x00'
p165
tp166
Rp167
sVluther
p168
g2
(g6
S'\x84\x06\x00\x00'
p169
tp170
Rp171
sVkids
p172
g2
(g6
S'\x08\x06\x00\x00'
p173
tp174
Rp175
sVreports
p176
g2
(g6
S'\xc5\x08\x00\x00'
p177
tp178
Rp179
sVcredit
p180
g2
(g6
S'\x9c\x02\x00\x00'
p181
tp182
Rp183
sVmilitary
p184
g2
(g6
S'\xdf\x06\x00\x00'
p185
tp186
Rp187
sVengineers
p188
g2
(g6
S'\x97\x03\x00\x00'
p189
tp190
Rp191
sVtweet
p192
g2
(g6
S'\x03\x0b\x00\x00'
p193
tp194
Rp195
sVdivide
p196
g2
(g6
S'*\x03\x00\x00'
p197
tp198
Rp199
sVmobility
p200
g2
(g6
S'\xf4\x06\x00\x00'
p201
tp202
Rp203
sVexplained
p204
g2
(g6
S'\xdf\x03\x00\x00'
p205
tp206
Rp207
sVbrought
p208
g2
(g6
S'\x87\x01\x00\x00'
p209
tp210
Rp211
sVguests
p212
g2
(g6
S'\xd2\x04\x00\x00'
p213
tp214
Rp215
sVcounts
p216
g2
(g6
S'\x88\x02\x00\x00'
p217
tp218
Rp219
sVcocaine
p220
g2
(g6
S'+\x02\x00\x00'
p221
tp222
Rp223
sVunit
p224
g2
(g6
S'\x19\x0b\x00\x00'
p225
tp226
Rp227
sVdna
p228
g2
(g6
S'-\x03\x00\x00'
p229
tp230
Rp231
sVspoke
p232
g2
(g6
S'\xe2\t\x00\x00'
p233
tp234
Rp235
sVmusic
p236
g2
(g6
S'\x18\x07\x00\x00'
p237
tp238
Rp239
sVtype
p240
g2
(g6
S'\x0b\x0b\x00\x00'
p241
tp242
Rp243
sVtell
p244
g2
(g6
S'\x8e\n\x00\x00'
p245
tp246
Rp247
sVsupporters
p248
g2
(g6
S'M\n\x00\x00'
p249
tp250
Rp251
sVsuccessful
p252
g2
(g6
S'?\n\x00\x00'
p253
tp254
Rp255
sVbrings
p256
g2
(g6
S'\x80\x01\x00\x00'
p257
tp258
Rp259
sVexpose
p260
g2
(g6
S'\xe5\x03\x00\x00'
p261
tp262
Rp263
sVyahoo
p264
g2
(g6
S'\xd3\x0b\x00\x00'
p265
tp266
Rp267
sVglass
p268
g2
(g6
S'\xaa\x04\x00\x00'
p269
tp270
Rp271
sV93
p272
g2
(g6
S'j\x00\x00\x00'
p273
tp274
Rp275
sVhold
p276
g2
(g6
S"'\x05\x00\x00"
p277
tp278
Rp279
sVhola
p280
g2
(g6
S'&\x05\x00\x00'
p281
tp282
Rp283
sVroom
p284
g2
(g6
S'\x03\t\x00\x00'
p285
tp286
Rp287
sVrights
p288
g2
(g6
S'\xea\x08\x00\x00'
p289
tp290
Rp291
sVmovies
p292
g2
(g6
S'\x13\x07\x00\x00'
p293
tp294
Rp295
sVconcepts
p296
g2
(g6
S'U\x02\x00\x00'
p297
tp298
Rp299
sVupdated
p300
g2
(g6
S"'\x0b\x00\x00"
p301
tp302
Rp303
sVfoods
p304
g2
(g6
S'P\x04\x00\x00'
p305
tp306
Rp307
sVwant
p308
g2
(g6
S's\x0b\x00\x00'
p309
tp310
Rp311
sVtravel
p312
g2
(g6
S'\xe2\n\x00\x00'
p313
tp314
Rp315
sVfeature
p316
g2
(g6
S'\x14\x04\x00\x00'
p317
tp318
Rp319
sVmachine
p320
g2
(g6
S'\x86\x06\x00\x00'
p321
tp322
Rp323
sVhot
p324
g2
(g6
S'<\x05\x00\x00'
p325
tp326
Rp327
sVsignificance
p328
g2
(g6
S'\x92\t\x00\x00'
p329
tp330
Rp331
sVanswer
p332
g2
(g6
S'\xd5\x00\x00\x00'
p333
tp334
Rp335
sVwithyour
p336
g2
(g6
S'\xb2\x0b\x00\x00'
p337
tp338
Rp339
sVgaming
p340
g2
(g6
S'\x81\x04\x00\x00'
p341
tp342
Rp343
sVminority
p344
g2
(g6
S'\xe8\x06\x00\x00'
p345
tp346
Rp347
sVbeauty
p348
g2
(g6
S'3\x01\x00\x00'
p349
tp350
Rp351
sVfunny
p352
g2
(g6
S's\x04\x00\x00'
p353
tp354
Rp355
sVconnects
p356
g2
(g6
S'd\x02\x00\x00'
p357
tp358
Rp359
sVdinosaurs
p360
g2
(g6
S'\x13\x03\x00\x00'
p361
tp362
Rp363
sVpresident
p364
g2
(g6
S'-\x08\x00\x00'
p365
tp366
Rp367
sVwins
p368
g2
(g6
S'\xa8\x0b\x00\x00'
p369
tp370
Rp371
sVheadquarters
p372
g2
(g6
S'\xf4\x04\x00\x00'
p373
tp374
Rp375
sVseason
p376
g2
(g6
S'F\t\x00\x00'
p377
tp378
Rp379
sV18th
p380
g2
(g6
S'\x18\x00\x00\x00'
p381
tp382
Rp383
sVkeeps
p384
g2
(g6
S'\xfb\x05\x00\x00'
p385
tp386
Rp387
sVdeck
p388
g2
(g6
S'\xe3\x02\x00\x00'
p389
tp390
Rp391
sVkickoff
p392
g2
(g6
S'\x05\x06\x00\x00'
p393
tp394
Rp395
sVpartnered
p396
g2
(g6
S'\x9e\x07\x00\x00'
p397
tp398
Rp399
sVkeyboard
p400
g2
(g6
S'\x00\x06\x00\x00'
p401
tp402
Rp403
sVfit
p404
g2
(g6
S'?\x04\x00\x00'
p405
tp406
Rp407
sVpersonal
p408
g2
(g6
S'\xc6\x07\x00\x00'
p409
tp410
Rp411
sVfix
p412
g2
(g6
S'A\x04\x00\x00'
p413
tp414
Rp415
sVcrew
p416
g2
(g6
S'\x9d\x02\x00\x00'
p417
tp418
Rp419
sVbetter
p420
g2
(g6
S'<\x01\x00\x00'
p421
tp422
Rp423
sVjoinussernmin
p424
g2
(g6
S'\xe3\x05\x00\x00'
p425
tp426
Rp427
sVeasier
p428
g2
(g6
S'b\x03\x00\x00'
p429
tp430
Rp431
sVovercome
p432
g2
(g6
S'\x83\x07\x00\x00'
p433
tp434
Rp435
sVbrener
p436
g2
(g6
S'v\x01\x00\x00'
p437
tp438
Rp439
sVcaign
p440
g2
(g6
S'\xa2\x01\x00\x00'
p441
tp442
Rp443
sVschools
p444
g2
(g6
S':\t\x00\x00'
p445
tp446
Rp447
sVsilver
p448
g2
(g6
S'\x95\t\x00\x00'
p449
tp450
Rp451
sVchildress
p452
g2
(g6
S'\xfe\x01\x00\x00'
p453
tp454
Rp455
sVdebut
p456
g2
(g6
S'\xdd\x02\x00\x00'
p457
tp458
Rp459
sVroast
p460
g2
(g6
S'\xf4\x08\x00\x00'
p461
tp462
Rp463
sVwent
p464
g2
(g6
S'\x95\x0b\x00\x00'
p465
tp466
Rp467
sVmean
p468
g2
(g6
S'\xb5\x06\x00\x00'
p469
tp470
Rp471
sVfinancial
p472
g2
(g6
S'5\x04\x00\x00'
p473
tp474
Rp475
sVcuses
p476
g2
(g6
S'\xba\x02\x00\x00'
p477
tp478
Rp479
sVdurability
p480
g2
(g6
S'V\x03\x00\x00'
p481
tp482
Rp483
sVseries
p484
g2
(g6
S'b\t\x00\x00'
p485
tp486
Rp487
sVsolution
p488
g2
(g6
S'\xc6\t\x00\x00'
p489
tp490
Rp491
sVcarry
p492
g2
(g6
S'\xc4\x01\x00\x00'
p493
tp494
Rp495
sVtrading
p496
g2
(g6
S'\xd6\n\x00\x00'
p497
tp498
Rp499
sVchion
p500
g2
(g6
S'\x00\x02\x00\x00'
p501
tp502
Rp503
sVaids
p504
g2
(g6
S'\xaa\x00\x00\x00'
p505
tp506
Rp507
sVhires
p508
g2
(g6
S'\x1d\x05\x00\x00'
p509
tp510
Rp511
sVmessage
p512
g2
(g6
S'\xcc\x06\x00\x00'
p513
tp514
Rp515
sVwhip
p516
g2
(g6
S'\x9b\x0b\x00\x00'
p517
tp518
Rp519
sVrt
p520
g2
(g6
S'\x0c\t\x00\x00'
p521
tp522
Rp523
sVcrucial
p524
g2
(g6
S'\xa3\x02\x00\x00'
p525
tp526
Rp527
sVdss
p528
g2
(g6
S'R\x03\x00\x00'
p529
tp530
Rp531
sVurbane
p532
g2
(g6
S'+\x0b\x00\x00'
p533
tp534
Rp535
sVsurprise
p536
g2
(g6
S'T\n\x00\x00'
p537
tp538
Rp539
sVsize
p540
g2
(g6
S'\xa2\t\x00\x00'
p541
tp542
Rp543
sVstrategies
p544
g2
(g6
S'%\n\x00\x00'
p545
tp546
Rp547
sVcutest
p548
g2
(g6
S'\xbf\x02\x00\x00'
p549
tp550
Rp551
sVresume
p552
g2
(g6
S'\xd4\x08\x00\x00'
p553
tp554
Rp555
sVfave
p556
g2
(g6
S'\t\x04\x00\x00'
p557
tp558
Rp559
sVnice
p560
g2
(g6
S'?\x07\x00\x00'
p561
tp562
Rp563
sVstarts
p564
g2
(g6
S'\x03\n\x00\x00'
p565
tp566
Rp567
sVmessages
p568
g2
(g6
S'\xcd\x06\x00\x00'
p569
tp570
Rp571
sVmoment
p572
g2
(g6
S'\xfa\x06\x00\x00'
p573
tp574
Rp575
sVatt
p576
g2
(g6
S'\xfd\x00\x00\x00'
p577
tp578
Rp579
sVisn
p580
g2
(g6
S'\xbf\x05\x00\x00'
p581
tp582
Rp583
sVsignature
p584
g2
(g6
S'\x90\t\x00\x00'
p585
tp586
Rp587
sVswiping
p588
g2
(g6
S'b\n\x00\x00'
p589
tp590
Rp591
sVarrived
p592
g2
(g6
S'\xeb\x00\x00\x00'
p593
tp594
Rp595
sVloud
p596
g2
(g6
S'u\x06\x00\x00'
p597
tp598
Rp599
sVspeeds
p600
g2
(g6
S'\xdc\t\x00\x00'
p601
tp602
Rp603
sVfeatures
p604
g2
(g6
S'\x15\x04\x00\x00'
p605
tp606
Rp607
sVdecember
p608
g2
(g6
S'\xe2\x02\x00\x00'
p609
tp610
Rp611
sVplastic
p612
g2
(g6
S'\xef\x07\x00\x00'
p613
tp614
Rp615
sVbasketball
p616
g2
(g6
S'-\x01\x00\x00'
p617
tp618
Rp619
sVservice
p620
g2
(g6
S'f\t\x00\x00'
p621
tp622
Rp623
sVgirls
p624
g2
(g6
S'\xa2\x04\x00\x00'
p625
tp626
Rp627
sVneeded
p628
g2
(g6
S'.\x07\x00\x00'
p629
tp630
Rp631
sVmaster
p632
g2
(g6
S'\xaa\x06\x00\x00'
p633
tp634
Rp635
sVhollywood
p636
g2
(g6
S',\x05\x00\x00'
p637
tp638
Rp639
sVbitter
p640
g2
(g6
S'K\x01\x00\x00'
p641
tp642
Rp643
sVlisten
p644
g2
(g6
S'_\x06\x00\x00'
p645
tp646
Rp647
sVbegins
p648
g2
(g6
S'5\x01\x00\x00'
p649
tp650
Rp651
sVshowed
p652
g2
(g6
S'\x89\t\x00\x00'
p653
tp654
Rp655
sV1m
p656
g2
(g6
S'\x1c\x00\x00\x00'
p657
tp658
Rp659
sVtree
p660
g2
(g6
S'\xe8\n\x00\x00'
p661
tp662
Rp663
sVnations
p664
g2
(g6
S'$\x07\x00\x00'
p665
tp666
Rp667
sVproject
p668
g2
(g6
S'N\x08\x00\x00'
p669
tp670
Rp671
sVmatter
p672
g2
(g6
S'\xae\x06\x00\x00'
p673
tp674
Rp675
sVspeaking
p676
g2
(g6
S'\xd7\t\x00\x00'
p677
tp678
Rp679
sVfeeling
p680
g2
(g6
S'\x1b\x04\x00\x00'
p681
tp682
Rp683
sVacquisition
p684
g2
(g6
S'\x83\x00\x00\x00'
p685
tp686
Rp687
sVexploring
p688
g2
(g6
S'\xe4\x03\x00\x00'
p689
tp690
Rp691
sVnadella
p692
g2
(g6
S'\x1b\x07\x00\x00'
p693
tp694
Rp695
sVmodern
p696
g2
(g6
S'\xf8\x06\x00\x00'
p697
tp698
Rp699
sVmind
p700
g2
(g6
S'\xe4\x06\x00\x00'
p701
tp702
Rp703
sVseen
p704
g2
(g6
S'T\t\x00\x00'
p705
tp706
Rp707
sVmins
p708
g2
(g6
S'\xe9\x06\x00\x00'
p709
tp710
Rp711
sVtells
p712
g2
(g6
S'\x90\n\x00\x00'
p713
tp714
Rp715
sVreleases
p716
g2
(g6
S'\xb8\x08\x00\x00'
p717
tp718
Rp719
sVniece
p720
g2
(g6
S'A\x07\x00\x00'
p721
tp722
Rp723
sVdoors
p724
g2
(g6
S'A\x03\x00\x00'
p725
tp726
Rp727
sVep
p728
g2
(g6
S'\xaf\x03\x00\x00'
p729
tp730
Rp731
sVthrilled
p732
g2
(g6
S'\xac\n\x00\x00'
p733
tp734
Rp735
sVsimplify
p736
g2
(g6
S'\x99\t\x00\x00'
p737
tp738
Rp739
sVentry
p740
g2
(g6
S'\xac\x03\x00\x00'
p741
tp742
Rp743
sVmacbook
p744
g2
(g6
S'\x85\x06\x00\x00'
p745
tp746
Rp747
sVmaria
p748
g2
(g6
S'\x9d\x06\x00\x00'
p749
tp750
Rp751
sVbroadcast
p752
g2
(g6
S'\x82\x01\x00\x00'
p753
tp754
Rp755
sVsinger
p756
g2
(g6
S'\x9c\t\x00\x00'
p757
tp758
Rp759
sVepisode
p760
g2
(g6
S'\xb1\x03\x00\x00'
p761
tp762
Rp763
sVdoc
p764
g2
(g6
S'.\x03\x00\x00'
p765
tp766
Rp767
sVmedical
p768
g2
(g6
S'\xbb\x06\x00\x00'
p769
tp770
Rp771
sVdog
p772
g2
(g6
S'5\x03\x00\x00'
p773
tp774
Rp775
sVspend
p776
g2
(g6
S'\xdd\t\x00\x00'
p777
tp778
Rp779
sVtech
p780
g2
(g6
S'\x85\n\x00\x00'
p781
tp782
Rp783
sVhastings
p784
g2
(g6
S'\xee\x04\x00\x00'
p785
tp786
Rp787
sVconsumer
p788
g2
(g6
S'i\x02\x00\x00'
p789
tp790
Rp791
sVcame
p792
g2
(g6
S'\xa7\x01\x00\x00'
p793
tp794
Rp795
sVmarvel
p796
g2
(g6
S'\xa7\x06\x00\x00'
p797
tp798
Rp799
sVsaying
p800
g2
(g6
S',\t\x00\x00'
p801
tp802
Rp803
sVnominated
p804
g2
(g6
S'C\x07\x00\x00'
p805
tp806
Rp807
sVending
p808
g2
(g6
S'\x93\x03\x00\x00'
p809
tp810
Rp811
sVprix
p812
g2
(g6
S'<\x08\x00\x00'
p813
tp814
Rp815
sVlessons
p816
g2
(g6
S'G\x06\x00\x00'
p817
tp818
Rp819
sVappliances
p820
g2
(g6
S'\xe2\x00\x00\x00'
p821
tp822
Rp823
sVmenu
p824
g2
(g6
S'\xc8\x06\x00\x00'
p825
tp826
Rp827
sVexplain
p828
g2
(g6
S'\xde\x03\x00\x00'
p829
tp830
Rp831
sVtheme
p832
g2
(g6
S'\x9f\n\x00\x00'
p833
tp834
Rp835
sVrick
p836
g2
(g6
S'\xe5\x08\x00\x00'
p837
tp838
Rp839
sVrich
p840
g2
(g6
S'\xe3\x08\x00\x00'
p841
tp842
Rp843
sVrice
p844
g2
(g6
S'\xe2\x08\x00\x00'
p845
tp846
Rp847
sVwearing
p848
g2
(g6
S'\x87\x0b\x00\x00'
p849
tp850
Rp851
sVstop
p852
g2
(g6
S'\x1b\n\x00\x00'
p853
tp854
Rp855
sVsupplier
p856
g2
(g6
S'J\n\x00\x00'
p857
tp858
Rp859
sVtips
p860
g2
(g6
S'\xb6\n\x00\x00'
p861
tp862
Rp863
sVbar
p864
g2
(g6
S'(\x01\x00\x00'
p865
tp866
Rp867
sVarchitecture
p868
g2
(g6
S'\xe8\x00\x00\x00'
p869
tp870
Rp871
sV18
p872
g2
(g6
S'\x17\x00\x00\x00'
p873
tp874
Rp875
sVrelease
p876
g2
(g6
S'\xb6\x08\x00\x00'
p877
tp878
Rp879
sVears
p880
g2
(g6
S'`\x03\x00\x00'
p881
tp882
Rp883
sVblew
p884
g2
(g6
S'O\x01\x00\x00'
p885
tp886
Rp887
sVdisaster
p888
g2
(g6
S'\x1c\x03\x00\x00'
p889
tp890
Rp891
sVfair
p892
g2
(g6
S'\xf7\x03\x00\x00'
p893
tp894
Rp895
sVfail
p896
g2
(g6
S'\xf6\x03\x00\x00'
p897
tp898
Rp899
sVnews
p900
g2
(g6
S':\x07\x00\x00'
p901
tp902
Rp903
sVbest
p904
g2
(g6
S':\x01\x00\x00'
p905
tp906
Rp907
sVpete
p908
g2
(g6
S'\xcb\x07\x00\x00'
p909
tp910
Rp911
sVsaid
p912
g2
(g6
S'\x1a\t\x00\x00'
p913
tp914
Rp915
sVscore
p916
g2
(g6
S'=\t\x00\x00'
p917
tp918
Rp919
sVolympics
p920
g2
(g6
S'i\x07\x00\x00'
p921
tp922
Rp923
sVpets
p924
g2
(g6
S'\xcd\x07\x00\x00'
p925
tp926
Rp927
sVsorts
p928
g2
(g6
S'\xcd\t\x00\x00'
p929
tp930
Rp931
sVreddit
p932
g2
(g6
S'\xaa\x08\x00\x00'
p933
tp934
Rp935
sVextend
p936
g2
(g6
S'\xe7\x03\x00\x00'
p937
tp938
Rp939
sVcarbon
p940
g2
(g6
S'\xb9\x01\x00\x00'
p941
tp942
Rp943
sVtablet
p944
g2
(g6
S'i\n\x00\x00'
p945
tp946
Rp947
sVmet
p948
g2
(g6
S'\xcf\x06\x00\x00'
p949
tp950
Rp951
sVcountry
p952
g2
(g6
S'\x86\x02\x00\x00'
p953
tp954
Rp955
sVamazing
p956
g2
(g6
S'\xba\x00\x00\x00'
p957
tp958
Rp959
sVplanned
p960
g2
(g6
S'\xed\x07\x00\x00'
p961
tp962
Rp963
sVcontribution
p964
g2
(g6
S'q\x02\x00\x00'
p965
tp966
Rp967
sVobamas
p968
g2
(g6
S'V\x07\x00\x00'
p969
tp970
Rp971
sVasked
p972
g2
(g6
S'\xf4\x00\x00\x00'
p973
tp974
Rp975
sV2nd
p976
g2
(g6
S'4\x00\x00\x00'
p977
tp978
Rp979
sVactive
p980
g2
(g6
S'\x89\x00\x00\x00'
p981
tp982
Rp983
sVperiscope
p984
g2
(g6
S'\xc4\x07\x00\x00'
p985
tp986
Rp987
sVinitiative
p988
g2
(g6
S'\x8c\x05\x00\x00'
p989
tp990
Rp991
sVexclusively
p992
g2
(g6
S'\xcd\x03\x00\x00'
p993
tp994
Rp995
sVasks
p996
g2
(g6
S'\xf5\x00\x00\x00'
p997
tp998
Rp999
sVunion
p1000
g2
(g6
S'\x17\x0b\x00\x00'
p1001
tp1002
Rp1003
sVtiny
p1004
g2
(g6
S'\xb4\n\x00\x00'
p1005
tp1006
Rp1007
sVdont
p1008
g2
(g6
S'?\x03\x00\x00'
p1009
tp1010
Rp1011
sVtutorials
p1012
g2
(g6
S'\x01\x0b\x00\x00'
p1013
tp1014
Rp1015
sVwebsite
p1016
g2
(g6
S'\x8c\x0b\x00\x00'
p1017
tp1018
Rp1019
sVlife
p1020
g2
(g6
S'Q\x06\x00\x00'
p1021
tp1022
Rp1023
sVchionship
p1024
g2
(g6
S'\x02\x02\x00\x00'
p1025
tp1026
Rp1027
sVchild
p1028
g2
(g6
S'\xfb\x01\x00\x00'
p1029
tp1030
Rp1031
sVworked
p1032
g2
(g6
S'\xbd\x0b\x00\x00'
p1033
tp1034
Rp1035
sVspin
p1036
g2
(g6
S'\xdf\t\x00\x00'
p1037
tp1038
Rp1039
sVcommerce
p1040
g2
(g6
S'B\x02\x00\x00'
p1041
tp1042
Rp1043
sVtastes
p1044
g2
(g6
S'z\n\x00\x00'
p1045
tp1046
Rp1047
sVcastro
p1048
g2
(g6
S'\xcb\x01\x00\x00'
p1049
tp1050
Rp1051
sVtransformation
p1052
g2
(g6
S'\xde\n\x00\x00'
p1053
tp1054
Rp1055
sVugly
p1056
g2
(g6
S'\x0e\x0b\x00\x00'
p1057
tp1058
Rp1059
sVnear
p1060
g2
(g6
S'*\x07\x00\x00'
p1061
tp1062
Rp1063
sVbalance
p1064
g2
(g6
S'"\x01\x00\x00'
p1065
tp1066
Rp1067
sVstudy
p1068
g2
(g6
S'4\n\x00\x00'
p1069
tp1070
Rp1071
sVseven
p1072
g2
(g6
S'm\t\x00\x00'
p1073
tp1074
Rp1075
sVvulnerability
p1076
g2
(g6
S'm\x0b\x00\x00'
p1077
tp1078
Rp1079
sVmexico
p1080
g2
(g6
S'\xd1\x06\x00\x00'
p1081
tp1082
Rp1083
sVip
p1084
g2
(g6
S'\xb8\x05\x00\x00'
p1085
tp1086
Rp1087
sVplayer
p1088
g2
(g6
S'\xf6\x07\x00\x00'
p1089
tp1090
Rp1091
sVvendor
p1092
g2
(g6
S'B\x0b\x00\x00'
p1093
tp1094
Rp1095
sVseattle
p1096
g2
(g6
S'I\t\x00\x00'
p1097
tp1098
Rp1099
sVgrown
p1100
g2
(g6
S'\xcc\x04\x00\x00'
p1101
tp1102
Rp1103
sVshimmering
p1104
g2
(g6
S'z\t\x00\x00'
p1105
tp1106
Rp1107
sVthings
p1108
g2
(g6
S'\xa3\n\x00\x00'
p1109
tp1110
Rp1111
sVmake
p1112
g2
(g6
S'\x8d\x06\x00\x00'
p1113
tp1114
Rp1115
sVgateways
p1116
g2
(g6
S'\x8b\x04\x00\x00'
p1117
tp1118
Rp1119
sVbabies
p1120
g2
(g6
S'\x1e\x01\x00\x00'
p1121
tp1122
Rp1123
sVmeets
p1124
g2
(g6
S'\xbe\x06\x00\x00'
p1125
tp1126
Rp1127
sVtops
p1128
g2
(g6
S'\xc6\n\x00\x00'
p1129
tp1130
Rp1131
sVworkforce
p1132
g2
(g6
S'\xc0\x0b\x00\x00'
p1133
tp1134
Rp1135
sVjealous
p1136
g2
(g6
S'\xcf\x05\x00\x00'
p1137
tp1138
Rp1139
sVhhttglife
p1140
g2
(g6
S'\x12\x05\x00\x00'
p1141
tp1142
Rp1143
sV500
p1144
g2
(g6
S'N\x00\x00\x00'
p1145
tp1146
Rp1147
sVopportunity
p1148
g2
(g6
S'u\x07\x00\x00'
p1149
tp1150
Rp1151
sVtune
p1152
g2
(g6
S'\xf9\n\x00\x00'
p1153
tp1154
Rp1155
sVkid
p1156
g2
(g6
S'\x07\x06\x00\x00'
p1157
tp1158
Rp1159
sVprograms
p1160
g2
(g6
S'L\x08\x00\x00'
p1161
tp1162
Rp1163
sVacoustics
p1164
g2
(g6
S'\x82\x00\x00\x00'
p1165
tp1166
Rp1167
sVyoure
p1168
g2
(g6
S'\xde\x0b\x00\x00'
p1169
tp1170
Rp1171
sVmentors
p1172
g2
(g6
S'\xc7\x06\x00\x00'
p1173
tp1174
Rp1175
sVburgers
p1176
g2
(g6
S'\x98\x01\x00\x00'
p1177
tp1178
Rp1179
sVmaterials
p1180
g2
(g6
S'\xac\x06\x00\x00'
p1181
tp1182
Rp1183
sVdoes
p1184
g2
(g6
S'3\x03\x00\x00'
p1185
tp1186
Rp1187
sVclaims
p1188
g2
(g6
S'\x14\x02\x00\x00'
p1189
tp1190
Rp1191
sVleft
p1192
g2
(g6
S'@\x06\x00\x00'
p1193
tp1194
Rp1195
sVhuman
p1196
g2
(g6
S'L\x05\x00\x00'
p1197
tp1198
Rp1199
sVfacts
p1200
g2
(g6
S'\xf5\x03\x00\x00'
p1201
tp1202
Rp1203
sVyep
p1204
g2
(g6
S'\xd7\x0b\x00\x00'
p1205
tp1206
Rp1207
sVyes
p1208
g2
(g6
S'\xd8\x0b\x00\x00'
p1209
tp1210
Rp1211
sVbit
p1212
g2
(g6
S'H\x01\x00\x00'
p1213
tp1214
Rp1215
sVctia
p1216
g2
(g6
S'\xaa\x02\x00\x00'
p1217
tp1218
Rp1219
sVenters
p1220
g2
(g6
S'\xa4\x03\x00\x00'
p1221
tp1222
Rp1223
sVagile
p1224
g2
(g6
S'\xa6\x00\x00\x00'
p1225
tp1226
Rp1227
sVease
p1228
g2
(g6
S'a\x03\x00\x00'
p1229
tp1230
Rp1231
sVcharacter
p1232
g2
(g6
S'\xe8\x01\x00\x00'
p1233
tp1234
Rp1235
sVsportswear
p1236
g2
(g6
S'\xe7\t\x00\x00'
p1237
tp1238
Rp1239
sVpotential
p1240
g2
(g6
S'\x15\x08\x00\x00'
p1241
tp1242
Rp1243
sVeasy
p1244
g2
(g6
S'c\x03\x00\x00'
p1245
tp1246
Rp1247
sVlantern
p1248
g2
(g6
S'\x1f\x06\x00\x00'
p1249
tp1250
Rp1251
sVpossible
p1252
g2
(g6
S'\x12\x08\x00\x00'
p1253
tp1254
Rp1255
sVtmrw
p1256
g2
(g6
S'\xba\n\x00\x00'
p1257
tp1258
Rp1259
sV3pm
p1260
g2
(g6
S'D\x00\x00\x00'
p1261
tp1262
Rp1263
sVunique
p1264
g2
(g6
S'\x18\x0b\x00\x00'
p1265
tp1266
Rp1267
sVperforming
p1268
g2
(g6
S'\xc2\x07\x00\x00'
p1269
tp1270
Rp1271
sVfestivities
p1272
g2
(g6
S'"\x04\x00\x00'
p1273
tp1274
Rp1275
sVsteps
p1276
g2
(g6
S'\x13\n\x00\x00'
p1277
tp1278
Rp1279
sVprepping
p1280
g2
(g6
S"'\x08\x00\x00"
p1281
tp1282
Rp1283
sVright
p1284
g2
(g6
S'\xe9\x08\x00\x00'
p1285
tp1286
Rp1287
sVold
p1288
g2
(g6
S'f\x07\x00\x00'
p1289
tp1290
Rp1291
sVcrowd
p1292
g2
(g6
S'\xa2\x02\x00\x00'
p1293
tp1294
Rp1295
sVpeople
p1296
g2
(g6
S'\xba\x07\x00\x00'
p1297
tp1298
Rp1299
sVdead
p1300
g2
(g6
S'\xd8\x02\x00\x00'
p1301
tp1302
Rp1303
sVconsultants
p1304
g2
(g6
S'h\x02\x00\x00'
p1305
tp1306
Rp1307
sVwomens
p1308
g2
(g6
S'\xb6\x0b\x00\x00'
p1309
tp1310
Rp1311
sVcreative
p1312
g2
(g6
S'\x99\x02\x00\x00'
p1313
tp1314
Rp1315
sVstarring
p1316
g2
(g6
S'\xfe\t\x00\x00'
p1317
tp1318
Rp1319
sVmemorable
p1320
g2
(g6
S'\xc2\x06\x00\x00'
p1321
tp1322
Rp1323
sVsuper
p1324
g2
(g6
S'F\n\x00\x00'
p1325
tp1326
Rp1327
sVmeow
p1328
g2
(g6
S'\xc9\x06\x00\x00'
p1329
tp1330
Rp1331
sVbeta
p1332
g2
(g6
S';\x01\x00\x00'
p1333
tp1334
Rp1335
sVwhats
p1336
g2
(g6
S'\x98\x0b\x00\x00'
p1337
tp1338
Rp1339
sVdyson
p1340
g2
(g6
S'[\x03\x00\x00'
p1341
tp1342
Rp1343
sVwithskills
p1344
g2
(g6
S'\xaf\x0b\x00\x00'
p1345
tp1346
Rp1347
sVwrap
p1348
g2
(g6
S'\xcc\x0b\x00\x00'
p1349
tp1350
Rp1351
sVsoon
p1352
g2
(g6
S'\xcb\t\x00\x00'
p1353
tp1354
Rp1355
sVamerica
p1356
g2
(g6
S'\xbd\x00\x00\x00'
p1357
tp1358
Rp1359
sVvoices
p1360
g2
(g6
S'c\x0b\x00\x00'
p1361
tp1362
Rp1363
sVsupport
p1364
g2
(g6
S'K\n\x00\x00'
p1365
tp1366
Rp1367
sVgift
p1368
g2
(g6
S'\x9d\x04\x00\x00'
p1369
tp1370
Rp1371
sVabsolutely
p1372
g2
(g6
S's\x00\x00\x00'
p1373
tp1374
Rp1375
sVeditor
p1376
g2
(g6
S'm\x03\x00\x00'
p1377
tp1378
Rp1379
sVjane
p1380
g2
(g6
S'\xc9\x05\x00\x00'
p1381
tp1382
Rp1383
sVhalls
p1384
g2
(g6
S'\xde\x04\x00\x00'
p1385
tp1386
Rp1387
sVlaunching
p1388
g2
(g6
S'1\x06\x00\x00'
p1389
tp1390
Rp1391
sVhappy
p1392
g2
(g6
S'\xe8\x04\x00\x00'
p1393
tp1394
Rp1395
sVform
p1396
g2
(g6
S'Y\x04\x00\x00'
p1397
tp1398
Rp1399
sVoffer
p1400
g2
(g6
S']\x07\x00\x00'
p1401
tp1402
Rp1403
sVford
p1404
g2
(g6
S'V\x04\x00\x00'
p1405
tp1406
Rp1407
sVnotifications
p1408
g2
(g6
S'L\x07\x00\x00'
p1409
tp1410
Rp1411
sVtalents
p1412
g2
(g6
S'q\n\x00\x00'
p1413
tp1414
Rp1415
sVanalyst
p1416
g2
(g6
S'\xc3\x00\x00\x00'
p1417
tp1418
Rp1419
sVspeakers
p1420
g2
(g6
S'\xd6\t\x00\x00'
p1421
tp1422
Rp1423
sVcongratulations
p1424
g2
(g6
S']\x02\x00\x00'
p1425
tp1426
Rp1427
sVinside
p1428
g2
(g6
S'\x94\x05\x00\x00'
p1429
tp1430
Rp1431
sVdevices
p1432
g2
(g6
S'\x0b\x03\x00\x00'
p1433
tp1434
Rp1435
sVroundup
p1436
g2
(g6
S'\x07\t\x00\x00'
p1437
tp1438
Rp1439
sVmighty
p1440
g2
(g6
S'\xda\x06\x00\x00'
p1441
tp1442
Rp1443
sVclassic
p1444
g2
(g6
S'\x16\x02\x00\x00'
p1445
tp1446
Rp1447
sVproven
p1448
g2
(g6
S'X\x08\x00\x00'
p1449
tp1450
Rp1451
sVdrive
p1452
g2
(g6
S'J\x03\x00\x00'
p1453
tp1454
Rp1455
sVsomebody
p1456
g2
(g6
S'\xc8\t\x00\x00'
p1457
tp1458
Rp1459
sVexle
p1460
g2
(g6
S'\xd2\x03\x00\x00'
p1461
tp1462
Rp1463
sVactor
p1464
g2
(g6
S'\x8c\x00\x00\x00'
p1465
tp1466
Rp1467
sVrole
p1468
g2
(g6
S'\xfe\x08\x00\x00'
p1469
tp1470
Rp1471
sVoscar
p1472
g2
(g6
S'~\x07\x00\x00'
p1473
tp1474
Rp1475
sVtransgender
p1476
g2
(g6
S'\xe0\n\x00\x00'
p1477
tp1478
Rp1479
sVroll
p1480
g2
(g6
S'\x00\t\x00\x00'
p1481
tp1482
Rp1483
sVmodels
p1484
g2
(g6
S'\xf7\x06\x00\x00'
p1485
tp1486
Rp1487
sVp9983
p1488
g2
(g6
S'\x89\x07\x00\x00'
p1489
tp1490
Rp1491
sVwars
p1492
g2
(g6
S'y\x0b\x00\x00'
p1493
tp1494
Rp1495
sVweekend
p1496
g2
(g6
S'\x90\x0b\x00\x00'
p1497
tp1498
Rp1499
sVgets
p1500
g2
(g6
S'\x98\x04\x00\x00'
p1501
tp1502
Rp1503
sVbillion
p1504
g2
(g6
S'C\x01\x00\x00'
p1505
tp1506
Rp1507
sVdaily
p1508
g2
(g6
S'\xc3\x02\x00\x00'
p1509
tp1510
Rp1511
sVjacket
p1512
g2
(g6
S'\xc7\x05\x00\x00'
p1513
tp1514
Rp1515
sVtime
p1516
g2
(g6
S'\xb2\n\x00\x00'
p1517
tp1518
Rp1519
sVpush
p1520
g2
(g6
S'j\x08\x00\x00'
p1521
tp1522
Rp1523
sVgown
p1524
g2
(g6
S'\xba\x04\x00\x00'
p1525
tp1526
Rp1527
sVmanaged
p1528
g2
(g6
S'\x96\x06\x00\x00'
p1529
tp1530
Rp1531
sVchaim
p1532
g2
(g6
S'\xdf\x01\x00\x00'
p1533
tp1534
Rp1535
sVthemed
p1536
g2
(g6
S'\xa0\n\x00\x00'
p1537
tp1538
Rp1539
sVexcellent
p1540
g2
(g6
S'\xc8\x03\x00\x00'
p1541
tp1542
Rp1543
sVmanager
p1544
g2
(g6
S'\x98\x06\x00\x00'
p1545
tp1546
Rp1547
sVskate
p1548
g2
(g6
S'\xa3\t\x00\x00'
p1549
tp1550
Rp1551
sVskin
p1552
g2
(g6
S'\xa7\t\x00\x00'
p1553
tp1554
Rp1555
sVplayoffs
p1556
g2
(g6
S'\xfb\x07\x00\x00'
p1557
tp1558
Rp1559
sVbomber
p1560
g2
(g6
S'\\\x01\x00\x00'
p1561
tp1562
Rp1563
sVvet
p1564
g2
(g6
S'G\x0b\x00\x00'
p1565
tp1566
Rp1567
sVfather
p1568
g2
(g6
S'\x08\x04\x00\x00'
p1569
tp1570
Rp1571
sVeditors
p1572
g2
(g6
S'n\x03\x00\x00'
p1573
tp1574
Rp1575
sVcountdown
p1576
g2
(g6
S'\x84\x02\x00\x00'
p1577
tp1578
Rp1579
sVanswered
p1580
g2
(g6
S'\xd6\x00\x00\x00'
p1581
tp1582
Rp1583
sVfinally
p1584
g2
(g6
S'2\x04\x00\x00'
p1585
tp1586
Rp1587
sVpraised
p1588
g2
(g6
S'\x1b\x08\x00\x00'
p1589
tp1590
Rp1591
sVveterans
p1592
g2
(g6
S'I\x0b\x00\x00'
p1593
tp1594
Rp1595
sVretro
p1596
g2
(g6
S'\xd7\x08\x00\x00'
p1597
tp1598
Rp1599
sVshoot
p1600
g2
(g6
S'\x81\t\x00\x00'
p1601
tp1602
Rp1603
sVsmartphone
p1604
g2
(g6
S'\xb1\t\x00\x00'
p1605
tp1606
Rp1607
sVchoice
p1608
g2
(g6
S'\x03\x02\x00\x00'
p1609
tp1610
Rp1611
sVstays
p1612
g2
(g6
S'\x0f\n\x00\x00'
p1613
tp1614
Rp1615
sVmoura
p1616
g2
(g6
S'\x0e\x07\x00\x00'
p1617
tp1618
Rp1619
sVepic
p1620
g2
(g6
S'\xb0\x03\x00\x00'
p1621
tp1622
Rp1623
sVdid
p1624
g2
(g6
S'\r\x03\x00\x00'
p1625
tp1626
Rp1627
sVleave
p1628
g2
(g6
S'?\x06\x00\x00'
p1629
tp1630
Rp1631
sVsubway
p1632
g2
(g6
S'<\n\x00\x00'
p1633
tp1634
Rp1635
sVteam
p1636
g2
(g6
S'\x7f\n\x00\x00'
p1637
tp1638
Rp1639
sVil
p1640
g2
(g6
S'_\x05\x00\x00'
p1641
tp1642
Rp1643
sVround
p1644
g2
(g6
S'\x05\t\x00\x00'
p1645
tp1646
Rp1647
sVdir
p1648
g2
(g6
S'\x14\x03\x00\x00'
p1649
tp1650
Rp1651
sVdroid
p1652
g2
(g6
S'N\x03\x00\x00'
p1653
tp1654
Rp1655
sVfindings
p1656
g2
(g6
S'8\x04\x00\x00'
p1657
tp1658
Rp1659
sVsign
p1660
g2
(g6
S'\x8f\t\x00\x00'
p1661
tp1662
Rp1663
sVeating
p1664
g2
(g6
S'e\x03\x00\x00'
p1665
tp1666
Rp1667
sVtargets
p1668
g2
(g6
S'x\n\x00\x00'
p1669
tp1670
Rp1671
sVadds
p1672
g2
(g6
S'\x9a\x00\x00\x00'
p1673
tp1674
Rp1675
sVheres
p1676
g2
(g6
S'\t\x05\x00\x00'
p1677
tp1678
Rp1679
sVcelebrated
p1680
g2
(g6
S'\xd3\x01\x00\x00'
p1681
tp1682
Rp1683
sVcurrent
p1684
g2
(g6
S'\xb3\x02\x00\x00'
p1685
tp1686
Rp1687
sVinternational
p1688
g2
(g6
S'\xa8\x05\x00\x00'
p1689
tp1690
Rp1691
sVcelebrates
p1692
g2
(g6
S'\xd4\x01\x00\x00'
p1693
tp1694
Rp1695
sVfilled
p1696
g2
(g6
S')\x04\x00\x00'
p1697
tp1698
Rp1699
sVenthusiast
p1700
g2
(g6
S'\xa6\x03\x00\x00'
p1701
tp1702
Rp1703
sVjury
p1704
g2
(g6
S'\xf1\x05\x00\x00'
p1705
tp1706
Rp1707
sVmakeup
p1708
g2
(g6
S'\x91\x06\x00\x00'
p1709
tp1710
Rp1711
sVupgrade
p1712
g2
(g6
S')\x0b\x00\x00'
p1713
tp1714
Rp1715
sVaddress
p1716
g2
(g6
S'\x98\x00\x00\x00'
p1717
tp1718
Rp1719
sVwait
p1720
g2
(g6
S'o\x0b\x00\x00'
p1721
tp1722
Rp1723
sVpremieres
p1724
g2
(g6
S' \x08\x00\x00'
p1725
tp1726
Rp1727
sVbow
p1728
g2
(g6
S'f\x01\x00\x00'
p1729
tp1730
Rp1731
sVwomen
p1732
g2
(g6
S'\xb5\x0b\x00\x00'
p1733
tp1734
Rp1735
sVanna
p1736
g2
(g6
S'\xcd\x00\x00\x00'
p1737
tp1738
Rp1739
sVbob
p1740
g2
(g6
S'Y\x01\x00\x00'
p1741
tp1742
Rp1743
sVlove
p1744
g2
(g6
S'x\x06\x00\x00'
p1745
tp1746
Rp1747
sVhotels
p1748
g2
(g6
S'>\x05\x00\x00'
p1749
tp1750
Rp1751
sVworking
p1752
g2
(g6
S'\xc2\x0b\x00\x00'
p1753
tp1754
Rp1755
sVpositive
p1756
g2
(g6
S'\x11\x08\x00\x00'
p1757
tp1758
Rp1759
sVvisit
p1760
g2
(g6
S'Z\x0b\x00\x00'
p1761
tp1762
Rp1763
sVpredictions
p1764
g2
(g6
S'\x1e\x08\x00\x00'
p1765
tp1766
Rp1767
sVfrance
p1768
g2
(g6
S'c\x04\x00\x00'
p1769
tp1770
Rp1771
sVcreamy
p1772
g2
(g6
S'\x95\x02\x00\x00'
p1773
tp1774
Rp1775
sVlauded
p1776
g2
(g6
S',\x06\x00\x00'
p1777
tp1778
Rp1779
sVfilms
p1780
g2
(g6
S'+\x04\x00\x00'
p1781
tp1782
Rp1783
sVloving
p1784
g2
(g6
S'|\x06\x00\x00'
p1785
tp1786
Rp1787
sVintroducing
p1788
g2
(g6
S'\xb0\x05\x00\x00'
p1789
tp1790
Rp1791
sVsharing
p1792
g2
(g6
S'u\t\x00\x00'
p1793
tp1794
Rp1795
sVdowntown
p1796
g2
(g6
S'E\x03\x00\x00'
p1797
tp1798
Rp1799
sVvisual
p1800
g2
(g6
S'^\x0b\x00\x00'
p1801
tp1802
Rp1803
sVibooks
p1804
g2
(g6
S'U\x05\x00\x00'
p1805
tp1806
Rp1807
sVgiven
p1808
g2
(g6
S'\xa4\x04\x00\x00'
p1809
tp1810
Rp1811
sVcapturing
p1812
g2
(g6
S'\xb6\x01\x00\x00'
p1813
tp1814
Rp1815
sVfly
p1816
g2
(g6
S'H\x04\x00\x00'
p1817
tp1818
Rp1819
sV8pm
p1820
g2
(g6
S'g\x00\x00\x00'
p1821
tp1822
Rp1823
sVtokyo
p1824
g2
(g6
S'\xbf\n\x00\x00'
p1825
tp1826
Rp1827
sVreviews
p1828
g2
(g6
S'\xde\x08\x00\x00'
p1829
tp1830
Rp1831
sVentrepreneurs
p1832
g2
(g6
S'\xaa\x03\x00\x00'
p1833
tp1834
Rp1835
sVfollowing
p1836
g2
(g6
S'N\x04\x00\x00'
p1837
tp1838
Rp1839
sVmaking
p1840
g2
(g6
S'\x92\x06\x00\x00'
p1841
tp1842
Rp1843
sVawesome
p1844
g2
(g6
S'\x1d\x01\x00\x00'
p1845
tp1846
Rp1847
sV239
p1848
g2
(g6
S',\x00\x00\x00'
p1849
tp1850
Rp1851
sVunveiled
p1852
g2
(g6
S'!\x0b\x00\x00'
p1853
tp1854
Rp1855
sVpink
p1856
g2
(g6
S'\xe6\x07\x00\x00'
p1857
tp1858
Rp1859
sVmonitoring
p1860
g2
(g6
S'\x01\x07\x00\x00'
p1861
tp1862
Rp1863
sVwinter
p1864
g2
(g6
S'\xa9\x0b\x00\x00'
p1865
tp1866
Rp1867
sVpine
p1868
g2
(g6
S'\xe5\x07\x00\x00'
p1869
tp1870
Rp1871
sVsunday
p1872
g2
(g6
S'D\n\x00\x00'
p1873
tp1874
Rp1875
sVvancouver
p1876
g2
(g6
S'>\x0b\x00\x00'
p1877
tp1878
Rp1879
sVpure
p1880
g2
(g6
S'h\x08\x00\x00'
p1881
tp1882
Rp1883
sVnyc
p1884
g2
(g6
S'S\x07\x00\x00'
p1885
tp1886
Rp1887
sVmap
p1888
g2
(g6
S'\x9a\x06\x00\x00'
p1889
tp1890
Rp1891
sVsnaps
p1892
g2
(g6
S'\xb9\t\x00\x00'
p1893
tp1894
Rp1895
sVdesigner
p1896
g2
(g6
S'\xff\x02\x00\x00'
p1897
tp1898
Rp1899
sVexplores
p1900
g2
(g6
S'\xe3\x03\x00\x00'
p1901
tp1902
Rp1903
sVcoming
p1904
g2
(g6
S'>\x02\x00\x00'
p1905
tp1906
Rp1907
sVspot
p1908
g2
(g6
S'\xe8\t\x00\x00'
p1909
tp1910
Rp1911
sVfueled
p1912
g2
(g6
S'o\x04\x00\x00'
p1913
tp1914
Rp1915
sVmessaging
p1916
g2
(g6
S'\xce\x06\x00\x00'
p1917
tp1918
Rp1919
sVimproving
p1920
g2
(g6
S'p\x05\x00\x00'
p1921
tp1922
Rp1923
sVdata
p1924
g2
(g6
S'\xcd\x02\x00\x00'
p1925
tp1926
Rp1927
sVman
p1928
g2
(g6
S'\x94\x06\x00\x00'
p1929
tp1930
Rp1931
sVjohnson
p1932
g2
(g6
S'\xde\x05\x00\x00'
p1933
tp1934
Rp1935
sVconscious
p1936
g2
(g6
S'e\x02\x00\x00'
p1937
tp1938
Rp1939
sVjourneymaker
p1940
g2
(g6
S'\xea\x05\x00\x00'
p1941
tp1942
Rp1943
sVsr
p1944
g2
(g6
S'\xf2\t\x00\x00'
p1945
tp1946
Rp1947
sVst
p1948
g2
(g6
S'\xf3\t\x00\x00'
p1949
tp1950
Rp1951
sVmacys
p1952
g2
(g6
S'\x88\x06\x00\x00'
p1953
tp1954
Rp1955
sVswitch
p1956
g2
(g6
S'c\n\x00\x00'
p1957
tp1958
Rp1959
sVtruck
p1960
g2
(g6
S'\xf1\n\x00\x00'
p1961
tp1962
Rp1963
sVtalk
p1964
g2
(g6
S'r\n\x00\x00'
p1965
tp1966
Rp1967
sVyears
p1968
g2
(g6
S'\xd6\x0b\x00\x00'
p1969
tp1970
Rp1971
sVhiring
p1972
g2
(g6
S'\x1e\x05\x00\x00'
p1973
tp1974
Rp1975
sVepisodes
p1976
g2
(g6
S'\xb2\x03\x00\x00'
p1977
tp1978
Rp1979
sVseamless
p1980
g2
(g6
S'B\t\x00\x00'
p1981
tp1982
Rp1983
sVpitch
p1984
g2
(g6
S'\xe7\x07\x00\x00'
p1985
tp1986
Rp1987
sVequip
p1988
g2
(g6
S'\xb5\x03\x00\x00'
p1989
tp1990
Rp1991
sVthank
p1992
g2
(g6
S'\x98\n\x00\x00'
p1993
tp1994
Rp1995
sVjim
p1996
g2
(g6
S'\xd9\x05\x00\x00'
p1997
tp1998
Rp1999
sVfaves
p2000
g2
(g6
S'\n\x04\x00\x00'
p2001
tp2002
Rp2003
sVlisting
p2004
g2
(g6
S'a\x06\x00\x00'
p2005
tp2006
Rp2007
sVorchestrating
p2008
g2
(g6
S'w\x07\x00\x00'
p2009
tp2010
Rp2011
sVdecades
p2012
g2
(g6
S'\xe1\x02\x00\x00'
p2013
tp2014
Rp2015
sVinstantly
p2016
g2
(g6
S'\x9f\x05\x00\x00'
p2017
tp2018
Rp2019
sVviews
p2020
g2
(g6
S'R\x0b\x00\x00'
p2021
tp2022
Rp2023
sVkiller
p2024
g2
(g6
S'\t\x06\x00\x00'
p2025
tp2026
Rp2027
sVnation
p2028
g2
(g6
S'"\x07\x00\x00'
p2029
tp2030
Rp2031
sVrecords
p2032
g2
(g6
S'\xa4\x08\x00\x00'
p2033
tp2034
Rp2035
sV10pm
p2036
g2
(g6
S'\x08\x00\x00\x00'
p2037
tp2038
Rp2039
sVrock
p2040
g2
(g6
S'\xf8\x08\x00\x00'
p2041
tp2042
Rp2043
sVquarter
p2044
g2
(g6
S's\x08\x00\x00'
p2045
tp2046
Rp2047
sVbridging
p2048
g2
(g6
S'z\x01\x00\x00'
p2049
tp2050
Rp2051
sVsquare
p2052
g2
(g6
S'\xf1\t\x00\x00'
p2053
tp2054
Rp2055
sVunlock
p2056
g2
(g6
S'\x1d\x0b\x00\x00'
p2057
tp2058
Rp2059
sVsponsor
p2060
g2
(g6
S'\xe3\t\x00\x00'
p2061
tp2062
Rp2063
sVgirl
p2064
g2
(g6
S'\xa1\x04\x00\x00'
p2065
tp2066
Rp2067
sVmorning
p2068
g2
(g6
S'\x07\x07\x00\x00'
p2069
tp2070
Rp2071
sVdisasters
p2072
g2
(g6
S'\x1d\x03\x00\x00'
p2073
tp2074
Rp2075
sVrelive
p2076
g2
(g6
S'\xba\x08\x00\x00'
p2077
tp2078
Rp2079
sVcanada
p2080
g2
(g6
S'\xab\x01\x00\x00'
p2081
tp2082
Rp2083
sVodenkirk
p2084
g2
(g6
S'\\\x07\x00\x00'
p2085
tp2086
Rp2087
sVbillions
p2088
g2
(g6
S'D\x01\x00\x00'
p2089
tp2090
Rp2091
sV3rd
p2092
g2
(g6
S'E\x00\x00\x00'
p2093
tp2094
Rp2095
sVblu
p2096
g2
(g6
S'U\x01\x00\x00'
p2097
tp2098
Rp2099
sVemerged
p2100
g2
(g6
S'\x80\x03\x00\x00'
p2101
tp2102
Rp2103
sVinternet
p2104
g2
(g6
S'\xa9\x05\x00\x00'
p2105
tp2106
Rp2107
sVformula
p2108
g2
(g6
S'Z\x04\x00\x00'
p2109
tp2110
Rp2111
sVstream
p2112
g2
(g6
S'(\n\x00\x00'
p2113
tp2114
Rp2115
sVsiege
p2116
g2
(g6
S'\x8e\t\x00\x00'
p2117
tp2118
Rp2119
sVmillion
p2120
g2
(g6
S'\xe2\x06\x00\x00'
p2121
tp2122
Rp2123
sVquite
p2124
g2
(g6
S'z\x08\x00\x00'
p2125
tp2126
Rp2127
sVkeith
p2128
g2
(g6
S'\xfc\x05\x00\x00'
p2129
tp2130
Rp2131
sVlanguage
p2132
g2
(g6
S'\x1e\x06\x00\x00'
p2133
tp2134
Rp2135
sVprogramming
p2136
g2
(g6
S'K\x08\x00\x00'
p2137
tp2138
Rp2139
sVthing
p2140
g2
(g6
S'\xa2\n\x00\x00'
p2141
tp2142
Rp2143
sVthink
p2144
g2
(g6
S'\xa4\n\x00\x00'
p2145
tp2146
Rp2147
sVsaving
p2148
g2
(g6
S'(\t\x00\x00'
p2149
tp2150
Rp2151
sVinsta
p2152
g2
(g6
S'\x9c\x05\x00\x00'
p2153
tp2154
Rp2155
sVamericans
p2156
g2
(g6
S'\xbf\x00\x00\x00'
p2157
tp2158
Rp2159
sVfast
p2160
g2
(g6
S'\x05\x04\x00\x00'
p2161
tp2162
Rp2163
sVspanish
p2164
g2
(g6
S'\xd4\t\x00\x00'
p2165
tp2166
Rp2167
sVvote
p2168
g2
(g6
S'h\x0b\x00\x00'
p2169
tp2170
Rp2171
sVsounds
p2172
g2
(g6
S'\xcf\t\x00\x00'
p2173
tp2174
Rp2175
sVopen
p2176
g2
(g6
S'm\x07\x00\x00'
p2177
tp2178
Rp2179
sVrome
p2180
g2
(g6
S'\x02\t\x00\x00'
p2181
tp2182
Rp2183
sVcity
p2184
g2
(g6
S'\x10\x02\x00\x00'
p2185
tp2186
Rp2187
sVlittle
p2188
g2
(g6
S'd\x06\x00\x00'
p2189
tp2190
Rp2191
sVbite
p2192
g2
(g6
S'J\x01\x00\x00'
p2193
tp2194
Rp2195
sVeyes
p2196
g2
(g6
S'\xec\x03\x00\x00'
p2197
tp2198
Rp2199
sVhillary
p2200
g2
(g6
S'\x1c\x05\x00\x00'
p2201
tp2202
Rp2203
sVwithanki
p2204
g2
(g6
S'\xad\x0b\x00\x00'
p2205
tp2206
Rp2207
sVinventor
p2208
g2
(g6
S'\xb2\x05\x00\x00'
p2209
tp2210
Rp2211
sV11
p2212
g2
(g6
S'\t\x00\x00\x00'
p2213
tp2214
Rp2215
sV10
p2216
g2
(g6
S'\x02\x00\x00\x00'
p2217
tp2218
Rp2219
sV13
p2220
g2
(g6
S'\x11\x00\x00\x00'
p2221
tp2222
Rp2223
sV12
p2224
g2
(g6
S'\x0c\x00\x00\x00'
p2225
tp2226
Rp2227
sV15
p2228
g2
(g6
S'\x13\x00\x00\x00'
p2229
tp2230
Rp2231
sV14
p2232
g2
(g6
S'\x12\x00\x00\x00'
p2233
tp2234
Rp2235
sV17
p2236
g2
(g6
S'\x16\x00\x00\x00'
p2237
tp2238
Rp2239
sV16
p2240
g2
(g6
S'\x15\x00\x00\x00'
p2241
tp2242
Rp2243
sV19
p2244
g2
(g6
S'\x19\x00\x00\x00'
p2245
tp2246
Rp2247
sVfuture
p2248
g2
(g6
S'v\x04\x00\x00'
p2249
tp2250
Rp2251
sVopens
p2252
g2
(g6
S'p\x07\x00\x00'
p2253
tp2254
Rp2255
sVwhale
p2256
g2
(g6
S'\x97\x0b\x00\x00'
p2257
tp2258
Rp2259
sVsan
p2260
g2
(g6
S' \t\x00\x00'
p2261
tp2262
Rp2263
sVemea
p2264
g2
(g6
S'\x7f\x03\x00\x00'
p2265
tp2266
Rp2267
sVjewels
p2268
g2
(g6
S'\xd8\x05\x00\x00'
p2269
tp2270
Rp2271
sVsad
p2272
g2
(g6
S'\x15\t\x00\x00'
p2273
tp2274
Rp2275
sVsay
p2276
g2
(g6
S'+\t\x00\x00'
p2277
tp2278
Rp2279
sVsaw
p2280
g2
(g6
S'*\t\x00\x00'
p2281
tp2282
Rp2283
sVcalendar
p2284
g2
(g6
S'\xa4\x01\x00\x00'
p2285
tp2286
Rp2287
sVcoach
p2288
g2
(g6
S')\x02\x00\x00'
p2289
tp2290
Rp2291
sVdate
p2292
g2
(g6
S'\xcf\x02\x00\x00'
p2293
tp2294
Rp2295
sVwarriors
p2296
g2
(g6
S'x\x0b\x00\x00'
p2297
tp2298
Rp2299
sVanswering
p2300
g2
(g6
S'\xd7\x00\x00\x00'
p2301
tp2302
Rp2303
sVhotspot
p2304
g2
(g6
S'?\x05\x00\x00'
p2305
tp2306
Rp2307
sVnote
p2308
g2
(g6
S'K\x07\x00\x00'
p2309
tp2310
Rp2311
sVperformance
p2312
g2
(g6
S'\xc0\x07\x00\x00'
p2313
tp2314
Rp2315
sVpersonalized
p2316
g2
(g6
S'\xc8\x07\x00\x00'
p2317
tp2318
Rp2319
sVswitching
p2320
g2
(g6
S'd\n\x00\x00'
p2321
tp2322
Rp2323
sVchannel
p2324
g2
(g6
S'\xe6\x01\x00\x00'
p2325
tp2326
Rp2327
sV200
p2328
g2
(g6
S' \x00\x00\x00'
p2329
tp2330
Rp2331
sVtrack
p2332
g2
(g6
S'\xd4\n\x00\x00'
p2333
tp2334
Rp2335
sVexciting
p2336
g2
(g6
S'\xcb\x03\x00\x00'
p2337
tp2338
Rp2339
sVprinted
p2340
g2
(g6
S'7\x08\x00\x00'
p2341
tp2342
Rp2343
sVcuban
p2344
g2
(g6
S'\xac\x02\x00\x00'
p2345
tp2346
Rp2347
sVespecially
p2348
g2
(g6
S'\xb9\x03\x00\x00'
p2349
tp2350
Rp2351
sVathletes
p2352
g2
(g6
S'\xfc\x00\x00\x00'
p2353
tp2354
Rp2355
sVsale
p2356
g2
(g6
S'\x1c\t\x00\x00'
p2357
tp2358
Rp2359
sVstockings
p2360
g2
(g6
S'\x1a\n\x00\x00'
p2361
tp2362
Rp2363
sVshop
p2364
g2
(g6
S'\x83\t\x00\x00'
p2365
tp2366
Rp2367
sVoperations
p2368
g2
(g6
S's\x07\x00\x00'
p2369
tp2370
Rp2371
sVshot
p2372
g2
(g6
S'\x87\t\x00\x00'
p2373
tp2374
Rp2375
sVoutsourcing
p2376
g2
(g6
S'\x82\x07\x00\x00'
p2377
tp2378
Rp2379
sVshoe
p2380
g2
(g6
S'\x7f\t\x00\x00'
p2381
tp2382
Rp2383
sVlauder
p2384
g2
(g6
S'-\x06\x00\x00'
p2385
tp2386
Rp2387
sVtreasure
p2388
g2
(g6
S'\xe5\n\x00\x00'
p2389
tp2390
Rp2391
sVgoing
p2392
g2
(g6
S'\xb2\x04\x00\x00'
p2393
tp2394
Rp2395
sVblack
p2396
g2
(g6
S'L\x01\x00\x00'
p2397
tp2398
Rp2399
sVh825cdw
p2400
g2
(g6
S'\xd6\x04\x00\x00'
p2401
tp2402
Rp2403
sVequipped
p2404
g2
(g6
S'\xb6\x03\x00\x00'
p2405
tp2406
Rp2407
sVawareness
p2408
g2
(g6
S'\x1a\x01\x00\x00'
p2409
tp2410
Rp2411
sVranking
p2412
g2
(g6
S'\x86\x08\x00\x00'
p2413
tp2414
Rp2415
sVassistant
p2416
g2
(g6
S'\xf8\x00\x00\x00'
p2417
tp2418
Rp2419
sVemployers
p2420
g2
(g6
S'\x87\x03\x00\x00'
p2421
tp2422
Rp2423
sVrevolutionizes
p2424
g2
(g6
S'\xe1\x08\x00\x00'
p2425
tp2426
Rp2427
sVprime
p2428
g2
(g6
S'5\x08\x00\x00'
p2429
tp2430
Rp2431
sVsettings
p2432
g2
(g6
S'l\t\x00\x00'
p2433
tp2434
Rp2435
sVmiles
p2436
g2
(g6
S'\xdd\x06\x00\x00'
p2437
tp2438
Rp2439
sVfinishing
p2440
g2
(g6
S'<\x04\x00\x00'
p2441
tp2442
Rp2443
sVvision
p2444
g2
(g6
S'Y\x0b\x00\x00'
p2445
tp2446
Rp2447
sVespn
p2448
g2
(g6
S'\xba\x03\x00\x00'
p2449
tp2450
Rp2451
sVfabara
p2452
g2
(g6
S'\xef\x03\x00\x00'
p2453
tp2454
Rp2455
sVbox
p2456
g2
(g6
S'g\x01\x00\x00'
p2457
tp2458
Rp2459
sVseat
p2460
g2
(g6
S'H\t\x00\x00'
p2461
tp2462
Rp2463
sVinfrastructure
p2464
g2
(g6
S'\x8a\x05\x00\x00'
p2465
tp2466
Rp2467
sVivories
p2468
g2
(g6
S'\xc5\x05\x00\x00'
p2469
tp2470
Rp2471
sVsurgery
p2472
g2
(g6
S'S\n\x00\x00'
p2473
tp2474
Rp2475
sVwonder
p2476
g2
(g6
S'\xb8\x0b\x00\x00'
p2477
tp2478
Rp2479
sVrefreshes
p2480
g2
(g6
S'\xae\x08\x00\x00'
p2481
tp2482
Rp2483
sVsites
p2484
g2
(g6
S'\xa0\t\x00\x00'
p2485
tp2486
Rp2487
sVteens
p2488
g2
(g6
S'\x8c\n\x00\x00'
p2489
tp2490
Rp2491
sVreading
p2492
g2
(g6
S'\x91\x08\x00\x00'
p2493
tp2494
Rp2495
sVjobs
p2496
g2
(g6
S'\xdb\x05\x00\x00'
p2497
tp2498
Rp2499
sVaugust
p2500
g2
(g6
S'\x06\x01\x00\x00'
p2501
tp2502
Rp2503
sVvertical
p2504
g2
(g6
S'F\x0b\x00\x00'
p2505
tp2506
Rp2507
sVscreen
p2508
g2
(g6
S'@\t\x00\x00'
p2509
tp2510
Rp2511
sVjr
p2512
g2
(g6
S'\xec\x05\x00\x00'
p2513
tp2514
Rp2515
sVawards
p2516
g2
(g6
S'\x19\x01\x00\x00'
p2517
tp2518
Rp2519
sVpharma
p2520
g2
(g6
S'\xce\x07\x00\x00'
p2521
tp2522
Rp2523
sVguitar
p2524
g2
(g6
S'\xd4\x04\x00\x00'
p2525
tp2526
Rp2527
sVresidence
p2528
g2
(g6
S'\xcb\x08\x00\x00'
p2529
tp2530
Rp2531
sVaccording
p2532
g2
(g6
S'~\x00\x00\x00'
p2533
tp2534
Rp2535
sVtour
p2536
g2
(g6
S'\xcd\n\x00\x00'
p2537
tp2538
Rp2539
sVworkplace
p2540
g2
(g6
S'\xc3\x0b\x00\x00'
p2541
tp2542
Rp2543
sVmani
p2544
g2
(g6
S'\x99\x06\x00\x00'
p2545
tp2546
Rp2547
sVcancer
p2548
g2
(g6
S'\xac\x01\x00\x00'
p2549
tp2550
Rp2551
sVinnovations
p2552
g2
(g6
S'\x90\x05\x00\x00'
p2553
tp2554
Rp2555
sV3000
p2556
g2
(g6
S'8\x00\x00\x00'
p2557
tp2558
Rp2559
sVcombines
p2560
g2
(g6
S'7\x02\x00\x00'
p2561
tp2562
Rp2563
sVtuning
p2564
g2
(g6
S'\xfc\n\x00\x00'
p2565
tp2566
Rp2567
sVmark
p2568
g2
(g6
S'\x9f\x06\x00\x00'
p2569
tp2570
Rp2571
sVwhos
p2572
g2
(g6
S'\x9e\x0b\x00\x00'
p2573
tp2574
Rp2575
sVwants
p2576
g2
(g6
S'u\x0b\x00\x00'
p2577
tp2578
Rp2579
sVenable
p2580
g2
(g6
S'\x8c\x03\x00\x00'
p2581
tp2582
Rp2583
sVspare
p2584
g2
(g6
S'\xd5\t\x00\x00'
p2585
tp2586
Rp2587
sV400
p2588
g2
(g6
S'G\x00\x00\x00'
p2589
tp2590
Rp2591
sVlaptops
p2592
g2
(g6
S'!\x06\x00\x00'
p2593
tp2594
Rp2595
sVphotos
p2596
g2
(g6
S'\xd8\x07\x00\x00'
p2597
tp2598
Rp2599
sVdramatic
p2600
g2
(g6
S'G\x03\x00\x00'
p2601
tp2602
Rp2603
sVdoesn
p2604
g2
(g6
S'4\x03\x00\x00'
p2605
tp2606
Rp2607
sVhashtag
p2608
g2
(g6
S'\xed\x04\x00\x00'
p2609
tp2610
Rp2611
sVweeks
p2612
g2
(g6
S'\x92\x0b\x00\x00'
p2613
tp2614
Rp2615
sVsound
p2616
g2
(g6
S'\xce\t\x00\x00'
p2617
tp2618
Rp2619
sVpolls
p2620
g2
(g6
S'\x06\x08\x00\x00'
p2621
tp2622
Rp2623
sVengineering
p2624
g2
(g6
S'\x96\x03\x00\x00'
p2625
tp2626
Rp2627
sVcure
p2628
g2
(g6
S'\xb1\x02\x00\x00'
p2629
tp2630
Rp2631
sVspotlight
p2632
g2
(g6
S'\xe9\t\x00\x00'
p2633
tp2634
Rp2635
sVbrow
p2636
g2
(g6
S'\x88\x01\x00\x00'
p2637
tp2638
Rp2639
sVmiddle
p2640
g2
(g6
S'\xd8\x06\x00\x00'
p2641
tp2642
Rp2643
sVtechnology
p2644
g2
(g6
S'\x88\n\x00\x00'
p2645
tp2646
Rp2647
sVeveryday
p2648
g2
(g6
S'\xc5\x03\x00\x00'
p2649
tp2650
Rp2651
sVpax
p2652
g2
(g6
S'\xad\x07\x00\x00'
p2653
tp2654
Rp2655
sVpay
p2656
g2
(g6
S'\xae\x07\x00\x00'
p2657
tp2658
Rp2659
sVpepe
p2660
g2
(g6
S'\xbb\x07\x00\x00'
p2661
tp2662
Rp2663
sVsurveillance
p2664
g2
(g6
S'X\n\x00\x00'
p2665
tp2666
Rp2667
sVpal
p2668
g2
(g6
S'\x90\x07\x00\x00'
p2669
tp2670
Rp2671
sVsingapore
p2672
g2
(g6
S'\x9b\t\x00\x00'
p2673
tp2674
Rp2675
sVassist
p2676
g2
(g6
S'\xf7\x00\x00\x00'
p2677
tp2678
Rp2679
sVnsa
p2680
g2
(g6
S'P\x07\x00\x00'
p2681
tp2682
Rp2683
sVcheers
p2684
g2
(g6
S'\xf5\x01\x00\x00'
p2685
tp2686
Rp2687
sVrunning
p2688
g2
(g6
S'\x12\t\x00\x00'
p2689
tp2690
Rp2691
sVrenewable
p2692
g2
(g6
S'\xc0\x08\x00\x00'
p2693
tp2694
Rp2695
sVcosta
p2696
g2
(g6
S'\x81\x02\x00\x00'
p2697
tp2698
Rp2699
sVcosts
p2700
g2
(g6
S'\x82\x02\x00\x00'
p2701
tp2702
Rp2703
sVtrains
p2704
g2
(g6
S'\xda\n\x00\x00'
p2705
tp2706
Rp2707
sVsummer
p2708
g2
(g6
S'B\n\x00\x00'
p2709
tp2710
Rp2711
sVmoney
p2712
g2
(g6
S'\xff\x06\x00\x00'
p2713
tp2714
Rp2715
sVrest
p2716
g2
(g6
S'\xd1\x08\x00\x00'
p2717
tp2718
Rp2719
sVrecycled
p2720
g2
(g6
S'\xa8\x08\x00\x00'
p2721
tp2722
Rp2723
sVguys
p2724
g2
(g6
S'\xd5\x04\x00\x00'
p2725
tp2726
Rp2727
sVweekly
p2728
g2
(g6
S'\x91\x0b\x00\x00'
p2729
tp2730
Rp2731
sVpups
p2732
g2
(g6
S'e\x08\x00\x00'
p2733
tp2734
Rp2735
sVfunctionality
p2736
g2
(g6
S'q\x04\x00\x00'
p2737
tp2738
Rp2739
sVpill
p2740
g2
(g6
S'\xe2\x07\x00\x00'
p2741
tp2742
Rp2743
sVcareers
p2744
g2
(g6
S'\xbe\x01\x00\x00'
p2745
tp2746
Rp2747
sVunveil
p2748
g2
(g6
S' \x0b\x00\x00'
p2749
tp2750
Rp2751
sV21c
p2752
g2
(g6
S'(\x00\x00\x00'
p2753
tp2754
Rp2755
sVmom
p2756
g2
(g6
S'\xf9\x06\x00\x00'
p2757
tp2758
Rp2759
sVworld
p2760
g2
(g6
S'\xc6\x0b\x00\x00'
p2761
tp2762
Rp2763
sVsurprising
p2764
g2
(g6
S'W\n\x00\x00'
p2765
tp2766
Rp2767
sVintel
p2768
g2
(g6
S'\xa3\x05\x00\x00'
p2769
tp2770
Rp2771
sVpole
p2772
g2
(g6
S'\x01\x08\x00\x00'
p2773
tp2774
Rp2775
sVmillennials
p2776
g2
(g6
S'\xe0\x06\x00\x00'
p2777
tp2778
Rp2779
sVaudience
p2780
g2
(g6
S'\x03\x01\x00\x00'
p2781
tp2782
Rp2783
sVtrying
p2784
g2
(g6
S'\xf7\n\x00\x00'
p2785
tp2786
Rp2787
sVobsessions
p2788
g2
(g6
S'X\x07\x00\x00'
p2789
tp2790
Rp2791
sVicymihear
p2792
g2
(g6
S'Y\x05\x00\x00'
p2793
tp2794
Rp2795
sVimages
p2796
g2
(g6
S'd\x05\x00\x00'
p2797
tp2798
Rp2799
sVrafael
p2800
g2
(g6
S'\x7f\x08\x00\x00'
p2801
tp2802
Rp2803
sVouts
p2804
g2
(g6
S'\x81\x07\x00\x00'
p2805
tp2806
Rp2807
sVnoon
p2808
g2
(g6
S'G\x07\x00\x00'
p2809
tp2810
Rp2811
sVcritical
p2812
g2
(g6
S'\x9f\x02\x00\x00'
p2813
tp2814
Rp2815
sVpower
p2816
g2
(g6
S'\x16\x08\x00\x00'
p2817
tp2818
Rp2819
sVintimate
p2820
g2
(g6
S'\xad\x05\x00\x00'
p2821
tp2822
Rp2823
sVseconds
p2824
g2
(g6
S'K\t\x00\x00'
p2825
tp2826
Rp2827
sViconic
p2828
g2
(g6
S'W\x05\x00\x00'
p2829
tp2830
Rp2831
sVleadership
p2832
g2
(g6
S'7\x06\x00\x00'
p2833
tp2834
Rp2835
sVshattershield
p2836
g2
(g6
S'w\t\x00\x00'
p2837
tp2838
Rp2839
sVaca
p2840
g2
(g6
S'v\x00\x00\x00'
p2841
tp2842
Rp2843
sVhicks
p2844
g2
(g6
S'\x15\x05\x00\x00'
p2845
tp2846
Rp2847
sVindustry
p2848
g2
(g6
S'\x83\x05\x00\x00'
p2849
tp2850
Rp2851
sVfavorite
p2852
g2
(g6
S'\x0b\x04\x00\x00'
p2853
tp2854
Rp2855
sVmixes
p2856
g2
(g6
S'\xef\x06\x00\x00'
p2857
tp2858
Rp2859
sVairline
p2860
g2
(g6
S'\xaf\x00\x00\x00'
p2861
tp2862
Rp2863
sVact
p2864
g2
(g6
S'\x85\x00\x00\x00'
p2865
tp2866
Rp2867
sVluck
p2868
g2
(g6
S'\x80\x06\x00\x00'
p2869
tp2870
Rp2871
sVroad
p2872
g2
(g6
S'\xf3\x08\x00\x00'
p2873
tp2874
Rp2875
sVwhitey
p2876
g2
(g6
S'\x9d\x0b\x00\x00'
p2877
tp2878
Rp2879
sVlands
p2880
g2
(g6
S'\x1d\x06\x00\x00'
p2881
tp2882
Rp2883
sVmarshmallow
p2884
g2
(g6
S'\xa4\x06\x00\x00'
p2885
tp2886
Rp2887
sVimage
p2888
g2
(g6
S'c\x05\x00\x00'
p2889
tp2890
Rp2891
sVsigning
p2892
g2
(g6
S'\x93\t\x00\x00'
p2893
tp2894
Rp2895
sVlegged
p2896
g2
(g6
S'D\x06\x00\x00'
p2897
tp2898
Rp2899
sVucla
p2900
g2
(g6
S'\r\x0b\x00\x00'
p2901
tp2902
Rp2903
sVlegacy
p2904
g2
(g6
S'A\x06\x00\x00'
p2905
tp2906
Rp2907
sVhes
p2908
g2
(g6
S'\r\x05\x00\x00'
p2909
tp2910
Rp2911
sVhey
p2912
g2
(g6
S'\x0e\x05\x00\x00'
p2913
tp2914
Rp2915
sVdesert
p2916
g2
(g6
S'\xfb\x02\x00\x00'
p2917
tp2918
Rp2919
sVchats
p2920
g2
(g6
S'\xf0\x01\x00\x00'
p2921
tp2922
Rp2923
sVago
p2924
g2
(g6
S'\xa7\x00\x00\x00'
p2925
tp2926
Rp2927
sVcomplete
p2928
g2
(g6
S'P\x02\x00\x00'
p2929
tp2930
Rp2931
sVmars
p2932
g2
(g6
S'\xa3\x06\x00\x00'
p2933
tp2934
Rp2935
sVtechnologies
p2936
g2
(g6
S'\x87\n\x00\x00'
p2937
tp2938
Rp2939
sVfootball
p2940
g2
(g6
S'Q\x04\x00\x00'
p2941
tp2942
Rp2943
sVpull
p2944
g2
(g6
S'b\x08\x00\x00'
p2945
tp2946
Rp2947
sVoctober
p2948
g2
(g6
S'[\x07\x00\x00'
p2949
tp2950
Rp2951
sVcelebrating
p2952
g2
(g6
S'\xd5\x01\x00\x00'
p2953
tp2954
Rp2955
sVpulp
p2956
g2
(g6
S'c\x08\x00\x00'
p2957
tp2958
Rp2959
sVcontinuum
p2960
g2
(g6
S'p\x02\x00\x00'
p2961
tp2962
Rp2963
sVad
p2964
g2
(g6
S'\x8f\x00\x00\x00'
p2965
tp2966
Rp2967
sVdeep
p2968
g2
(g6
S'\xe5\x02\x00\x00'
p2969
tp2970
Rp2971
sVfellow
p2972
g2
(g6
S'\x1d\x04\x00\x00'
p2973
tp2974
Rp2975
sVimagination
p2976
g2
(g6
S'e\x05\x00\x00'
p2977
tp2978
Rp2979
sVau
p2980
g2
(g6
S'\x02\x01\x00\x00'
p2981
tp2982
Rp2983
sVwatched
p2984
g2
(g6
S'{\x0b\x00\x00'
p2985
tp2986
Rp2987
sVfilm
p2988
g2
(g6
S'*\x04\x00\x00'
p2989
tp2990
Rp2991
sVdrivers
p2992
g2
(g6
S'K\x03\x00\x00'
p2993
tp2994
Rp2995
sVhybrid
p2996
g2
(g6
S'R\x05\x00\x00'
p2997
tp2998
Rp2999
sVfield
p3000
g2
(g6
S'&\x04\x00\x00'
p3001
tp3002
Rp3003
sV1114
p3004
g2
(g6
S'\n\x00\x00\x00'
p3005
tp3006
Rp3007
sVpuppy
p3008
g2
(g6
S'd\x08\x00\x00'
p3009
tp3010
Rp3011
sVpedis
p3012
g2
(g6
S'\xb8\x07\x00\x00'
p3013
tp3014
Rp3015
sVcongress
p3016
g2
(g6
S'^\x02\x00\x00'
p3017
tp3018
Rp3019
sVstudents
p3020
g2
(g6
S'2\n\x00\x00'
p3021
tp3022
Rp3023
sVpackaging
p3024
g2
(g6
S'\x8c\x07\x00\x00'
p3025
tp3026
Rp3027
sVgifts
p3028
g2
(g6
S'\x9e\x04\x00\x00'
p3029
tp3030
Rp3031
sVimportant
p3032
g2
(g6
S'k\x05\x00\x00'
p3033
tp3034
Rp3035
sVremote
p3036
g2
(g6
S'\xbe\x08\x00\x00'
p3037
tp3038
Rp3039
sVdtek
p3040
g2
(g6
S'S\x03\x00\x00'
p3041
tp3042
Rp3043
sVhello
p3044
g2
(g6
S'\x01\x05\x00\x00'
p3045
tp3046
Rp3047
sVhusks
p3048
g2
(g6
S'Q\x05\x00\x00'
p3049
tp3050
Rp3051
sVstarting
p3052
g2
(g6
S'\x02\n\x00\x00'
p3053
tp3054
Rp3055
sVoriginal
p3056
g2
(g6
S'{\x07\x00\x00'
p3057
tp3058
Rp3059
sVfounder
p3060
g2
(g6
S'`\x04\x00\x00'
p3061
tp3062
Rp3063
sVdollar
p3064
g2
(g6
S'8\x03\x00\x00'
p3065
tp3066
Rp3067
sVtalks
p3068
g2
(g6
S'u\n\x00\x00'
p3069
tp3070
Rp3071
sVchildren
p3072
g2
(g6
S'\xfd\x01\x00\x00'
p3073
tp3074
Rp3075
sVemily
p3076
g2
(g6
S'\x83\x03\x00\x00'
p3077
tp3078
Rp3079
sVcontent
p3080
g2
(g6
S'j\x02\x00\x00'
p3081
tp3082
Rp3083
sVty
p3084
g2
(g6
S'\n\x0b\x00\x00'
p3085
tp3086
Rp3087
sVtv
p3088
g2
(g6
S'\x02\x0b\x00\x00'
p3089
tp3090
Rp3091
sVsmile
p3092
g2
(g6
S'\xb4\t\x00\x00'
p3093
tp3094
Rp3095
sVenjoying
p3096
g2
(g6
S'\x9e\x03\x00\x00'
p3097
tp3098
Rp3099
sVcase
p3100
g2
(g6
S'\xc8\x01\x00\x00'
p3101
tp3102
Rp3103
sVsitting
p3104
g2
(g6
S'\xa1\t\x00\x00'
p3105
tp3106
Rp3107
sVfall
p3108
g2
(g6
S'\xf9\x03\x00\x00'
p3109
tp3110
Rp3111
sVwinning
p3112
g2
(g6
S'\xa7\x0b\x00\x00'
p3113
tp3114
Rp3115
sVdifference
p3116
g2
(g6
S'\x0e\x03\x00\x00'
p3117
tp3118
Rp3119
sVcable
p3120
g2
(g6
S'\x9f\x01\x00\x00'
p3121
tp3122
Rp3123
sVcelebrity
p3124
g2
(g6
S'\xd7\x01\x00\x00'
p3125
tp3126
Rp3127
sVarts
p3128
g2
(g6
S'\xf1\x00\x00\x00'
p3129
tp3130
Rp3131
sVjoined
p3132
g2
(g6
S'\xe0\x05\x00\x00'
p3133
tp3134
Rp3135
sVkyocera
p3136
g2
(g6
S'\x14\x06\x00\x00'
p3137
tp3138
Rp3139
sVsmall
p3140
g2
(g6
S'\xae\t\x00\x00'
p3141
tp3142
Rp3143
sVbalmain
p3144
g2
(g6
S'#\x01\x00\x00'
p3145
tp3146
Rp3147
sVfashion
p3148
g2
(g6
S'\x04\x04\x00\x00'
p3149
tp3150
Rp3151
sVportable
p3152
g2
(g6
S'\x0c\x08\x00\x00'
p3153
tp3154
Rp3155
sVpast
p3156
g2
(g6
S'\xa9\x07\x00\x00'
p3157
tp3158
Rp3159
sVzero
p3160
g2
(g6
S'\xe4\x0b\x00\x00'
p3161
tp3162
Rp3163
sVtitles
p3164
g2
(g6
S'\xb8\n\x00\x00'
p3165
tp3166
Rp3167
sVpass
p3168
g2
(g6
S'\xa6\x07\x00\x00'
p3169
tp3170
Rp3171
sVinvestment
p3172
g2
(g6
S'\xb4\x05\x00\x00'
p3173
tp3174
Rp3175
sV90s
p3176
g2
(g6
S'i\x00\x00\x00'
p3177
tp3178
Rp3179
sVrichard
p3180
g2
(g6
S'\xe4\x08\x00\x00'
p3181
tp3182
Rp3183
sVclock
p3184
g2
(g6
S'\x1f\x02\x00\x00'
p3185
tp3186
Rp3187
sVabt
p3188
g2
(g6
S'u\x00\x00\x00'
p3189
tp3190
Rp3191
sVtribute
p3192
g2
(g6
S'\xec\n\x00\x00'
p3193
tp3194
Rp3195
sVpublic
p3196
g2
(g6
S'a\x08\x00\x00'
p3197
tp3198
Rp3199
sVmovement
p3200
g2
(g6
S'\x10\x07\x00\x00'
p3201
tp3202
Rp3203
sVhours
p3204
g2
(g6
S'C\x05\x00\x00'
p3205
tp3206
Rp3207
sVbloggers
p3208
g2
(g6
S'S\x01\x00\x00'
p3209
tp3210
Rp3211
sVjonas
p3212
g2
(g6
S'\xe5\x05\x00\x00'
p3213
tp3214
Rp3215
sVnovember
p3216
g2
(g6
S'O\x07\x00\x00'
p3217
tp3218
Rp3219
sVlegend
p3220
g2
(g6
S'C\x06\x00\x00'
p3221
tp3222
Rp3223
sVsearch
p3224
g2
(g6
S'C\t\x00\x00'
p3225
tp3226
Rp3227
sVtweets
p3228
g2
(g6
S'\x05\x0b\x00\x00'
p3229
tp3230
Rp3231
sVrating
p3232
g2
(g6
S'\x8a\x08\x00\x00'
p3233
tp3234
Rp3235
sVexperience
p3236
g2
(g6
S'\xda\x03\x00\x00'
p3237
tp3238
Rp3239
sVpics
p3240
g2
(g6
S'\xdd\x07\x00\x00'
p3241
tp3242
Rp3243
sVhealthier
p3244
g2
(g6
S'\xf8\x04\x00\x00'
p3245
tp3246
Rp3247
sVpick
p3248
g2
(g6
S'\xdb\x07\x00\x00'
p3249
tp3250
Rp3251
sVaction
p3252
g2
(g6
S'\x86\x00\x00\x00'
p3253
tp3254
Rp3255
sVstruggle
p3256
g2
(g6
S'0\n\x00\x00'
p3257
tp3258
Rp3259
sVfollowed
p3260
g2
(g6
S'M\x04\x00\x00'
p3261
tp3262
Rp3263
sVvid
p3264
g2
(g6
S'M\x0b\x00\x00'
p3265
tp3266
Rp3267
sVvip
p3268
g2
(g6
S'V\x0b\x00\x00'
p3269
tp3270
Rp3271
sVmanage
p3272
g2
(g6
S'\x95\x06\x00\x00'
p3273
tp3274
Rp3275
sVselect
p3276
g2
(g6
S'U\t\x00\x00'
p3277
tp3278
Rp3279
sVgorgeous
p3280
g2
(g6
S'\xb7\x04\x00\x00'
p3281
tp3282
Rp3283
sVteamwork
p3284
g2
(g6
S'\x84\n\x00\x00'
p3285
tp3286
Rp3287
sVteen
p3288
g2
(g6
S'\x8b\n\x00\x00'
p3289
tp3290
Rp3291
sVdoor
p3292
g2
(g6
S'@\x03\x00\x00'
p3293
tp3294
Rp3295
sVcompany
p3296
g2
(g6
S'L\x02\x00\x00'
p3297
tp3298
Rp3299
sVwaterways
p3300
g2
(g6
S'\x7f\x0b\x00\x00'
p3301
tp3302
Rp3303
sVtested
p3304
g2
(g6
S'\x96\n\x00\x00'
p3305
tp3306
Rp3307
sVkaraoke
p3308
g2
(g6
S'\xf5\x05\x00\x00'
p3309
tp3310
Rp3311
sVwyse
p3312
g2
(g6
S'\xcd\x0b\x00\x00'
p3313
tp3314
Rp3315
sVscience
p3316
g2
(g6
S';\t\x00\x00'
p3317
tp3318
Rp3319
sVmall
p3320
g2
(g6
S'\x93\x06\x00\x00'
p3321
tp3322
Rp3323
sVsent
p3324
g2
(g6
S'_\t\x00\x00'
p3325
tp3326
Rp3327
sVlearn
p3328
g2
(g6
S';\x06\x00\x00'
p3329
tp3330
Rp3331
sVbeautiful
p3332
g2
(g6
S'2\x01\x00\x00'
p3333
tp3334
Rp3335
sVscan
p3336
g2
(g6
S'2\t\x00\x00'
p3337
tp3338
Rp3339
sVps
p3340
g2
(g6
S'^\x08\x00\x00'
p3341
tp3342
Rp3343
sVaccept
p3344
g2
(g6
S'x\x00\x00\x00'
p3345
tp3346
Rp3347
sVsocal
p3348
g2
(g6
S'\xbe\t\x00\x00'
p3349
tp3350
Rp3351
sVautumn
p3352
g2
(g6
S'\x0e\x01\x00\x00'
p3353
tp3354
Rp3355
sVnumbers
p3356
g2
(g6
S'Q\x07\x00\x00'
p3357
tp3358
Rp3359
sVpurchased
p3360
g2
(g6
S'f\x08\x00\x00'
p3361
tp3362
Rp3363
sVdress
p3364
g2
(g6
S'I\x03\x00\x00'
p3365
tp3366
Rp3367
sVinformation
p3368
g2
(g6
S'\x89\x05\x00\x00'
p3369
tp3370
Rp3371
sVunexpected
p3372
g2
(g6
S'\x16\x0b\x00\x00'
p3373
tp3374
Rp3375
sVearnings
p3376
g2
(g6
S'_\x03\x00\x00'
p3377
tp3378
Rp3379
sVcst
p3380
g2
(g6
S'\xa8\x02\x00\x00'
p3381
tp3382
Rp3383
sVplans
p3384
g2
(g6
S'\xee\x07\x00\x00'
p3385
tp3386
Rp3387
sVnotre
p3388
g2
(g6
S'M\x07\x00\x00'
p3389
tp3390
Rp3391
sVadvice
p3392
g2
(g6
S'\xa0\x00\x00\x00'
p3393
tp3394
Rp3395
sVdifferent
p3396
g2
(g6
S'\x0f\x03\x00\x00'
p3397
tp3398
Rp3399
sVentrepreneurship
p3400
g2
(g6
S'\xab\x03\x00\x00'
p3401
tp3402
Rp3403
sVsoundtrack
p3404
g2
(g6
S'\xd0\t\x00\x00'
p3405
tp3406
Rp3407
sVconnectivity
p3408
g2
(g6
S'c\x02\x00\x00'
p3409
tp3410
Rp3411
sVwaves
p3412
g2
(g6
S'\x81\x0b\x00\x00'
p3413
tp3414
Rp3415
sVauthentic
p3416
g2
(g6
S'\t\x01\x00\x00'
p3417
tp3418
Rp3419
sVlifecycle
p3420
g2
(g6
S'R\x06\x00\x00'
p3421
tp3422
Rp3423
sVacquisitions
p3424
g2
(g6
S'\x84\x00\x00\x00'
p3425
tp3426
Rp3427
sVbrady
p3428
g2
(g6
S'k\x01\x00\x00'
p3429
tp3430
Rp3431
sVcoat
p3432
g2
(g6
S'*\x02\x00\x00'
p3433
tp3434
Rp3435
sVbid
p3436
g2
(g6
S'?\x01\x00\x00'
p3437
tp3438
Rp3439
sVregister
p3440
g2
(g6
S'\xb3\x08\x00\x00'
p3441
tp3442
Rp3443
sVstewart
p3444
g2
(g6
S'\x17\n\x00\x00'
p3445
tp3446
Rp3447
sVplaying
p3448
g2
(g6
S'\xf9\x07\x00\x00'
p3449
tp3450
Rp3451
sVpaper
p3452
g2
(g6
S'\x95\x07\x00\x00'
p3453
tp3454
Rp3455
sVscott
p3456
g2
(g6
S'?\t\x00\x00'
p3457
tp3458
Rp3459
sVfilters
p3460
g2
(g6
S'-\x04\x00\x00'
p3461
tp3462
Rp3463
sVsigns
p3464
g2
(g6
S'\x94\t\x00\x00'
p3465
tp3466
Rp3467
sVbroadway
p3468
g2
(g6
S'\x84\x01\x00\x00'
p3469
tp3470
Rp3471
sVroots
p3472
g2
(g6
S'\x04\t\x00\x00'
p3473
tp3474
Rp3475
sV24
p3476
g2
(g6
S'-\x00\x00\x00'
p3477
tp3478
Rp3479
sV25
p3480
g2
(g6
S'.\x00\x00\x00'
p3481
tp3482
Rp3483
sV26
p3484
g2
(g6
S'/\x00\x00\x00'
p3485
tp3486
Rp3487
sV27
p3488
g2
(g6
S'0\x00\x00\x00'
p3489
tp3490
Rp3491
sV20
p3492
g2
(g6
S'\x1f\x00\x00\x00'
p3493
tp3494
Rp3495
sV21
p3496
g2
(g6
S"'\x00\x00\x00"
p3497
tp3498
Rp3499
sV22
p3500
g2
(g6
S'*\x00\x00\x00'
p3501
tp3502
Rp3503
sV23
p3504
g2
(g6
S'+\x00\x00\x00'
p3505
tp3506
Rp3507
sVpcs
p3508
g2
(g6
S'\xb3\x07\x00\x00'
p3509
tp3510
Rp3511
sV28
p3512
g2
(g6
S'1\x00\x00\x00'
p3513
tp3514
Rp3515
sV29
p3516
g2
(g6
S'2\x00\x00\x00'
p3517
tp3518
Rp3519
sVvan
p3520
g2
(g6
S'=\x0b\x00\x00'
p3521
tp3522
Rp3523
sVspeech
p3524
g2
(g6
S'\xda\t\x00\x00'
p3525
tp3526
Rp3527
sVpesto
p3528
g2
(g6
S'\xc9\x07\x00\x00'
p3529
tp3530
Rp3531
sVgood
p3532
g2
(g6
S'\xb4\x04\x00\x00'
p3533
tp3534
Rp3535
sVentire
p3536
g2
(g6
S'\xa7\x03\x00\x00'
p3537
tp3538
Rp3539
sVicymi
p3540
g2
(g6
S'X\x05\x00\x00'
p3541
tp3542
Rp3543
sVchannels
p3544
g2
(g6
S'\xe7\x01\x00\x00'
p3545
tp3546
Rp3547
sVspy
p3548
g2
(g6
S'\xf0\t\x00\x00'
p3549
tp3550
Rp3551
sVpositions
p3552
g2
(g6
S'\x10\x08\x00\x00'
p3553
tp3554
Rp3555
sV2m
p3556
g2
(g6
S'3\x00\x00\x00'
p3557
tp3558
Rp3559
sVexecs
p3560
g2
(g6
S'\xcf\x03\x00\x00'
p3561
tp3562
Rp3563
sVstatus
p3564
g2
(g6
S'\x0c\n\x00\x00'
p3565
tp3566
Rp3567
sVhouse
p3568
g2
(g6
S'D\x05\x00\x00'
p3569
tp3570
Rp3571
sVhard
p3572
g2
(g6
S'\xe9\x04\x00\x00'
p3573
tp3574
Rp3575
sVreduce
p3576
g2
(g6
S'\xab\x08\x00\x00'
p3577
tp3578
Rp3579
sVconnect
p3580
g2
(g6
S'_\x02\x00\x00'
p3581
tp3582
Rp3583
sVoperation
p3584
g2
(g6
S'r\x07\x00\x00'
p3585
tp3586
Rp3587
sVreally
p3588
g2
(g6
S'\x95\x08\x00\x00'
p3589
tp3590
Rp3591
sVtry
p3592
g2
(g6
S'\xf6\n\x00\x00'
p3593
tp3594
Rp3595
sVmissed
p3596
g2
(g6
S'\xed\x06\x00\x00'
p3597
tp3598
Rp3599
sVresearch
p3600
g2
(g6
S'\xca\x08\x00\x00'
p3601
tp3602
Rp3603
sVrace
p3604
g2
(g6
S'|\x08\x00\x00'
p3605
tp3606
Rp3607
sVsalute
p3608
g2
(g6
S'\x1e\t\x00\x00'
p3609
tp3610
Rp3611
sVextraordinary
p3612
g2
(g6
S'\xe9\x03\x00\x00'
p3613
tp3614
Rp3615
sVtoy
p3616
g2
(g6
S'\xd2\n\x00\x00'
p3617
tp3618
Rp3619
sVimagine
p3620
g2
(g6
S'f\x05\x00\x00'
p3621
tp3622
Rp3623
sVbacked
p3624
g2
(g6
S' \x01\x00\x00'
p3625
tp3626
Rp3627
sVbenefits
p3628
g2
(g6
S'8\x01\x00\x00'
p3629
tp3630
Rp3631
sVcomputers
p3632
g2
(g6
S'R\x02\x00\x00'
p3633
tp3634
Rp3635
sVapple
p3636
g2
(g6
S'\xdf\x00\x00\x00'
p3637
tp3638
Rp3639
sVpilots
p3640
g2
(g6
S'\xe4\x07\x00\x00'
p3641
tp3642
Rp3643
sVmajor
p3644
g2
(g6
S'\x8c\x06\x00\x00'
p3645
tp3646
Rp3647
sVpreservation
p3648
g2
(g6
S',\x08\x00\x00'
p3649
tp3650
Rp3651
sVbitcoin
p3652
g2
(g6
S'I\x01\x00\x00'
p3653
tp3654
Rp3655
sVpop
p3656
g2
(g6
S'\x08\x08\x00\x00'
p3657
tp3658
Rp3659
sVguess
p3660
g2
(g6
S'\xd0\x04\x00\x00'
p3661
tp3662
Rp3663
sVheads
p3664
g2
(g6
S'\xf5\x04\x00\x00'
p3665
tp3666
Rp3667
sVguest
p3668
g2
(g6
S'\xd1\x04\x00\x00'
p3669
tp3670
Rp3671
sV5th
p3672
g2
(g6
S'T\x00\x00\x00'
p3673
tp3674
Rp3675
sVnoms
p3676
g2
(g6
S'E\x07\x00\x00'
p3677
tp3678
Rp3679
sVadded
p3680
g2
(g6
S'\x92\x00\x00\x00'
p3681
tp3682
Rp3683
sVstatement
p3684
g2
(g6
S'\x07\n\x00\x00'
p3685
tp3686
Rp3687
sVopening
p3688
g2
(g6
S'o\x07\x00\x00'
p3689
tp3690
Rp3691
sVrelationship
p3692
g2
(g6
S'\xb5\x08\x00\x00'
p3693
tp3694
Rp3695
sVpark
p3696
g2
(g6
S'\x9a\x07\x00\x00'
p3697
tp3698
Rp3699
sVlivestream
p3700
g2
(g6
S'g\x06\x00\x00'
p3701
tp3702
Rp3703
sVfocusing
p3704
g2
(g6
S'K\x04\x00\x00'
p3705
tp3706
Rp3707
sVobama
p3708
g2
(g6
S'U\x07\x00\x00'
p3709
tp3710
Rp3711
sVapplebee
p3712
g2
(g6
S'\xe0\x00\x00\x00'
p3713
tp3714
Rp3715
sVx51
p3716
g2
(g6
S'\xce\x0b\x00\x00'
p3717
tp3718
Rp3719
sVmcfly
p3720
g2
(g6
S'\xb3\x06\x00\x00'
p3721
tp3722
Rp3723
sVvocal
p3724
g2
(g6
S'_\x0b\x00\x00'
p3725
tp3726
Rp3727
sVyouth
p3728
g2
(g6
S'\xdf\x0b\x00\x00'
p3729
tp3730
Rp3731
sV2020
p3732
g2
(g6
S'&\x00\x00\x00'
p3733
tp3734
Rp3735
sVinteractive
p3736
g2
(g6
S'\xa5\x05\x00\x00'
p3737
tp3738
Rp3739
sVgraphite
p3740
g2
(g6
S'\xc2\x04\x00\x00'
p3741
tp3742
Rp3743
sVorders
p3744
g2
(g6
S'y\x07\x00\x00'
p3745
tp3746
Rp3747
sVsell
p3748
g2
(g6
S'Z\t\x00\x00'
p3749
tp3750
Rp3751
sVbuilt
p3752
g2
(g6
S'\x92\x01\x00\x00'
p3753
tp3754
Rp3755
sVflared
p3756
g2
(g6
S'D\x04\x00\x00'
p3757
tp3758
Rp3759
sVself
p3760
g2
(g6
S'W\t\x00\x00'
p3761
tp3762
Rp3763
sVrecognizing
p3764
g2
(g6
S'\xa1\x08\x00\x00'
p3765
tp3766
Rp3767
sVbuild
p3768
g2
(g6
S'\x90\x01\x00\x00'
p3769
tp3770
Rp3771
sVplay
p3772
g2
(g6
S'\xf5\x07\x00\x00'
p3773
tp3774
Rp3775
sVeggs
p3776
g2
(g6
S'u\x03\x00\x00'
p3777
tp3778
Rp3779
sVchart
p3780
g2
(g6
S'\xee\x01\x00\x00'
p3781
tp3782
Rp3783
sVbrooklyn
p3784
g2
(g6
S'\x86\x01\x00\x00'
p3785
tp3786
Rp3787
sVplan
p3788
g2
(g6
S'\xeb\x07\x00\x00'
p3789
tp3790
Rp3791
sVservices
p3792
g2
(g6
S'g\t\x00\x00'
p3793
tp3794
Rp3795
sVkc
p3796
g2
(g6
S'\xf9\x05\x00\x00'
p3797
tp3798
Rp3799
sVq3
p3800
g2
(g6
S'o\x08\x00\x00'
p3801
tp3802
Rp3803
sVcover
p3804
g2
(g6
S'\x8c\x02\x00\x00'
p3805
tp3806
Rp3807
sVbullseye
p3808
g2
(g6
S'\x94\x01\x00\x00'
p3809
tp3810
Rp3811
sVmicrosoft
p3812
g2
(g6
S'\xd6\x06\x00\x00'
p3813
tp3814
Rp3815
sVjoining
p3816
g2
(g6
S'\xe1\x05\x00\x00'
p3817
tp3818
Rp3819
sVsector
p3820
g2
(g6
S'N\t\x00\x00'
p3821
tp3822
Rp3823
sVthomas
p3824
g2
(g6
S'\xa6\n\x00\x00'
p3825
tp3826
Rp3827
sVgold
p3828
g2
(g6
S'\xb3\x04\x00\x00'
p3829
tp3830
Rp3831
sVgates
p3832
g2
(g6
S'\x89\x04\x00\x00'
p3833
tp3834
Rp3835
sVsession
p3836
g2
(g6
S'i\t\x00\x00'
p3837
tp3838
Rp3839
sVbusinesses
p3840
g2
(g6
S'\x9b\x01\x00\x00'
p3841
tp3842
Rp3843
sVfinn
p3844
g2
(g6
S'=\x04\x00\x00'
p3845
tp3846
Rp3847
sVimpact
p3848
g2
(g6
S'g\x05\x00\x00'
p3849
tp3850
Rp3851
sVgiant
p3852
g2
(g6
S'\x9b\x04\x00\x00'
p3853
tp3854
Rp3855
sVmerger
p3856
g2
(g6
S'\xcb\x06\x00\x00'
p3857
tp3858
Rp3859
sVfactor
p3860
g2
(g6
S'\xf4\x03\x00\x00'
p3861
tp3862
Rp3863
sVvocalist
p3864
g2
(g6
S'`\x0b\x00\x00'
p3865
tp3866
Rp3867
sVweve
p3868
g2
(g6
S'\x96\x0b\x00\x00'
p3869
tp3870
Rp3871
sVluke
p3872
g2
(g6
S'\x82\x06\x00\x00'
p3873
tp3874
Rp3875
sVexpress
p3876
g2
(g6
S'\xe6\x03\x00\x00'
p3877
tp3878
Rp3879
sVvaluable
p3880
g2
(g6
S';\x0b\x00\x00'
p3881
tp3882
Rp3883
sVdonald
p3884
g2
(g6
S'<\x03\x00\x00'
p3885
tp3886
Rp3887
sVrestart
p3888
g2
(g6
S'\xd2\x08\x00\x00'
p3889
tp3890
Rp3891
sVriver
p3892
g2
(g6
S'\xf0\x08\x00\x00'
p3893
tp3894
Rp3895
sVapproaching
p3896
g2
(g6
S'\xe5\x00\x00\x00'
p3897
tp3898
Rp3899
sVset
p3900
g2
(g6
S'j\t\x00\x00'
p3901
tp3902
Rp3903
sVstartup
p3904
g2
(g6
S'\x04\n\x00\x00'
p3905
tp3906
Rp3907
sVefss
p3908
g2
(g6
S't\x03\x00\x00'
p3909
tp3910
Rp3911
sVtip
p3912
g2
(g6
S'\xb5\n\x00\x00'
p3913
tp3914
Rp3915
sVlion
p3916
g2
(g6
S']\x06\x00\x00'
p3917
tp3918
Rp3919
sVmigration
p3920
g2
(g6
S'\xdb\x06\x00\x00'
p3921
tp3922
Rp3923
sVexpert
p3924
g2
(g6
S'\xdc\x03\x00\x00'
p3925
tp3926
Rp3927
sVvisiting
p3928
g2
(g6
S'\\\x0b\x00\x00'
p3929
tp3930
Rp3931
sVmovie
p3932
g2
(g6
S'\x12\x07\x00\x00'
p3933
tp3934
Rp3935
sVcurrently
p3936
g2
(g6
S'\xb4\x02\x00\x00'
p3937
tp3938
Rp3939
sVfans
p3940
g2
(g6
S'\xff\x03\x00\x00'
p3941
tp3942
Rp3943
sVeurope
p3944
g2
(g6
S'\xc0\x03\x00\x00'
p3945
tp3946
Rp3947
sVnashville
p3948
g2
(g6
S' \x07\x00\x00'
p3949
tp3950
Rp3951
sVinterface
p3952
g2
(g6
S'\xa7\x05\x00\x00'
p3953
tp3954
Rp3955
sVempowering
p3956
g2
(g6
S'\x89\x03\x00\x00'
p3957
tp3958
Rp3959
sVenables
p3960
g2
(g6
S'\x8e\x03\x00\x00'
p3961
tp3962
Rp3963
sVimproved
p3964
g2
(g6
S'n\x05\x00\x00'
p3965
tp3966
Rp3967
sVopal
p3968
g2
(g6
S'l\x07\x00\x00'
p3969
tp3970
Rp3971
sVpdt
p3972
g2
(g6
S'\xb4\x07\x00\x00'
p3973
tp3974
Rp3975
sVstacey
p3976
g2
(g6
S'\xf4\t\x00\x00'
p3977
tp3978
Rp3979
sVimproves
p3980
g2
(g6
S'o\x05\x00\x00'
p3981
tp3982
Rp3983
sVscams
p3984
g2
(g6
S'1\t\x00\x00'
p3985
tp3986
Rp3987
sVbaltimore
p3988
g2
(g6
S'$\x01\x00\x00'
p3989
tp3990
Rp3991
sVsimple
p3992
g2
(g6
S'\x97\t\x00\x00'
p3993
tp3994
Rp3995
sVcommunity
p3996
g2
(g6
S'I\x02\x00\x00'
p3997
tp3998
Rp3999
sVboyega
p4000
g2
(g6
S'i\x01\x00\x00'
p4001
tp4002
Rp4003
sVpm
p4004
g2
(g6
S'\xfd\x07\x00\x00'
p4005
tp4006
Rp4007
sVdesktop
p4008
g2
(g6
S'\x03\x03\x00\x00'
p4009
tp4010
Rp4011
sVplatinum
p4012
g2
(g6
S'\xf4\x07\x00\x00'
p4013
tp4014
Rp4015
sVkernels
p4016
g2
(g6
S'\xfe\x05\x00\x00'
p4017
tp4018
Rp4019
sVmonthly
p4020
g2
(g6
S'\x04\x07\x00\x00'
p4021
tp4022
Rp4023
sVcreate
p4024
g2
(g6
S'\x96\x02\x00\x00'
p4025
tp4026
Rp4027
sVcreativity
p4028
g2
(g6
S'\x9a\x02\x00\x00'
p4029
tp4030
Rp4031
sVsecret
p4032
g2
(g6
S'L\t\x00\x00'
p4033
tp4034
Rp4035
sVireland
p4036
g2
(g6
S'\xbe\x05\x00\x00'
p4037
tp4038
Rp4039
sVmeeting
p4040
g2
(g6
S'\xbd\x06\x00\x00'
p4041
tp4042
Rp4043
sVfirm
p4044
g2
(g6
S'>\x04\x00\x00'
p4045
tp4046
Rp4047
sVgap
p4048
g2
(g6
S'\x83\x04\x00\x00'
p4049
tp4050
Rp4051
sVfund
p4052
g2
(g6
S'r\x04\x00\x00'
p4053
tp4054
Rp4055
sVsleeves
p4056
g2
(g6
S'\xad\t\x00\x00'
p4057
tp4058
Rp4059
sVinsiders
p4060
g2
(g6
S'\x95\x05\x00\x00'
p4061
tp4062
Rp4063
sVmlb
p4064
g2
(g6
S'\xf1\x06\x00\x00'
p4065
tp4066
Rp4067
sVtalking
p4068
g2
(g6
S't\n\x00\x00'
p4069
tp4070
Rp4071
sVsolid
p4072
g2
(g6
S'\xc5\t\x00\x00'
p4073
tp4074
Rp4075
sVstraight
p4076
g2
(g6
S'#\n\x00\x00'
p4077
tp4078
Rp4079
sVexpanded
p4080
g2
(g6
S'\xd4\x03\x00\x00'
p4081
tp4082
Rp4083
sVconvo
p4084
g2
(g6
S'u\x02\x00\x00'
p4085
tp4086
Rp4087
sVbudget
p4088
g2
(g6
S'\x8d\x01\x00\x00'
p4089
tp4090
Rp4091
sVtechnical
p4092
g2
(g6
S'\x86\n\x00\x00'
p4093
tp4094
Rp4095
sVfeminism
p4096
g2
(g6
S'\x1f\x04\x00\x00'
p4097
tp4098
Rp4099
sV32
p4100
g2
(g6
S'<\x00\x00\x00'
p4101
tp4102
Rp4103
sVfun
p4104
g2
(g6
S'p\x04\x00\x00'
p4105
tp4106
Rp4107
sVchildcare
p4108
g2
(g6
S'\xfc\x01\x00\x00'
p4109
tp4110
Rp4111
sVvod
p4112
g2
(g6
S'a\x0b\x00\x00'
p4113
tp4114
Rp4115
sVage
p4116
g2
(g6
S'\xa4\x00\x00\x00'
p4117
tp4118
Rp4119
sVvon
p4120
g2
(g6
S'g\x0b\x00\x00'
p4121
tp4122
Rp4123
sVmoto
p4124
g2
(g6
S'\x0b\x07\x00\x00'
p4125
tp4126
Rp4127
sVtriple
p4128
g2
(g6
S'\xef\n\x00\x00'
p4129
tp4130
Rp4131
sVrules
p4132
g2
(g6
S'\x0e\t\x00\x00'
p4133
tp4134
Rp4135
sVray
p4136
g2
(g6
S'\x8b\x08\x00\x00'
p4137
tp4138
Rp4139
sVday
p4140
g2
(g6
S'\xd4\x02\x00\x00'
p4141
tp4142
Rp4143
sVdevelopment
p4144
g2
(g6
S'\t\x03\x00\x00'
p4145
tp4146
Rp4147
sVnetflixhhttgpartybus
p4148
g2
(g6
S'3\x07\x00\x00'
p4149
tp4150
Rp4151
sVyesterday
p4152
g2
(g6
S'\xd9\x0b\x00\x00'
p4153
tp4154
Rp4155
sVviewing
p4156
g2
(g6
S'Q\x0b\x00\x00'
p4157
tp4158
Rp4159
sVrecent
p4160
g2
(g6
S'\x9c\x08\x00\x00'
p4161
tp4162
Rp4163
sVearly
p4164
g2
(g6
S']\x03\x00\x00'
p4165
tp4166
Rp4167
sVpicks
p4168
g2
(g6
S'\xdc\x07\x00\x00'
p4169
tp4170
Rp4171
sVtheatres
p4172
g2
(g6
S'\x9c\n\x00\x00'
p4173
tp4174
Rp4175
sV87c
p4176
g2
(g6
S'd\x00\x00\x00'
p4177
tp4178
Rp4179
sVceo
p4180
g2
(g6
S'\xda\x01\x00\x00'
p4181
tp4182
Rp4183
sV109c
p4184
g2
(g6
S'\x06\x00\x00\x00'
p4185
tp4186
Rp4187
sVwearable
p4188
g2
(g6
S'\x86\x0b\x00\x00'
p4189
tp4190
Rp4191
sValignment
p4192
g2
(g6
S'\xb5\x00\x00\x00'
p4193
tp4194
Rp4195
sVcoppoletta
p4196
g2
(g6
S'|\x02\x00\x00'
p4197
tp4198
Rp4199
sVletting
p4200
g2
(g6
S'J\x06\x00\x00'
p4201
tp4202
Rp4203
sVcut
p4204
g2
(g6
S'\xbe\x02\x00\x00'
p4205
tp4206
Rp4207
sVcus
p4208
g2
(g6
S'\xb9\x02\x00\x00'
p4209
tp4210
Rp4211
sVreaders
p4212
g2
(g6
S'\x90\x08\x00\x00'
p4213
tp4214
Rp4215
sVsurprises
p4216
g2
(g6
S'V\n\x00\x00'
p4217
tp4218
Rp4219
sVipads
p4220
g2
(g6
S'\xba\x05\x00\x00'
p4221
tp4222
Rp4223
sVhues
p4224
g2
(g6
S'J\x05\x00\x00'
p4225
tp4226
Rp4227
sVparents
p4228
g2
(g6
S'\x98\x07\x00\x00'
p4229
tp4230
Rp4231
sVlocation
p4232
g2
(g6
S'l\x06\x00\x00'
p4233
tp4234
Rp4235
sVsnap
p4236
g2
(g6
S'\xb7\t\x00\x00'
p4237
tp4238
Rp4239
sVexcited
p4240
g2
(g6
S'\xc9\x03\x00\x00'
p4241
tp4242
Rp4243
sVsurprised
p4244
g2
(g6
S'U\n\x00\x00'
p4245
tp4246
Rp4247
sVemergency
p4248
g2
(g6
S'\x81\x03\x00\x00'
p4249
tp4250
Rp4251
sVbig
p4252
g2
(g6
S'@\x01\x00\x00'
p4253
tp4254
Rp4255
sVcouple
p4256
g2
(g6
S'\x89\x02\x00\x00'
p4257
tp4258
Rp4259
sVintegrations
p4260
g2
(g6
S'\xa2\x05\x00\x00'
p4261
tp4262
Rp4263
sVmatters
p4264
g2
(g6
S'\xaf\x06\x00\x00'
p4265
tp4266
Rp4267
sVquest
p4268
g2
(g6
S'u\x08\x00\x00'
p4269
tp4270
Rp4271
sVprivate
p4272
g2
(g6
S'9\x08\x00\x00'
p4273
tp4274
Rp4275
sVsustainable
p4276
g2
(g6
S'[\n\x00\x00'
p4277
tp4278
Rp4279
sVprojects
p4280
g2
(g6
S'O\x08\x00\x00'
p4281
tp4282
Rp4283
sVcommunications
p4284
g2
(g6
S'G\x02\x00\x00'
p4285
tp4286
Rp4287
sVcontinue
p4288
g2
(g6
S'm\x02\x00\x00'
p4289
tp4290
Rp4291
sVstylish
p4292
g2
(g6
S':\n\x00\x00'
p4293
tp4294
Rp4295
sVgoogle
p4296
g2
(g6
S'\xb5\x04\x00\x00'
p4297
tp4298
Rp4299
sVspring
p4300
g2
(g6
S'\xee\t\x00\x00'
p4301
tp4302
Rp4303
sVstrongest
p4304
g2
(g6
S'/\n\x00\x00'
p4305
tp4306
Rp4307
sVpricing
p4308
g2
(g6
S'3\x08\x00\x00'
p4309
tp4310
Rp4311
sVcurious
p4312
g2
(g6
S'\xb2\x02\x00\x00'
p4313
tp4314
Rp4315
sVsprint
p4316
g2
(g6
S'\xef\t\x00\x00'
p4317
tp4318
Rp4319
sV30c
p4320
g2
(g6
S'9\x00\x00\x00'
p4321
tp4322
Rp4323
sVlars
p4324
g2
(g6
S'#\x06\x00\x00'
p4325
tp4326
Rp4327
sVscale
p4328
g2
(g6
S'0\t\x00\x00'
p4329
tp4330
Rp4331
sVpet
p4332
g2
(g6
S'\xca\x07\x00\x00'
p4333
tp4334
Rp4335
sVintegration
p4336
g2
(g6
S'\xa1\x05\x00\x00'
p4337
tp4338
Rp4339
sVcast
p4340
g2
(g6
S'\xca\x01\x00\x00'
p4341
tp4342
Rp4343
sVconnecting
p4344
g2
(g6
S'a\x02\x00\x00'
p4345
tp4346
Rp4347
sVdating
p4348
g2
(g6
S'\xd0\x02\x00\x00'
p4349
tp4350
Rp4351
sV300
p4352
g2
(g6
S'7\x00\x00\x00'
p4353
tp4354
Rp4355
sVcontinuing
p4356
g2
(g6
S'o\x02\x00\x00'
p4357
tp4358
Rp4359
sVcheered
p4360
g2
(g6
S'\xf4\x01\x00\x00'
p4361
tp4362
Rp4363
sVserved
p4364
g2
(g6
S'd\t\x00\x00'
p4365
tp4366
Rp4367
sVusb
p4368
g2
(g6
S'-\x0b\x00\x00'
p4369
tp4370
Rp4371
sVdeserved
p4372
g2
(g6
S'\xfc\x02\x00\x00'
p4373
tp4374
Rp4375
sVnetflix
p4376
g2
(g6
S'2\x07\x00\x00'
p4377
tp4378
Rp4379
sVclinton
p4380
g2
(g6
S'\x1d\x02\x00\x00'
p4381
tp4382
Rp4383
sVgrammy
p4384
g2
(g6
S'\xbd\x04\x00\x00'
p4385
tp4386
Rp4387
sVhometown
p4388
g2
(g6
S'/\x05\x00\x00'
p4389
tp4390
Rp4391
sVretailer
p4392
g2
(g6
S'\xd6\x08\x00\x00'
p4393
tp4394
Rp4395
sVservers
p4396
g2
(g6
S'e\t\x00\x00'
p4397
tp4398
Rp4399
sVsteven
p4400
g2
(g6
S'\x16\n\x00\x00'
p4401
tp4402
Rp4403
sVrisk
p4404
g2
(g6
S'\xee\x08\x00\x00'
p4405
tp4406
Rp4407
sVsubmit
p4408
g2
(g6
S';\n\x00\x00'
p4409
tp4410
Rp4411
sVcustom
p4412
g2
(g6
S'\xbb\x02\x00\x00'
p4413
tp4414
Rp4415
sVchs
p4416
g2
(g6
S'\x0b\x02\x00\x00'
p4417
tp4418
Rp4419
sVsuit
p4420
g2
(g6
S'@\n\x00\x00'
p4421
tp4422
Rp4423
sVforward
p4424
g2
(g6
S'_\x04\x00\x00'
p4425
tp4426
Rp4427
sVboys
p4428
g2
(g6
S'j\x01\x00\x00'
p4429
tp4430
Rp4431
sVlink
p4432
g2
(g6
S'\\\x06\x00\x00'
p4433
tp4434
Rp4435
sVpacific
p4436
g2
(g6
S'\x8a\x07\x00\x00'
p4437
tp4438
Rp4439
sVdon
p4440
g2
(g6
S';\x03\x00\x00'
p4441
tp4442
Rp4443
sVline
p4444
g2
(g6
S'Z\x06\x00\x00'
p4445
tp4446
Rp4447
sVjonathan
p4448
g2
(g6
S'\xe6\x05\x00\x00'
p4449
tp4450
Rp4451
sVux
p4452
g2
(g6
S'8\x0b\x00\x00'
p4453
tp4454
Rp4455
sVcio
p4456
g2
(g6
S'\x0c\x02\x00\x00'
p4457
tp4458
Rp4459
sVplanet
p4460
g2
(g6
S'\xec\x07\x00\x00'
p4461
tp4462
Rp4463
sVexploration
p4464
g2
(g6
S'\xe1\x03\x00\x00'
p4465
tp4466
Rp4467
sVuk
p4468
g2
(g6
S'\x0f\x0b\x00\x00'
p4469
tp4470
Rp4471
sVautonomous
p4472
g2
(g6
S'\r\x01\x00\x00'
p4473
tp4474
Rp4475
sVdefined
p4476
g2
(g6
S'\xe7\x02\x00\x00'
p4477
tp4478
Rp4479
sVmetal
p4480
g2
(g6
S'\xd0\x06\x00\x00'
p4481
tp4482
Rp4483
sVinfluence
p4484
g2
(g6
S'\x86\x05\x00\x00'
p4485
tp4486
Rp4487
sVsingle
p4488
g2
(g6
S'\x9e\t\x00\x00'
p4489
tp4490
Rp4491
sVdiverse
p4492
g2
(g6
S'(\x03\x00\x00'
p4493
tp4494
Rp4495
sVchat
p4496
g2
(g6
S'\xef\x01\x00\x00'
p4497
tp4498
Rp4499
sVkombat
p4500
g2
(g6
S'\x12\x06\x00\x00'
p4501
tp4502
Rp4503
sV6th
p4504
g2
(g6
S'Y\x00\x00\x00'
p4505
tp4506
Rp4507
sVjcp
p4508
g2
(g6
S'\xcd\x05\x00\x00'
p4509
tp4510
Rp4511
sV950
p4512
g2
(g6
S'k\x00\x00\x00'
p4513
tp4514
Rp4515
sVcami
p4516
g2
(g6
S'\xaa\x01\x00\x00'
p4517
tp4518
Rp4519
sVcaracal
p4520
g2
(g6
S'\xb8\x01\x00\x00'
p4521
tp4522
Rp4523
sVelements
p4524
g2
(g6
S'z\x03\x00\x00'
p4525
tp4526
Rp4527
sVlend
p4528
g2
(g6
S'F\x06\x00\x00'
p4529
tp4530
Rp4531
sVfavourite
p4532
g2
(g6
S'\r\x04\x00\x00'
p4533
tp4534
Rp4535
sVpapa
p4536
g2
(g6
S'\x93\x07\x00\x00'
p4537
tp4538
Rp4539
sVprepared
p4540
g2
(g6
S'$\x08\x00\x00'
p4541
tp4542
Rp4543
sVsarandos
p4544
g2
(g6
S'#\t\x00\x00'
p4545
tp4546
Rp4547
sVmeals
p4548
g2
(g6
S'\xb4\x06\x00\x00'
p4549
tp4550
Rp4551
sVland
p4552
g2
(g6
S'\x1b\x06\x00\x00'
p4553
tp4554
Rp4555
sVrescued
p4556
g2
(g6
S'\xc9\x08\x00\x00'
p4557
tp4558
Rp4559
sVsummit
p4560
g2
(g6
S'C\n\x00\x00'
p4561
tp4562
Rp4563
sVfresh
p4564
g2
(g6
S'i\x04\x00\x00'
p4565
tp4566
Rp4567
sVhaving
p4568
g2
(g6
S'\xf1\x04\x00\x00'
p4569
tp4570
Rp4571
sVcode
p4572
g2
(g6
S'-\x02\x00\x00'
p4573
tp4574
Rp4575
sVresults
p4576
g2
(g6
S'\xd3\x08\x00\x00'
p4577
tp4578
Rp4579
sVastronauts
p4580
g2
(g6
S'\xfa\x00\x00\x00'
p4581
tp4582
Rp4583
sVsofter
p4584
g2
(g6
S'\xc0\t\x00\x00'
p4585
tp4586
Rp4587
sVdocter
p4588
g2
(g6
S'1\x03\x00\x00'
p4589
tp4590
Rp4591
sVyoung
p4592
g2
(g6
S'\xdd\x0b\x00\x00'
p4593
tp4594
Rp4595
sVsend
p4596
g2
(g6
S'\\\t\x00\x00'
p4597
tp4598
Rp4599
sVhelps
p4600
g2
(g6
S'\x06\x05\x00\x00'
p4601
tp4602
Rp4603
sVresources
p4604
g2
(g6
S'\xcf\x08\x00\x00'
p4605
tp4606
Rp4607
sVuploaded
p4608
g2
(g6
S'*\x0b\x00\x00'
p4609
tp4610
Rp4611
sVlabels
p4612
g2
(g6
S'\x17\x06\x00\x00'
p4613
tp4614
Rp4615
sVgarden
p4616
g2
(g6
S'\x86\x04\x00\x00'
p4617
tp4618
Rp4619
sVtorture
p4620
g2
(g6
S'\xc9\n\x00\x00'
p4621
tp4622
Rp4623
sVcontinues
p4624
g2
(g6
S'n\x02\x00\x00'
p4625
tp4626
Rp4627
sVtrendsetters
p4628
g2
(g6
S'\xeb\n\x00\x00'
p4629
tp4630
Rp4631
sVputting
p4632
g2
(g6
S'l\x08\x00\x00'
p4633
tp4634
Rp4635
sVsurgeon
p4636
g2
(g6
S'R\n\x00\x00'
p4637
tp4638
Rp4639
sVmagic
p4640
g2
(g6
S'\x89\x06\x00\x00'
p4641
tp4642
Rp4643
sVsalad
p4644
g2
(g6
S'\x1b\t\x00\x00'
p4645
tp4646
Rp4647
sVeve
p4648
g2
(g6
S'\xc2\x03\x00\x00'
p4649
tp4650
Rp4651
sVevp
p4652
g2
(g6
S'\xc7\x03\x00\x00'
p4653
tp4654
Rp4655
sVbernie
p4656
g2
(g6
S'9\x01\x00\x00'
p4657
tp4658
Rp4659
sVrivers
p4660
g2
(g6
S'\xf2\x08\x00\x00'
p4661
tp4662
Rp4663
sVfurry
p4664
g2
(g6
S't\x04\x00\x00'
p4665
tp4666
Rp4667
sVvideo
p4668
g2
(g6
S'N\x0b\x00\x00'
p4669
tp4670
Rp4671
sVrivera
p4672
g2
(g6
S'\xf1\x08\x00\x00'
p4673
tp4674
Rp4675
sVsoftware
p4676
g2
(g6
S'\xc1\t\x00\x00'
p4677
tp4678
Rp4679
sVstede
p4680
g2
(g6
S'\x11\n\x00\x00'
p4681
tp4682
Rp4683
sVchicago
p4684
g2
(g6
S'\xf8\x01\x00\x00'
p4685
tp4686
Rp4687
sVgiving
p4688
g2
(g6
S'\xa6\x04\x00\x00'
p4689
tp4690
Rp4691
sVavailability
p4692
g2
(g6
S'\x0f\x01\x00\x00'
p4693
tp4694
Rp4695
sVaccess
p4696
g2
(g6
S'y\x00\x00\x00'
p4697
tp4698
Rp4699
sVindian
p4700
g2
(g6
S'\x81\x05\x00\x00'
p4701
tp4702
Rp4703
sVkayaker
p4704
g2
(g6
S'\xf8\x05\x00\x00'
p4705
tp4706
Rp4707
sVexercise
p4708
g2
(g6
S'\xd1\x03\x00\x00'
p4709
tp4710
Rp4711
sV3d
p4712
g2
(g6
S'C\x00\x00\x00'
p4713
tp4714
Rp4715
sVbody
p4716
g2
(g6
S'Z\x01\x00\x00'
p4717
tp4718
Rp4719
sVussernmhere
p4720
g2
(g6
S'6\x0b\x00\x00'
p4721
tp4722
Rp4723
sVorleans
p4724
g2
(g6
S'|\x07\x00\x00'
p4725
tp4726
Rp4727
sVgot
p4728
g2
(g6
S'\xb8\x04\x00\x00'
p4729
tp4730
Rp4731
sVdelivering
p4732
g2
(g6
S'\xeb\x02\x00\x00'
p4733
tp4734
Rp4735
sVpacking
p4736
g2
(g6
S'\x8e\x07\x00\x00'
p4737
tp4738
Rp4739
sVlet
p4740
g2
(g6
S'H\x06\x00\x00'
p4741
tp4742
Rp4743
sVsing
p4744
g2
(g6
S'\x9a\t\x00\x00'
p4745
tp4746
Rp4747
sVsafer
p4748
g2
(g6
S'\x18\t\x00\x00'
p4749
tp4750
Rp4751
sVextreme
p4752
g2
(g6
S'\xea\x03\x00\x00'
p4753
tp4754
Rp4755
sVgreat
p4756
g2
(g6
S'\xc3\x04\x00\x00'
p4757
tp4758
Rp4759
sVtalent
p4760
g2
(g6
S'p\n\x00\x00'
p4761
tp4762
Rp4763
sVreceive
p4764
g2
(g6
S'\x9a\x08\x00\x00'
p4765
tp4766
Rp4767
sV31
p4768
g2
(g6
S';\x00\x00\x00'
p4769
tp4770
Rp4771
sV30
p4772
g2
(g6
S'6\x00\x00\x00'
p4773
tp4774
Rp4775
sV36
p4776
g2
(g6
S'@\x00\x00\x00'
p4777
tp4778
Rp4779
sV35
p4780
g2
(g6
S'?\x00\x00\x00'
p4781
tp4782
Rp4783
sV34
p4784
g2
(g6
S'=\x00\x00\x00'
p4785
tp4786
Rp4787
sVsurvey
p4788
g2
(g6
S'Y\n\x00\x00'
p4789
tp4790
Rp4791
sVpremiering
p4792
g2
(g6
S'!\x08\x00\x00'
p4793
tp4794
Rp4795
sVresidents
p4796
g2
(g6
S'\xcc\x08\x00\x00'
p4797
tp4798
Rp4799
sVmakes
p4800
g2
(g6
S'\x90\x06\x00\x00'
p4801
tp4802
Rp4803
sVmaker
p4804
g2
(g6
S'\x8f\x06\x00\x00'
p4805
tp4806
Rp4807
sVthats
p4808
g2
(g6
S'\x9b\n\x00\x00'
p4809
tp4810
Rp4811
sVnamed
p4812
g2
(g6
S'\x1c\x07\x00\x00'
p4813
tp4814
Rp4815
sVnames
p4816
g2
(g6
S'\x1d\x07\x00\x00'
p4817
tp4818
Rp4819
sVresolutions
p4820
g2
(g6
S'\xcd\x08\x00\x00'
p4821
tp4822
Rp4823
sVtools
p4824
g2
(g6
S'\xc5\n\x00\x00'
p4825
tp4826
Rp4827
sVgateway
p4828
g2
(g6
S'\x8a\x04\x00\x00'
p4829
tp4830
Rp4831
sVbush
p4832
g2
(g6
S'\x99\x01\x00\x00'
p4833
tp4834
Rp4835
sVdoubt
p4836
g2
(g6
S'B\x03\x00\x00'
p4837
tp4838
Rp4839
sVupcoming
p4840
g2
(g6
S'%\x0b\x00\x00'
p4841
tp4842
Rp4843
sVcarrying
p4844
g2
(g6
S'\xc5\x01\x00\x00'
p4845
tp4846
Rp4847
sVbaby
p4848
g2
(g6
S'\x1f\x01\x00\x00'
p4849
tp4850
Rp4851
sVok
p4852
g2
(g6
S'e\x07\x00\x00'
p4853
tp4854
Rp4855
sVcustomer
p4856
g2
(g6
S'\xbc\x02\x00\x00'
p4857
tp4858
Rp4859
sVaccount
p4860
g2
(g6
S'\x7f\x00\x00\x00'
p4861
tp4862
Rp4863
sVathlete
p4864
g2
(g6
S'\xfb\x00\x00\x00'
p4865
tp4866
Rp4867
sVclients
p4868
g2
(g6
S'\x1b\x02\x00\x00'
p4869
tp4870
Rp4871
sVfavreau
p4872
g2
(g6
S'\x0e\x04\x00\x00'
p4873
tp4874
Rp4875
sVindustrial
p4876
g2
(g6
S'\x82\x05\x00\x00'
p4877
tp4878
Rp4879
sVdisabilities
p4880
g2
(g6
S'\x1a\x03\x00\x00'
p4881
tp4882
Rp4883
sVlocal
p4884
g2
(g6
S'j\x06\x00\x00'
p4885
tp4886
Rp4887
sVprocess
p4888
g2
(g6
S'@\x08\x00\x00'
p4889
tp4890
Rp4891
sVpieces
p4892
g2
(g6
S'\xe1\x07\x00\x00'
p4893
tp4894
Rp4895
sVhigh
p4896
g2
(g6
S'\x16\x05\x00\x00'
p4897
tp4898
Rp4899
sVprosupport
p4900
g2
(g6
S'S\x08\x00\x00'
p4901
tp4902
Rp4903
sVdocking
p4904
g2
(g6
S'/\x03\x00\x00'
p4905
tp4906
Rp4907
sVdemocracy
p4908
g2
(g6
S'\xf4\x02\x00\x00'
p4909
tp4910
Rp4911
sVholds
p4912
g2
(g6
S')\x05\x00\x00'
p4913
tp4914
Rp4915
sVwinners
p4916
g2
(g6
S'\xa6\x0b\x00\x00'
p4917
tp4918
Rp4919
sVcomedy
p4920
g2
(g6
S';\x02\x00\x00'
p4921
tp4922
Rp4923
sVstock
p4924
g2
(g6
S'\x19\n\x00\x00'
p4925
tp4926
Rp4927
sVfran
p4928
g2
(g6
S'b\x04\x00\x00'
p4929
tp4930
Rp4931
sVyouve
p4932
g2
(g6
S'\xe1\x0b\x00\x00'
p4933
tp4934
Rp4935
sVdc
p4936
g2
(g6
S'\xd7\x02\x00\x00'
p4937
tp4938
Rp4939
sVefficiently
p4940
g2
(g6
S'r\x03\x00\x00'
p4941
tp4942
Rp4943
sVdiscusses
p4944
g2
(g6
S'!\x03\x00\x00'
p4945
tp4946
Rp4947
sV9am
p4948
g2
(g6
S'n\x00\x00\x00'
p4949
tp4950
Rp4951
sVchief
p4952
g2
(g6
S'\xfa\x01\x00\x00'
p4953
tp4954
Rp4955
sVaddiction
p4956
g2
(g6
S'\x93\x00\x00\x00'
p4957
tp4958
Rp4959
sVvolunteers
p4960
g2
(g6
S'f\x0b\x00\x00'
p4961
tp4962
Rp4963
sVproducer
p4964
g2
(g6
S'B\x08\x00\x00'
p4965
tp4966
Rp4967
sVinaugural
p4968
g2
(g6
S'q\x05\x00\x00'
p4969
tp4970
Rp4971
sVgalaxy
p4972
g2
(g6
S'}\x04\x00\x00'
p4973
tp4974
Rp4975
sVperfect
p4976
g2
(g6
S'\xbc\x07\x00\x00'
p4977
tp4978
Rp4979
sVbridges
p4980
g2
(g6
S'y\x01\x00\x00'
p4981
tp4982
Rp4983
sVla
p4984
g2
(g6
S'\x15\x06\x00\x00'
p4985
tp4986
Rp4987
sVll
p4988
g2
(g6
S'i\x06\x00\x00'
p4989
tp4990
Rp4991
sV2015
p4992
g2
(g6
S'$\x00\x00\x00'
p4993
tp4994
Rp4995
sV2014
p4996
g2
(g6
S'#\x00\x00\x00'
p4997
tp4998
Rp4999
sV2016
p5000
g2
(g6
S'%\x00\x00\x00'
p5001
tp5002
Rp5003
sV2011
p5004
g2
(g6
S'"\x00\x00\x00'
p5005
tp5006
Rp5007
sV2010
p5008
g2
(g6
S'!\x00\x00\x00'
p5009
tp5010
Rp5011
sVdesigns
p5012
g2
(g6
S'\x01\x03\x00\x00'
p5013
tp5014
Rp5015
sVlater
p5016
g2
(g6
S"'\x06\x00\x00"
p5017
tp5018
Rp5019
sVdocs
p5020
g2
(g6
S'0\x03\x00\x00'
p5021
tp5022
Rp5023
sVtoshiba
p5024
g2
(g6
S'\xca\n\x00\x00'
p5025
tp5026
Rp5027
sVcutting
p5028
g2
(g6
S'\xc0\x02\x00\x00'
p5029
tp5030
Rp5031
sVsnapchat
p5032
g2
(g6
S'\xb8\t\x00\x00'
p5033
tp5034
Rp5035
sVcage
p5036
g2
(g6
S'\xa1\x01\x00\x00'
p5037
tp5038
Rp5039
sVpresidential
p5040
g2
(g6
S'.\x08\x00\x00'
p5041
tp5042
Rp5043
sVthrill
p5044
g2
(g6
S'\xab\n\x00\x00'
p5045
tp5046
Rp5047
sVcountries
p5048
g2
(g6
S'\x85\x02\x00\x00'
p5049
tp5050
Rp5051
sVminimalism
p5052
g2
(g6
S'\xe7\x06\x00\x00'
p5053
tp5054
Rp5055
sVrising
p5056
g2
(g6
S'\xed\x08\x00\x00'
p5057
tp5058
Rp5059
sVactivate
p5060
g2
(g6
S'\x88\x00\x00\x00'
p5061
tp5062
Rp5063
sVjones
p5064
g2
(g6
S'\xe7\x05\x00\x00'
p5065
tp5066
Rp5067
sVdoing
p5068
g2
(g6
S'7\x03\x00\x00'
p5069
tp5070
Rp5071
sVrockstars
p5072
g2
(g6
S'\xfd\x08\x00\x00'
p5073
tp5074
Rp5075
sVbooks
p5076
g2
(g6
S'_\x01\x00\x00'
p5077
tp5078
Rp5079
sVmatt
p5080
g2
(g6
S'\xad\x06\x00\x00'
p5081
tp5082
Rp5083
sVboutique
p5084
g2
(g6
S'e\x01\x00\x00'
p5085
tp5086
Rp5087
sVjessica
p5088
g2
(g6
S'\xd7\x05\x00\x00'
p5089
tp5090
Rp5091
sVcollection
p5092
g2
(g6
S'2\x02\x00\x00'
p5093
tp5094
Rp5095
sVrecipes
p5096
g2
(g6
S'\x9f\x08\x00\x00'
p5097
tp5098
Rp5099
sValbanos
p5100
g2
(g6
S'\xb1\x00\x00\x00'
p5101
tp5102
Rp5103
sVdavid
p5104
g2
(g6
S'\xd2\x02\x00\x00'
p5105
tp5106
Rp5107
sVmortal
p5108
g2
(g6
S'\x08\x07\x00\x00'
p5109
tp5110
Rp5111
sVretail
p5112
g2
(g6
S'\xd5\x08\x00\x00'
p5113
tp5114
Rp5115
sVsouth
p5116
g2
(g6
S'\xd1\t\x00\x00'
p5117
tp5118
Rp5119
sVscene
p5120
g2
(g6
S'7\t\x00\x00'
p5121
tp5122
Rp5123
sVowned
p5124
g2
(g6
S'\x85\x07\x00\x00'
p5125
tp5126
Rp5127
sVphiladelphia
p5128
g2
(g6
S'\xcf\x07\x00\x00'
p5129
tp5130
Rp5131
sVowner
p5132
g2
(g6
S'\x86\x07\x00\x00'
p5133
tp5134
Rp5135
sVpandemic
p5136
g2
(g6
S'\x91\x07\x00\x00'
p5137
tp5138
Rp5139
sVfestival
p5140
g2
(g6
S' \x04\x00\x00'
p5141
tp5142
Rp5143
sVaniston
p5144
g2
(g6
S'\xcc\x00\x00\x00'
p5145
tp5146
Rp5147
sVlot
p5148
g2
(g6
S't\x06\x00\x00'
p5149
tp5150
Rp5151
sVshorts
p5152
g2
(g6
S'\x86\t\x00\x00'
p5153
tp5154
Rp5155
sVloved
p5156
g2
(g6
S'y\x06\x00\x00'
p5157
tp5158
Rp5159
sVcommandant
p5160
g2
(g6
S'?\x02\x00\x00'
p5161
tp5162
Rp5163
sVroberts
p5164
g2
(g6
S'\xf6\x08\x00\x00'
p5165
tp5166
Rp5167
sVurrl
p5168
g2
(g6
S',\x0b\x00\x00'
p5169
tp5170
Rp5171
sVvisited
p5172
g2
(g6
S'[\x0b\x00\x00'
p5173
tp5174
Rp5175
sVpartnership
p5176
g2
(g6
S'\xa1\x07\x00\x00'
p5177
tp5178
Rp5179
sVcurves
p5180
g2
(g6
S'\xb8\x02\x00\x00'
p5181
tp5182
Rp5183
sVtonight
p5184
g2
(g6
S'\xc2\n\x00\x00'
p5185
tp5186
Rp5187
sVcurved
p5188
g2
(g6
S'\xb7\x02\x00\x00'
p5189
tp5190
Rp5191
sVmid
p5192
g2
(g6
S'\xd7\x06\x00\x00'
p5193
tp5194
Rp5195
sVparks
p5196
g2
(g6
S'\x9b\x07\x00\x00'
p5197
tp5198
Rp5199
sVlinda
p5200
g2
(g6
S'Y\x06\x00\x00'
p5201
tp5202
Rp5203
sVworldwide
p5204
g2
(g6
S'\xc8\x0b\x00\x00'
p5205
tp5206
Rp5207
sVbrazil
p5208
g2
(g6
S'p\x01\x00\x00'
p5209
tp5210
Rp5211
sVfidel
p5212
g2
(g6
S'%\x04\x00\x00'
p5213
tp5214
Rp5215
sVdevice
p5216
g2
(g6
S'\n\x03\x00\x00'
p5217
tp5218
Rp5219
sVpayment
p5220
g2
(g6
S'\xb0\x07\x00\x00'
p5221
tp5222
Rp5223
sVstranded
p5224
g2
(g6
S'$\n\x00\x00'
p5225
tp5226
Rp5227
sVstronger
p5228
g2
(g6
S'.\n\x00\x00'
p5229
tp5230
Rp5231
sVthanksgiving
p5232
g2
(g6
S'\x9a\n\x00\x00'
p5233
tp5234
Rp5235
sVface
p5236
g2
(g6
S'\xf0\x03\x00\x00'
p5237
tp5238
Rp5239
sVskinny
p5240
g2
(g6
S'\xa8\t\x00\x00'
p5241
tp5242
Rp5243
sVfact
p5244
g2
(g6
S'\xf3\x03\x00\x00'
p5245
tp5246
Rp5247
sVtext
p5248
g2
(g6
S'\x97\n\x00\x00'
p5249
tp5250
Rp5251
sVbring
p5252
g2
(g6
S'~\x01\x00\x00'
p5253
tp5254
Rp5255
sVportfolio
p5256
g2
(g6
S'\r\x08\x00\x00'
p5257
tp5258
Rp5259
sVdecade
p5260
g2
(g6
S'\xe0\x02\x00\x00'
p5261
tp5262
Rp5263
sVchromebook
p5264
g2
(g6
S'\t\x02\x00\x00'
p5265
tp5266
Rp5267
sV5pm
p5268
g2
(g6
S'S\x00\x00\x00'
p5269
tp5270
Rp5271
sVjaw
p5272
g2
(g6
S'\xcc\x05\x00\x00'
p5273
tp5274
Rp5275
sVjan
p5276
g2
(g6
S'\xc8\x05\x00\x00'
p5277
tp5278
Rp5279
sVriding
p5280
g2
(g6
S'\xe8\x08\x00\x00'
p5281
tp5282
Rp5283
sVmeans
p5284
g2
(g6
S'\xb8\x06\x00\x00'
p5285
tp5286
Rp5287
sVbeat
p5288
g2
(g6
S'1\x01\x00\x00'
p5289
tp5290
Rp5291
sVfamiliar
p5292
g2
(g6
S'\xfa\x03\x00\x00'
p5293
tp5294
Rp5295
sVlucky
p5296
g2
(g6
S'\x81\x06\x00\x00'
p5297
tp5298
Rp5299
sVperfection
p5300
g2
(g6
S'\xbd\x07\x00\x00'
p5301
tp5302
Rp5303
sVwebcast
p5304
g2
(g6
S'\x8a\x0b\x00\x00'
p5305
tp5306
Rp5307
sVshaping
p5308
g2
(g6
S'q\t\x00\x00'
p5309
tp5310
Rp5311
sVturbopower
p5312
g2
(g6
S'\xfd\n\x00\x00'
p5313
tp5314
Rp5315
sVmotherhood
p5316
g2
(g6
S'\n\x07\x00\x00'
p5317
tp5318
Rp5319
sVstuff
p5320
g2
(g6
S'5\n\x00\x00'
p5321
tp5322
Rp5323
sVussernms
p5324
g2
(g6
S'7\x0b\x00\x00'
p5325
tp5326
Rp5327
sVstations
p5328
g2
(g6
S'\t\n\x00\x00'
p5329
tp5330
Rp5331
sVblueassist
p5332
g2
(g6
S'W\x01\x00\x00'
p5333
tp5334
Rp5335
sVbucket
p5336
g2
(g6
S'\x8c\x01\x00\x00'
p5337
tp5338
Rp5339
sVedition
p5340
g2
(g6
S'k\x03\x00\x00'
p5341
tp5342
Rp5343
sVbtc
p5344
g2
(g6
S'\x8a\x01\x00\x00'
p5345
tp5346
Rp5347
sVdisc
p5348
g2
(g6
S'\x1e\x03\x00\x00'
p5349
tp5350
Rp5351
sVpacked
p5352
g2
(g6
S'\x8d\x07\x00\x00'
p5353
tp5354
Rp5355
sVinnovator
p5356
g2
(g6
S'\x92\x05\x00\x00'
p5357
tp5358
Rp5359
sVnationwide
p5360
g2
(g6
S'%\x07\x00\x00'
p5361
tp5362
Rp5363
sVrolled
p5364
g2
(g6
S'\x01\t\x00\x00'
p5365
tp5366
Rp5367
sVhelped
p5368
g2
(g6
S'\x03\x05\x00\x00'
p5369
tp5370
Rp5371
sVprogress
p5372
g2
(g6
S'M\x08\x00\x00'
p5373
tp5374
Rp5375
sVemail
p5376
g2
(g6
S'|\x03\x00\x00'
p5377
tp5378
Rp5379
sVkeynote
p5380
g2
(g6
S'\x01\x06\x00\x00'
p5381
tp5382
Rp5383
sVdeliver
p5384
g2
(g6
S'\xe9\x02\x00\x00'
p5385
tp5386
Rp5387
sVimpairments
p5388
g2
(g6
S'h\x05\x00\x00'
p5389
tp5390
Rp5391
sV2pm
p5392
g2
(g6
S'5\x00\x00\x00'
p5393
tp5394
Rp5395
sVmarty
p5396
g2
(g6
S'\xa6\x06\x00\x00'
p5397
tp5398
Rp5399
sVinvited
p5400
g2
(g6
S'\xb5\x05\x00\x00'
p5401
tp5402
Rp5403
sVequal
p5404
g2
(g6
S'\xb3\x03\x00\x00'
p5405
tp5406
Rp5407
sVeta
p5408
g2
(g6
S'\xbf\x03\x00\x00'
p5409
tp5410
Rp5411
sVcj
p5412
g2
(g6
S'\x12\x02\x00\x00'
p5413
tp5414
Rp5415
sVch
p5416
g2
(g6
S'\xde\x01\x00\x00'
p5417
tp5418
Rp5419
sVcc
p5420
g2
(g6
S'\xd0\x01\x00\x00'
p5421
tp5422
Rp5423
sVdenim
p5424
g2
(g6
S'\xf6\x02\x00\x00'
p5425
tp5426
Rp5427
sVcrafted
p5428
g2
(g6
S'\x92\x02\x00\x00'
p5429
tp5430
Rp5431
sVmodeling
p5432
g2
(g6
S'\xf6\x06\x00\x00'
p5433
tp5434
Rp5435
sVbatcave
p5436
g2
(g6
S'.\x01\x00\x00'
p5437
tp5438
Rp5439
sVct
p5440
g2
(g6
S'\xa9\x02\x00\x00'
p5441
tp5442
Rp5443
sVvideos
p5444
g2
(g6
S'O\x0b\x00\x00'
p5445
tp5446
Rp5447
sVpowered
p5448
g2
(g6
S'\x17\x08\x00\x00'
p5449
tp5450
Rp5451
sVdazzling
p5452
g2
(g6
S'\xd6\x02\x00\x00'
p5453
tp5454
Rp5455
sVpermanent
p5456
g2
(g6
S'\xc5\x07\x00\x00'
p5457
tp5458
Rp5459
sVcurtain
p5460
g2
(g6
S'\xb5\x02\x00\x00'
p5461
tp5462
Rp5463
sVimprove
p5464
g2
(g6
S'm\x05\x00\x00'
p5465
tp5466
Rp5467
sVprotect
p5468
g2
(g6
S'T\x08\x00\x00'
p5469
tp5470
Rp5471
sVlatitude
p5472
g2
(g6
S'+\x06\x00\x00'
p5473
tp5474
Rp5475
sVwaterman
p5476
g2
(g6
S'~\x0b\x00\x00'
p5477
tp5478
Rp5479
sVspain
p5480
g2
(g6
S'\xd3\t\x00\x00'
p5481
tp5482
Rp5483
sVvolunteer
p5484
g2
(g6
S'e\x0b\x00\x00'
p5485
tp5486
Rp5487
sVhomes
p5488
g2
(g6
S'.\x05\x00\x00'
p5489
tp5490
Rp5491
sVmulti
p5492
g2
(g6
S'\x16\x07\x00\x00'
p5493
tp5494
Rp5495
sVwelcoming
p5496
g2
(g6
S'\x94\x0b\x00\x00'
p5497
tp5498
Rp5499
sVdefining
p5500
g2
(g6
S'\xe8\x02\x00\x00'
p5501
tp5502
Rp5503
sVrunway
p5504
g2
(g6
S'\x14\t\x00\x00'
p5505
tp5506
Rp5507
sVappearance
p5508
g2
(g6
S'\xdc\x00\x00\x00'
p5509
tp5510
Rp5511
sVentrepreneurial
p5512
g2
(g6
S'\xa9\x03\x00\x00'
p5513
tp5514
Rp5515
sVultra
p5516
g2
(g6
S'\x12\x0b\x00\x00'
p5517
tp5518
Rp5519
sVve
p5520
g2
(g6
S'?\x0b\x00\x00'
p5521
tp5522
Rp5523
sVhelper
p5524
g2
(g6
S'\x04\x05\x00\x00'
p5525
tp5526
Rp5527
sVsite
p5528
g2
(g6
S'\x9f\t\x00\x00'
p5529
tp5530
Rp5531
sVheating
p5532
g2
(g6
S'\xff\x04\x00\x00'
p5533
tp5534
Rp5535
sVhardware
p5536
g2
(g6
S'\xea\x04\x00\x00'
p5537
tp5538
Rp5539
sVpascoe
p5540
g2
(g6
S'\xa5\x07\x00\x00'
p5541
tp5542
Rp5543
sVvr
p5544
g2
(g6
S'k\x0b\x00\x00'
p5545
tp5546
Rp5547
sVvs
p5548
g2
(g6
S'l\x0b\x00\x00'
p5549
tp5550
Rp5551
sVpartner
p5552
g2
(g6
S'\x9d\x07\x00\x00'
p5553
tp5554
Rp5555
sVselected
p5556
g2
(g6
S'V\t\x00\x00'
p5557
tp5558
Rp5559
sVsuperheroes
p5560
g2
(g6
S'H\n\x00\x00'
p5561
tp5562
Rp5563
sVgreater
p5564
g2
(g6
S'\xc4\x04\x00\x00'
p5565
tp5566
Rp5567
sVjenner
p5568
g2
(g6
S'\xd4\x05\x00\x00'
p5569
tp5570
Rp5571
sVproductivity
p5572
g2
(g6
S'E\x08\x00\x00'
p5573
tp5574
Rp5575
sVsupported
p5576
g2
(g6
S'L\n\x00\x00'
p5577
tp5578
Rp5579
sVspends
p5580
g2
(g6
S'\xde\t\x00\x00'
p5581
tp5582
Rp5583
sVmatthew
p5584
g2
(g6
S'\xb0\x06\x00\x00'
p5585
tp5586
Rp5587
sVdigging
p5588
g2
(g6
S'\x10\x03\x00\x00'
p5589
tp5590
Rp5591
sVgames
p5592
g2
(g6
S'\x80\x04\x00\x00'
p5593
tp5594
Rp5595
sVbullying
p5596
g2
(g6
S'\x95\x01\x00\x00'
p5597
tp5598
Rp5599
sVexpand
p5600
g2
(g6
S'\xd3\x03\x00\x00'
p5601
tp5602
Rp5603
sVcenter
p5604
g2
(g6
S'\xd8\x01\x00\x00'
p5605
tp5606
Rp5607
sVthought
p5608
g2
(g6
S'\xa7\n\x00\x00'
p5609
tp5610
Rp5611
sVposition
p5612
g2
(g6
S'\x0f\x08\x00\x00'
p5613
tp5614
Rp5615
sVnewest
p5616
g2
(g6
S'8\x07\x00\x00'
p5617
tp5618
Rp5619
sVmoments
p5620
g2
(g6
S'\xfb\x06\x00\x00'
p5621
tp5622
Rp5623
sVexecutive
p5624
g2
(g6
S'\xd0\x03\x00\x00'
p5625
tp5626
Rp5627
sVwagner
p5628
g2
(g6
S'n\x0b\x00\x00'
p5629
tp5630
Rp5631
sVprotecting
p5632
g2
(g6
S'U\x08\x00\x00'
p5633
tp5634
Rp5635
sVpaul
p5636
g2
(g6
S'\xac\x07\x00\x00'
p5637
tp5638
Rp5639
sV70s
p5640
g2
(g6
S']\x00\x00\x00'
p5641
tp5642
Rp5643
sVweb
p5644
g2
(g6
S'\x89\x0b\x00\x00'
p5645
tp5646
Rp5647
sVwed
p5648
g2
(g6
S'\x8d\x0b\x00\x00'
p5649
tp5650
Rp5651
sVoutlines
p5652
g2
(g6
S'\x80\x07\x00\x00'
p5653
tp5654
Rp5655
sVadd
p5656
g2
(g6
S'\x91\x00\x00\x00'
p5657
tp5658
Rp5659
sVada
p5660
g2
(g6
S'\x90\x00\x00\x00'
p5661
tp5662
Rp5663
sVliteracy
p5664
g2
(g6
S'c\x06\x00\x00'
p5665
tp5666
Rp5667
sVmatch
p5668
g2
(g6
S'\xab\x06\x00\x00'
p5669
tp5670
Rp5671
sVresolved
p5672
g2
(g6
S'\xce\x08\x00\x00'
p5673
tp5674
Rp5675
sVincreased
p5676
g2
(g6
S'z\x05\x00\x00'
p5677
tp5678
Rp5679
sVgovernment
p5680
g2
(g6
S'\xb9\x04\x00\x00'
p5681
tp5682
Rp5683
sVhaus
p5684
g2
(g6
S'\xf0\x04\x00\x00'
p5685
tp5686
Rp5687
sVcruz
p5688
g2
(g6
S'\xa5\x02\x00\x00'
p5689
tp5690
Rp5691
sVroyalty
p5692
g2
(g6
S'\x0b\t\x00\x00'
p5693
tp5694
Rp5695
sVdesk
p5696
g2
(g6
S'\x02\x03\x00\x00'
p5697
tp5698
Rp5699
sVtaking
p5700
g2
(g6
S'o\n\x00\x00'
p5701
tp5702
Rp5703
sVedt
p5704
g2
(g6
S'o\x03\x00\x00'
p5705
tp5706
Rp5707
sVpassword
p5708
g2
(g6
S'\xa8\x07\x00\x00'
p5709
tp5710
Rp5711
sVdubai
p5712
g2
(g6
S'T\x03\x00\x00'
p5713
tp5714
Rp5715
sVmotorola
p5716
g2
(g6
S'\x0c\x07\x00\x00'
p5717
tp5718
Rp5719
sVlike
p5720
g2
(g6
S'U\x06\x00\x00'
p5721
tp5722
Rp5723
sVsuccess
p5724
g2
(g6
S'>\n\x00\x00'
p5725
tp5726
Rp5727
sVaccelerating
p5728
g2
(g6
S'w\x00\x00\x00'
p5729
tp5730
Rp5731
sVworks
p5732
g2
(g6
S'\xc4\x0b\x00\x00'
p5733
tp5734
Rp5735
sVemmy
p5736
g2
(g6
S'\x84\x03\x00\x00'
p5737
tp5738
Rp5739
sVitalian
p5740
g2
(g6
S'\xc3\x05\x00\x00'
p5741
tp5742
Rp5743
sVaccessible
p5744
g2
(g6
S'z\x00\x00\x00'
p5745
tp5746
Rp5747
sV9ampt
p5748
g2
(g6
S'o\x00\x00\x00'
p5749
tp5750
Rp5751
sV12pm
p5752
g2
(g6
S'\x0e\x00\x00\x00'
p5753
tp5754
Rp5755
sVshakira
p5756
g2
(g6
S'n\t\x00\x00'
p5757
tp5758
Rp5759
sVhappens
p5760
g2
(g6
S'\xe6\x04\x00\x00'
p5761
tp5762
Rp5763
sVest
p5764
g2
(g6
S'\xbb\x03\x00\x00'
p5765
tp5766
Rp5767
sVobsessed
p5768
g2
(g6
S'W\x07\x00\x00'
p5769
tp5770
Rp5771
sVavoid
p5772
g2
(g6
S'\x14\x01\x00\x00'
p5773
tp5774
Rp5775
sVsketching
p5776
g2
(g6
S'\xa5\t\x00\x00'
p5777
tp5778
Rp5779
sVfedex
p5780
g2
(g6
S'\x18\x04\x00\x00'
p5781
tp5782
Rp5783
sVpassion
p5784
g2
(g6
S'\xa7\x07\x00\x00'
p5785
tp5786
Rp5787
sVshatterproof
p5788
g2
(g6
S'v\t\x00\x00'
p5789
tp5790
Rp5791
sVleverages
p5792
g2
(g6
S'L\x06\x00\x00'
p5793
tp5794
Rp5795
sVconference
p5796
g2
(g6
S'Z\x02\x00\x00'
p5797
tp5798
Rp5799
sVrouters
p5800
g2
(g6
S'\t\t\x00\x00'
p5801
tp5802
Rp5803
sVhost
p5804
g2
(g6
S'8\x05\x00\x00'
p5805
tp5806
Rp5807
sVworthy
p5808
g2
(g6
S'\xcb\x0b\x00\x00'
p5809
tp5810
Rp5811
sVstage
p5812
g2
(g6
S'\xf6\t\x00\x00'
p5813
tp5814
Rp5815
sVintroduces
p5816
g2
(g6
S'\xaf\x05\x00\x00'
p5817
tp5818
Rp5819
sV15th
p5820
g2
(g6
S'\x14\x00\x00\x00'
p5821
tp5822
Rp5823
sVdocumentary
p5824
g2
(g6
S'2\x03\x00\x00'
p5825
tp5826
Rp5827
sValliance
p5828
g2
(g6
S'\xb7\x00\x00\x00'
p5829
tp5830
Rp5831
sVkingsley
p5832
g2
(g6
S'\r\x06\x00\x00'
p5833
tp5834
Rp5835
sVcommitment
p5836
g2
(g6
S'E\x02\x00\x00'
p5837
tp5838
Rp5839
sVesteem
p5840
g2
(g6
S'\xbd\x03\x00\x00'
p5841
tp5842
Rp5843
sVnational
p5844
g2
(g6
S'#\x07\x00\x00'
p5845
tp5846
Rp5847
sVinfinityedge
p5848
g2
(g6
S'\x85\x05\x00\x00'
p5849
tp5850
Rp5851
sVridge
p5852
g2
(g6
S'\xe7\x08\x00\x00'
p5853
tp5854
Rp5855
sVconfident
p5856
g2
(g6
S'[\x02\x00\x00'
p5857
tp5858
Rp5859
sVspots
p5860
g2
(g6
S'\xea\t\x00\x00'
p5861
tp5862
Rp5863
sV1989
p5864
g2
(g6
S'\x1a\x00\x00\x00'
p5865
tp5866
Rp5867
sVbiggest
p5868
g2
(g6
S'B\x01\x00\x00'
p5869
tp5870
Rp5871
sVyrs
p5872
g2
(g6
S'\xe3\x0b\x00\x00'
p5873
tp5874
Rp5875
sVtouted
p5876
g2
(g6
S'\xd0\n\x00\x00'
p5877
tp5878
Rp5879
sVbuy
p5880
g2
(g6
S'\x9c\x01\x00\x00'
p5881
tp5882
Rp5883
sVchatting
p5884
g2
(g6
S'\xf1\x01\x00\x00'
p5885
tp5886
Rp5887
sVbrand
p5888
g2
(g6
S'm\x01\x00\x00'
p5889
tp5890
Rp5891
sVdelivery
p5892
g2
(g6
S'\xed\x02\x00\x00'
p5893
tp5894
Rp5895
sVprivilege
p5896
g2
(g6
S':\x08\x00\x00'
p5897
tp5898
Rp5899
sVdelivers
p5900
g2
(g6
S'\xec\x02\x00\x00'
p5901
tp5902
Rp5903
sVbug
p5904
g2
(g6
S'\x8e\x01\x00\x00'
p5905
tp5906
Rp5907
sVcalls
p5908
g2
(g6
S'\xa6\x01\x00\x00'
p5909
tp5910
Rp5911
sVplaces
p5912
g2
(g6
S'\xea\x07\x00\x00'
p5913
tp5914
Rp5915
sVwish
p5916
g2
(g6
S'\xab\x0b\x00\x00'
p5917
tp5918
Rp5919
sVofficial
p5920
g2
(g6
S'b\x07\x00\x00'
p5921
tp5922
Rp5923
sVflip
p5924
g2
(g6
S'F\x04\x00\x00'
p5925
tp5926
Rp5927
sVexcitement
p5928
g2
(g6
S'\xca\x03\x00\x00'
p5929
tp5930
Rp5931
sVlevis
p5932
g2
(g6
S'N\x06\x00\x00'
p5933
tp5934
Rp5935
sVminutes
p5936
g2
(g6
S'\xeb\x06\x00\x00'
p5937
tp5938
Rp5939
sVwifi
p5940
g2
(g6
S'\xa0\x0b\x00\x00'
p5941
tp5942
Rp5943
sVpie
p5944
g2
(g6
S'\xdf\x07\x00\x00'
p5945
tp5946
Rp5947
sVenlists
p5948
g2
(g6
S'\x9f\x03\x00\x00'
p5949
tp5950
Rp5951
sVdawson
p5952
g2
(g6
S'\xd3\x02\x00\x00'
p5953
tp5954
Rp5955
sV45
p5956
g2
(g6
S'I\x00\x00\x00'
p5957
tp5958
Rp5959
sV40
p5960
g2
(g6
S'F\x00\x00\x00'
p5961
tp5962
Rp5963
sVdetails
p5964
g2
(g6
S'\x06\x03\x00\x00'
p5965
tp5966
Rp5967
sVhpc
p5968
g2
(g6
S'F\x05\x00\x00'
p5969
tp5970
Rp5971
sVfrancisco
p5972
g2
(g6
S'e\x04\x00\x00'
p5973
tp5974
Rp5975
sVmonday
p5976
g2
(g6
S'\xfe\x06\x00\x00'
p5977
tp5978
Rp5979
sVclass
p5980
g2
(g6
S'\x15\x02\x00\x00'
p5981
tp5982
Rp5983
sVchance
p5984
g2
(g6
S'\xe2\x01\x00\x00'
p5985
tp5986
Rp5987
sVdolphins
p5988
g2
(g6
S'9\x03\x00\x00'
p5989
tp5990
Rp5991
sVsearches
p5992
g2
(g6
S'D\t\x00\x00'
p5993
tp5994
Rp5995
sVcompete
p5996
g2
(g6
S'M\x02\x00\x00'
p5997
tp5998
Rp5999
sV4k
p6000
g2
(g6
S'J\x00\x00\x00'
p6001
tp6002
Rp6003
sVlimited
p6004
g2
(g6
S'X\x06\x00\x00'
p6005
tp6006
Rp6007
sVsaves
p6008
g2
(g6
S"'\t\x00\x00"
p6009
tp6010
Rp6011
sVsleep
p6012
g2
(g6
S'\xac\t\x00\x00'
p6013
tp6014
Rp6015
sVoldest
p6016
g2
(g6
S'g\x07\x00\x00'
p6017
tp6018
Rp6019
sVsaved
p6020
g2
(g6
S'&\t\x00\x00'
p6021
tp6022
Rp6023
sVforget
p6024
g2
(g6
S'X\x04\x00\x00'
p6025
tp6026
Rp6027
sVparis
p6028
g2
(g6
S'\x99\x07\x00\x00'
p6029
tp6030
Rp6031
sVbrilliant
p6032
g2
(g6
S'}\x01\x00\x00'
p6033
tp6034
Rp6035
sVpride
p6036
g2
(g6
S'4\x08\x00\x00'
p6037
tp6038
Rp6039
sVworth
p6040
g2
(g6
S'\xca\x0b\x00\x00'
p6041
tp6042
Rp6043
sVhhttgurrl
p6044
g2
(g6
S'\x13\x05\x00\x00'
p6045
tp6046
Rp6047
sVrise
p6048
g2
(g6
S'\xec\x08\x00\x00'
p6049
tp6050
Rp6051
sVtickets
p6052
g2
(g6
S'\xb1\n\x00\x00'
p6053
tp6054
Rp6055
sVschool
p6056
g2
(g6
S'9\t\x00\x00'
p6057
tp6058
Rp6059
sVsupports
p6060
g2
(g6
S'O\n\x00\x00'
p6061
tp6062
Rp6063
sVvenue
p6064
g2
(g6
S'D\x0b\x00\x00'
p6065
tp6066
Rp6067
sVhonor
p6068
g2
(g6
S'0\x05\x00\x00'
p6069
tp6070
Rp6071
sVred
p6072
g2
(g6
S'\xa9\x08\x00\x00'
p6073
tp6074
Rp6075
sVartist
p6076
g2
(g6
S'\xef\x00\x00\x00'
p6077
tp6078
Rp6079
sVstuns
p6080
g2
(g6
S'7\n\x00\x00'
p6081
tp6082
Rp6083
sVenjoy
p6084
g2
(g6
S'\x9c\x03\x00\x00'
p6085
tp6086
Rp6087
sVleaders
p6088
g2
(g6
S'6\x06\x00\x00'
p6089
tp6090
Rp6091
sVphones
p6092
g2
(g6
S'\xd4\x07\x00\x00'
p6093
tp6094
Rp6095
sVbandleader
p6096
g2
(g6
S'&\x01\x00\x00'
p6097
tp6098
Rp6099
sVdirect
p6100
g2
(g6
S'\x15\x03\x00\x00'
p6101
tp6102
Rp6103
sVdish
p6104
g2
(g6
S'#\x03\x00\x00'
p6105
tp6106
Rp6107
sVstreet
p6108
g2
(g6
S'*\n\x00\x00'
p6109
tp6110
Rp6111
sVcoveted
p6112
g2
(g6
S'\x90\x02\x00\x00'
p6113
tp6114
Rp6115
sVshining
p6116
g2
(g6
S'|\t\x00\x00'
p6117
tp6118
Rp6119
sVblue
p6120
g2
(g6
S'V\x01\x00\x00'
p6121
tp6122
Rp6123
sVofficially
p6124
g2
(g6
S'c\x07\x00\x00'
p6125
tp6126
Rp6127
sVseeks
p6128
g2
(g6
S'S\t\x00\x00'
p6129
tp6130
Rp6131
sVkicked
p6132
g2
(g6
S'\x03\x06\x00\x00'
p6133
tp6134
Rp6135
sVfestive
p6136
g2
(g6
S'!\x04\x00\x00'
p6137
tp6138
Rp6139
sVprotection
p6140
g2
(g6
S'V\x08\x00\x00'
p6141
tp6142
Rp6143
sVstudio
p6144
g2
(g6
S'3\n\x00\x00'
p6145
tp6146
Rp6147
sVrepresented
p6148
g2
(g6
S'\xc7\x08\x00\x00'
p6149
tp6150
Rp6151
sVpath
p6152
g2
(g6
S'\xaa\x07\x00\x00'
p6153
tp6154
Rp6155
sVdaughter
p6156
g2
(g6
S'\xd1\x02\x00\x00'
p6157
tp6158
Rp6159
sVtx
p6160
g2
(g6
S'\t\x0b\x00\x00'
p6161
tp6162
Rp6163
sVforum
p6164
g2
(g6
S'\\\x04\x00\x00'
p6165
tp6166
Rp6167
sVventures
p6168
g2
(g6
S'C\x0b\x00\x00'
p6169
tp6170
Rp6171
sVitems
p6172
g2
(g6
S'\xc4\x05\x00\x00'
p6173
tp6174
Rp6175
sVemployees
p6176
g2
(g6
S'\x86\x03\x00\x00'
p6177
tp6178
Rp6179
sVchanged
p6180
g2
(g6
S'\xe4\x01\x00\x00'
p6181
tp6182
Rp6183
sVanchor
p6184
g2
(g6
S'\xc6\x00\x00\x00'
p6185
tp6186
Rp6187
sVakc
p6188
g2
(g6
S'\xb0\x00\x00\x00'
p6189
tp6190
Rp6191
sVhunting
p6192
g2
(g6
S'P\x05\x00\x00'
p6193
tp6194
Rp6195
sVsecure
p6196
g2
(g6
S'O\t\x00\x00'
p6197
tp6198
Rp6199
sVjulia
p6200
g2
(g6
S'\xef\x05\x00\x00'
p6201
tp6202
Rp6203
sVhighly
p6204
g2
(g6
S'\x1a\x05\x00\x00'
p6205
tp6206
Rp6207
sVgeico
p6208
g2
(g6
S'\x91\x04\x00\x00'
p6209
tp6210
Rp6211
sVthursday
p6212
g2
(g6
S'\xae\n\x00\x00'
p6213
tp6214
Rp6215
sVactions
p6216
g2
(g6
S'\x87\x00\x00\x00'
p6217
tp6218
Rp6219
sVtotal
p6220
g2
(g6
S'\xcb\n\x00\x00'
p6221
tp6222
Rp6223
sVforums
p6224
g2
(g6
S']\x04\x00\x00'
p6225
tp6226
Rp6227
sVbrb
p6228
g2
(g6
S'q\x01\x00\x00'
p6229
tp6230
Rp6231
sVsweater
p6232
g2
(g6
S']\n\x00\x00'
p6233
tp6234
Rp6235
sVcomcast
p6236
g2
(g6
S'8\x02\x00\x00'
p6237
tp6238
Rp6239
sVcentre
p6240
g2
(g6
S'\xd9\x01\x00\x00'
p6241
tp6242
Rp6243
sVgarca
p6244
g2
(g6
S'\x85\x04\x00\x00'
p6245
tp6246
Rp6247
sVtournament
p6248
g2
(g6
S'\xcf\n\x00\x00'
p6249
tp6250
Rp6251
sVaward
p6252
g2
(g6
S'\x18\x01\x00\x00'
p6253
tp6254
Rp6255
sVphone
p6256
g2
(g6
S'\xd3\x07\x00\x00'
p6257
tp6258
Rp6259
sVcapabilities
p6260
g2
(g6
S'\xaf\x01\x00\x00'
p6261
tp6262
Rp6263
sVword
p6264
g2
(g6
S'\xba\x0b\x00\x00'
p6265
tp6266
Rp6267
sV1998
p6268
g2
(g6
S'\x1b\x00\x00\x00'
p6269
tp6270
Rp6271
sVmo
p6272
g2
(g6
S'\xf2\x06\x00\x00'
p6273
tp6274
Rp6275
sVwork
p6276
g2
(g6
S'\xbc\x0b\x00\x00'
p6277
tp6278
Rp6279
sVworn
p6280
g2
(g6
S'\xc9\x0b\x00\x00'
p6281
tp6282
Rp6283
sVmt
p6284
g2
(g6
S'\x14\x07\x00\x00'
p6285
tp6286
Rp6287
sVera
p6288
g2
(g6
S'\xb7\x03\x00\x00'
p6289
tp6290
Rp6291
sVworkstations
p6292
g2
(g6
S'\xc5\x0b\x00\x00'
p6293
tp6294
Rp6295
sVestate
p6296
g2
(g6
S'\xbc\x03\x00\x00'
p6297
tp6298
Rp6299
sVindia
p6300
g2
(g6
S'\x80\x05\x00\x00'
p6301
tp6302
Rp6303
sVpaparazzi
p6304
g2
(g6
S'\x94\x07\x00\x00'
p6305
tp6306
Rp6307
sVgadgets
p6308
g2
(g6
S'{\x04\x00\x00'
p6309
tp6310
Rp6311
sVcites
p6312
g2
(g6
S'\x0e\x02\x00\x00'
p6313
tp6314
Rp6315
sVend
p6316
g2
(g6
S'\x91\x03\x00\x00'
p6317
tp6318
Rp6319
sVrecovery
p6320
g2
(g6
S'\xa5\x08\x00\x00'
p6321
tp6322
Rp6323
sVconversation
p6324
g2
(g6
S't\x02\x00\x00'
p6325
tp6326
Rp6327
sVprovide
p6328
g2
(g6
S'Y\x08\x00\x00'
p6329
tp6330
Rp6331
sVsong
p6332
g2
(g6
S'\xc9\t\x00\x00'
p6333
tp6334
Rp6335
sVfinalist
p6336
g2
(g6
S'0\x04\x00\x00'
p6337
tp6338
Rp6339
sVinterview
p6340
g2
(g6
S'\xab\x05\x00\x00'
p6341
tp6342
Rp6343
sVcharging
p6344
g2
(g6
S'\xeb\x01\x00\x00'
p6345
tp6346
Rp6347
sVpizza
p6348
g2
(g6
S'\xe8\x07\x00\x00'
p6349
tp6350
Rp6351
sVdescription
p6352
g2
(g6
S'\xfa\x02\x00\x00'
p6353
tp6354
Rp6355
sVtransforming
p6356
g2
(g6
S'\xdf\n\x00\x00'
p6357
tp6358
Rp6359
sVearlier
p6360
g2
(g6
S'\\\x03\x00\x00'
p6361
tp6362
Rp6363
sVmemorial
p6364
g2
(g6
S'\xc3\x06\x00\x00'
p6365
tp6366
Rp6367
sVlab
p6368
g2
(g6
S'\x16\x06\x00\x00'
p6369
tp6370
Rp6371
sVbarriers
p6372
g2
(g6
S'*\x01\x00\x00'
p6373
tp6374
Rp6375
sVjcpenney
p6376
g2
(g6
S'\xce\x05\x00\x00'
p6377
tp6378
Rp6379
sVlaw
p6380
g2
(g6
S'2\x06\x00\x00'
p6381
tp6382
Rp6383
sVmeaningful
p6384
g2
(g6
S'\xb7\x06\x00\x00'
p6385
tp6386
Rp6387
sVlas
p6388
g2
(g6
S'%\x06\x00\x00'
p6389
tp6390
Rp6391
sVdanny
p6392
g2
(g6
S'\xca\x02\x00\x00'
p6393
tp6394
Rp6395
sVsplendid
p6396
g2
(g6
S'\xe1\t\x00\x00'
p6397
tp6398
Rp6399
sVwknd
p6400
g2
(g6
S'\xb3\x0b\x00\x00'
p6401
tp6402
Rp6403
sVgreen
p6404
g2
(g6
S'\xc6\x04\x00\x00'
p6405
tp6406
Rp6407
sVultimate
p6408
g2
(g6
S'\x11\x0b\x00\x00'
p6409
tp6410
Rp6411
sVorder
p6412
g2
(g6
S'x\x07\x00\x00'
p6413
tp6414
Rp6415
sVinterpretation
p6416
g2
(g6
S'\xaa\x05\x00\x00'
p6417
tp6418
Rp6419
sVoffice
p6420
g2
(g6
S'`\x07\x00\x00'
p6421
tp6422
Rp6423
sVplastics
p6424
g2
(g6
S'\xf0\x07\x00\x00'
p6425
tp6426
Rp6427
sVlondon
p6428
g2
(g6
S'm\x06\x00\x00'
p6429
tp6430
Rp6431
sVinnovative
p6432
g2
(g6
S'\x91\x05\x00\x00'
p6433
tp6434
Rp6435
sVjapan
p6436
g2
(g6
S'\xca\x05\x00\x00'
p6437
tp6438
Rp6439
sVdapper
p6440
g2
(g6
S'\xcb\x02\x00\x00'
p6441
tp6442
Rp6443
sVhighlights
p6444
g2
(g6
S'\x19\x05\x00\x00'
p6445
tp6446
Rp6447
sVchristie
p6448
g2
(g6
S'\x07\x02\x00\x00'
p6449
tp6450
Rp6451
sVshifts
p6452
g2
(g6
S'y\t\x00\x00'
p6453
tp6454
Rp6455
sVblogger
p6456
g2
(g6
S'R\x01\x00\x00'
p6457
tp6458
Rp6459
sVcoffee
p6460
g2
(g6
S'.\x02\x00\x00'
p6461
tp6462
Rp6463
sVaffected
p6464
g2
(g6
S'\xa3\x00\x00\x00'
p6465
tp6466
Rp6467
sVsafe
p6468
g2
(g6
S'\x16\t\x00\x00'
p6469
tp6470
Rp6471
sVbreak
p6472
g2
(g6
S'r\x01\x00\x00'
p6473
tp6474
Rp6475
sVband
p6476
g2
(g6
S'%\x01\x00\x00'
p6477
tp6478
Rp6479
sVreaches
p6480
g2
(g6
S'\x8d\x08\x00\x00'
p6481
tp6482
Rp6483
sVtourism
p6484
g2
(g6
S'\xce\n\x00\x00'
p6485
tp6486
Rp6487
sVbank
p6488
g2
(g6
S"'\x01\x00\x00"
p6489
tp6490
Rp6491
sVrocks
p6492
g2
(g6
S'\xfc\x08\x00\x00'
p6493
tp6494
Rp6495
sVherald
p6496
g2
(g6
S'\x08\x05\x00\x00'
p6497
tp6498
Rp6499
sVanastasia
p6500
g2
(g6
S'\xc5\x00\x00\x00'
p6501
tp6502
Rp6503
sVvictory
p6504
g2
(g6
S'L\x0b\x00\x00'
p6505
tp6506
Rp6507
sVfitness
p6508
g2
(g6
S'@\x04\x00\x00'
p6509
tp6510
Rp6511
sVdaraprim
p6512
g2
(g6
S'\xcc\x02\x00\x00'
p6513
tp6514
Rp6515
sVtrain
p6516
g2
(g6
S'\xd9\n\x00\x00'
p6517
tp6518
Rp6519
sVdiane
p6520
g2
(g6
S'\x0c\x03\x00\x00'
p6521
tp6522
Rp6523
sVgroup
p6524
g2
(g6
S'\xca\x04\x00\x00'
p6525
tp6526
Rp6527
sVhosted
p6528
g2
(g6
S'9\x05\x00\x00'
p6529
tp6530
Rp6531
sVsaturday
p6532
g2
(g6
S'$\t\x00\x00'
p6533
tp6534
Rp6535
sVnetwork
p6536
g2
(g6
S'4\x07\x00\x00'
p6537
tp6538
Rp6539
sVdriving
p6540
g2
(g6
S'M\x03\x00\x00'
p6541
tp6542
Rp6543
sVcameras
p6544
g2
(g6
S'\xa9\x01\x00\x00'
p6545
tp6546
Rp6547
sVhooked
p6548
g2
(g6
S'4\x05\x00\x00'
p6549
tp6550
Rp6551
sVlaid
p6552
g2
(g6
S'\x19\x06\x00\x00'
p6553
tp6554
Rp6555
sVdaniel
p6556
g2
(g6
S'\xc8\x02\x00\x00'
p6557
tp6558
Rp6559
sV12pmet
p6560
g2
(g6
S'\x0f\x00\x00\x00'
p6561
tp6562
Rp6563
sVnewly
p6564
g2
(g6
S'9\x07\x00\x00'
p6565
tp6566
Rp6567
sVindependence
p6568
g2
(g6
S'}\x05\x00\x00'
p6569
tp6570
Rp6571
sVmusician
p6572
g2
(g6
S'\x1a\x07\x00\x00'
p6573
tp6574
Rp6575
sVfree
p6576
g2
(g6
S'g\x04\x00\x00'
p6577
tp6578
Rp6579
sVstandard
p6580
g2
(g6
S'\xfb\t\x00\x00'
p6581
tp6582
Rp6583
sVrain
p6584
g2
(g6
S'\x80\x08\x00\x00'
p6585
tp6586
Rp6587
sVwanted
p6588
g2
(g6
S't\x0b\x00\x00'
p6589
tp6590
Rp6591
sVticket
p6592
g2
(g6
S'\xb0\n\x00\x00'
p6593
tp6594
Rp6595
sVcreated
p6596
g2
(g6
S'\x97\x02\x00\x00'
p6597
tp6598
Rp6599
sVrefugee
p6600
g2
(g6
S'\xaf\x08\x00\x00'
p6601
tp6602
Rp6603
sVdays
p6604
g2
(g6
S'\xd5\x02\x00\x00'
p6605
tp6606
Rp6607
sVoutfits
p6608
g2
(g6
S'\x7f\x07\x00\x00'
p6609
tp6610
Rp6611
sVfilter
p6612
g2
(g6
S',\x04\x00\x00'
p6613
tp6614
Rp6615
sVencouraging
p6616
g2
(g6
S'\x90\x03\x00\x00'
p6617
tp6618
Rp6619
sVhearing
p6620
g2
(g6
S'\xfb\x04\x00\x00'
p6621
tp6622
Rp6623
sVfantasy
p6624
g2
(g6
S'\x00\x04\x00\x00'
p6625
tp6626
Rp6627
sVcomic
p6628
g2
(g6
S'=\x02\x00\x00'
p6629
tp6630
Rp6631
sVheights
p6632
g2
(g6
S'\x00\x05\x00\x00'
p6633
tp6634
Rp6635
sVthoughts
p6636
g2
(g6
S'\xa8\n\x00\x00'
p6637
tp6638
Rp6639
sVtom
p6640
g2
(g6
S'\xc0\n\x00\x00'
p6641
tp6642
Rp6643
sVrockin
p6644
g2
(g6
S'\xfa\x08\x00\x00'
p6645
tp6646
Rp6647
sVjohn
p6648
g2
(g6
S'\xdd\x05\x00\x00'
p6649
tp6650
Rp6651
sV40th
p6652
g2
(g6
S'H\x00\x00\x00'
p6653
tp6654
Rp6655
sVdogs
p6656
g2
(g6
S'6\x03\x00\x00'
p6657
tp6658
Rp6659
sVceiling
p6660
g2
(g6
S'\xd1\x01\x00\x00'
p6661
tp6662
Rp6663
sVenhancing
p6664
g2
(g6
S'\x9b\x03\x00\x00'
p6665
tp6666
Rp6667
sVtool
p6668
g2
(g6
S'\xc4\n\x00\x00'
p6669
tp6670
Rp6671
sVserve
p6672
g2
(g6
S'c\t\x00\x00'
p6673
tp6674
Rp6675
sVtook
p6676
g2
(g6
S'\xc3\n\x00\x00'
p6677
tp6678
Rp6679
sVtoronto
p6680
g2
(g6
S'\xc7\n\x00\x00'
p6681
tp6682
Rp6683
sVtarget
p6684
g2
(g6
S'w\n\x00\x00'
p6685
tp6686
Rp6687
sVroles
p6688
g2
(g6
S'\xff\x08\x00\x00'
p6689
tp6690
Rp6691
sVburger
p6692
g2
(g6
S'\x97\x01\x00\x00'
p6693
tp6694
Rp6695
sVscenes
p6696
g2
(g6
S'8\t\x00\x00'
p6697
tp6698
Rp6699
sVebay
p6700
g2
(g6
S'f\x03\x00\x00'
p6701
tp6702
Rp6703
sVpowers
p6704
g2
(g6
S'\x19\x08\x00\x00'
p6705
tp6706
Rp6707
sVminus
p6708
g2
(g6
S'\xea\x06\x00\x00'
p6709
tp6710
Rp6711
sVbridge
p6712
g2
(g6
S'x\x01\x00\x00'
p6713
tp6714
Rp6715
sVnavigate
p6716
g2
(g6
S"'\x07\x00\x00"
p6717
tp6718
Rp6719
sVgear
p6720
g2
(g6
S'\x8e\x04\x00\x00'
p6721
tp6722
Rp6723
sVgenuine
p6724
g2
(g6
S'\x97\x04\x00\x00'
p6725
tp6726
Rp6727
sVsnow
p6728
g2
(g6
S'\xbb\t\x00\x00'
p6729
tp6730
Rp6731
sVpractices
p6732
g2
(g6
S'\x1a\x08\x00\x00'
p6733
tp6734
Rp6735
sVforces
p6736
g2
(g6
S'U\x04\x00\x00'
p6737
tp6738
Rp6739
sVmother
p6740
g2
(g6
S'\t\x07\x00\x00'
p6741
tp6742
Rp6743
sVoptimized
p6744
g2
(g6
S'v\x07\x00\x00'
p6745
tp6746
Rp6747
sVabc
p6748
g2
(g6
S'q\x00\x00\x00'
p6749
tp6750
Rp6751
sVinnovate
p6752
g2
(g6
S'\x8e\x05\x00\x00'
p6753
tp6754
Rp6755
sVjean
p6756
g2
(g6
S'\xd0\x05\x00\x00'
p6757
tp6758
Rp6759
sVflow
p6760
g2
(g6
S'G\x04\x00\x00'
p6761
tp6762
Rp6763
sVenterprise
p6764
g2
(g6
S'\xa2\x03\x00\x00'
p6765
tp6766
Rp6767
sVchris
p6768
g2
(g6
S'\x06\x02\x00\x00'
p6769
tp6770
Rp6771
sVvoting
p6772
g2
(g6
S'i\x0b\x00\x00'
p6773
tp6774
Rp6775
sVdesktops
p6776
g2
(g6
S'\x04\x03\x00\x00'
p6777
tp6778
Rp6779
sVinspire
p6780
g2
(g6
S'\x98\x05\x00\x00'
p6781
tp6782
Rp6783
sVpope
p6784
g2
(g6
S'\t\x08\x00\x00'
p6785
tp6786
Rp6787
sVransomware
p6788
g2
(g6
S'\x87\x08\x00\x00'
p6789
tp6790
Rp6791
sVscarlett
p6792
g2
(g6
S'6\t\x00\x00'
p6793
tp6794
Rp6795
sVcolors
p6796
g2
(g6
S'5\x02\x00\x00'
p6797
tp6798
Rp6799
sVradio
p6800
g2
(g6
S'~\x08\x00\x00'
p6801
tp6802
Rp6803
sVsolutions
p6804
g2
(g6
S'\xc7\t\x00\x00'
p6805
tp6806
Rp6807
sVenjoyed
p6808
g2
(g6
S'\x9d\x03\x00\x00'
p6809
tp6810
Rp6811
sVtoast
p6812
g2
(g6
S'\xbb\n\x00\x00'
p6813
tp6814
Rp6815
sVicymiussernm
p6816
g2
(g6
S'[\x05\x00\x00'
p6817
tp6818
Rp6819
sVforaging
p6820
g2
(g6
S'S\x04\x00\x00'
p6821
tp6822
Rp6823
sVscreening
p6824
g2
(g6
S'A\t\x00\x00'
p6825
tp6826
Rp6827
sVannounce
p6828
g2
(g6
S'\xcf\x00\x00\x00'
p6829
tp6830
Rp6831
sVoct
p6832
g2
(g6
S'Z\x07\x00\x00'
p6833
tp6834
Rp6835
sVpersonality
p6836
g2
(g6
S'\xc7\x07\x00\x00'
p6837
tp6838
Rp6839
sVipad
p6840
g2
(g6
S'\xb9\x05\x00\x00'
p6841
tp6842
Rp6843
sVdm
p6844
g2
(g6
S',\x03\x00\x00'
p6845
tp6846
Rp6847
sVdj
p6848
g2
(g6
S'+\x03\x00\x00'
p6849
tp6850
Rp6851
sVwatch
p6852
g2
(g6
S'z\x0b\x00\x00'
p6853
tp6854
Rp6855
sVscalable
p6856
g2
(g6
S'/\t\x00\x00'
p6857
tp6858
Rp6859
sVguatemala
p6860
g2
(g6
S'\xcf\x04\x00\x00'
p6861
tp6862
Rp6863
sVhaunted
p6864
g2
(g6
S'\xef\x04\x00\x00'
p6865
tp6866
Rp6867
sVreport
p6868
g2
(g6
S'\xc4\x08\x00\x00'
p6869
tp6870
Rp6871
sVdr
p6872
g2
(g6
S'F\x03\x00\x00'
p6873
tp6874
Rp6875
sVruns
p6876
g2
(g6
S'\x13\t\x00\x00'
p6877
tp6878
Rp6879
sVtwice
p6880
g2
(g6
S'\x06\x0b\x00\x00'
p6881
tp6882
Rp6883
sV34th
p6884
g2
(g6
S'>\x00\x00\x00'
p6885
tp6886
Rp6887
sVsteam
p6888
g2
(g6
S'\x10\n\x00\x00'
p6889
tp6890
Rp6891
sVcaptures
p6892
g2
(g6
S'\xb5\x01\x00\x00'
p6893
tp6894
Rp6895
sVicymiwe
p6896
g2
(g6
S'\\\x05\x00\x00'
p6897
tp6898
Rp6899
sVlemonade
p6900
g2
(g6
S'E\x06\x00\x00'
p6901
tp6902
Rp6903
sVanalytics
p6904
g2
(g6
S'\xc4\x00\x00\x00'
p6905
tp6906
Rp6907
sV5000
p6908
g2
(g6
S'O\x00\x00\x00'
p6909
tp6910
Rp6911
sVjerseys
p6912
g2
(g6
S'\xd6\x05\x00\x00'
p6913
tp6914
Rp6915
sVaway
p6916
g2
(g6
S'\x1b\x01\x00\x00'
p6917
tp6918
Rp6919
sVfinger
p6920
g2
(g6
S':\x04\x00\x00'
p6921
tp6922
Rp6923
sVarshads
p6924
g2
(g6
S'\xed\x00\x00\x00'
p6925
tp6926
Rp6927
sV365
p6928
g2
(g6
S'B\x00\x00\x00'
p6929
tp6930
Rp6931
sVapproach
p6932
g2
(g6
S'\xe4\x00\x00\x00'
p6933
tp6934
Rp6935
sV360
p6936
g2
(g6
S'A\x00\x00\x00'
p6937
tp6938
Rp6939
sVterms
p6940
g2
(g6
S'\x94\n\x00\x00'
p6941
tp6942
Rp6943
sVloves
p6944
g2
(g6
S'z\x06\x00\x00'
p6945
tp6946
Rp6947
sVwi
p6948
g2
(g6
S'\x9f\x0b\x00\x00'
p6949
tp6950
Rp6951
sVboss
p6952
g2
(g6
S'd\x01\x00\x00'
p6953
tp6954
Rp6955
sVwear
p6956
g2
(g6
S'\x85\x0b\x00\x00'
p6957
tp6958
Rp6959
sVclues
p6960
g2
(g6
S'(\x02\x00\x00'
p6961
tp6962
Rp6963
sV00pm
p6964
g2
(g6
S'\x01\x00\x00\x00'
p6965
tp6966
Rp6967
sVkitchen
p6968
g2
(g6
S'\x0e\x06\x00\x00'
p6969
tp6970
Rp6971
sVreceived
p6972
g2
(g6
S'\x9b\x08\x00\x00'
p6973
tp6974
Rp6975
sVclimate
p6976
g2
(g6
S'\x1c\x02\x00\x00'
p6977
tp6978
Rp6979
sVill
p6980
g2
(g6
S'`\x05\x00\x00'
p6981
tp6982
Rp6983
sVparticipating
p6984
g2
(g6
S'\x9c\x07\x00\x00'
p6985
tp6986
Rp6987
sVplayers
p6988
g2
(g6
S'\xf7\x07\x00\x00'
p6989
tp6990
Rp6991
sVfaces
p6992
g2
(g6
S'\xf2\x03\x00\x00'
p6993
tp6994
Rp6995
sVoperating
p6996
g2
(g6
S'q\x07\x00\x00'
p6997
tp6998
Rp6999
sVcoo
p7000
g2
(g6
S'v\x02\x00\x00'
p7001
tp7002
Rp7003
sVpanel
p7004
g2
(g6
S'\x92\x07\x00\x00'
p7005
tp7006
Rp7007
sVbinge
p7008
g2
(g6
S'E\x01\x00\x00'
p7009
tp7010
Rp7011
sVquickly
p7012
g2
(g6
S'y\x08\x00\x00'
p7013
tp7014
Rp7015
sVfamilies
p7016
g2
(g6
S'\xfb\x03\x00\x00'
p7017
tp7018
Rp7019
sVsmartwatch
p7020
g2
(g6
S'\xb3\t\x00\x00'
p7021
tp7022
Rp7023
sVenterprises
p7024
g2
(g6
S'\xa3\x03\x00\x00'
p7025
tp7026
Rp7027
sVcraft
p7028
g2
(g6
S'\x91\x02\x00\x00'
p7029
tp7030
Rp7031
sVcatch
p7032
g2
(g6
S'\xcd\x01\x00\x00'
p7033
tp7034
Rp7035
sVjohansson
p7036
g2
(g6
S'\xdc\x05\x00\x00'
p7037
tp7038
Rp7039
sVsave
p7040
g2
(g6
S'%\t\x00\x00'
p7041
tp7042
Rp7043
sVlaunches
p7044
g2
(g6
S'0\x06\x00\x00'
p7045
tp7046
Rp7047
sVdells
p7048
g2
(g6
S'\xef\x02\x00\x00'
p7049
tp7050
Rp7051
sVair
p7052
g2
(g6
S'\xad\x00\x00\x00'
p7053
tp7054
Rp7055
sVaim
p7056
g2
(g6
S'\xab\x00\x00\x00'
p7057
tp7058
Rp7059
sVstopping
p7060
g2
(g6
S'\x1d\n\x00\x00'
p7061
tp7062
Rp7063
sVaid
p7064
g2
(g6
S'\xa9\x00\x00\x00'
p7065
tp7066
Rp7067
sVvoice
p7068
g2
(g6
S'b\x0b\x00\x00'
p7069
tp7070
Rp7071
sVlaunched
p7072
g2
(g6
S'/\x06\x00\x00'
p7073
tp7074
Rp7075
sVvinyasa
p7076
g2
(g6
S'T\x0b\x00\x00'
p7077
tp7078
Rp7079
sVaccessories
p7080
g2
(g6
S'{\x00\x00\x00'
p7081
tp7082
Rp7083
sVexperts
p7084
g2
(g6
S'\xdd\x03\x00\x00'
p7085
tp7086
Rp7087
sVperform
p7088
g2
(g6
S'\xbf\x07\x00\x00'
p7089
tp7090
Rp7091
sVbulger
p7092
g2
(g6
S'\x93\x01\x00\x00'
p7093
tp7094
Rp7095
sVindependent
p7096
g2
(g6
S'~\x05\x00\x00'
p7097
tp7098
Rp7099
sVplating
p7100
g2
(g6
S'\xf3\x07\x00\x00'
p7101
tp7102
Rp7103
sVsocial
p7104
g2
(g6
S'\xbf\t\x00\x00'
p7105
tp7106
Rp7107
sVhand
p7108
g2
(g6
S'\xdf\x04\x00\x00'
p7109
tp7110
Rp7111
sVcharacters
p7112
g2
(g6
S'\xe9\x01\x00\x00'
p7113
tp7114
Rp7115
sVtyson
p7116
g2
(g6
S'\x0c\x0b\x00\x00'
p7117
tp7118
Rp7119
sVdishes
p7120
g2
(g6
S'$\x03\x00\x00'
p7121
tp7122
Rp7123
sVthx
p7124
g2
(g6
S'\xaf\n\x00\x00'
p7125
tp7126
Rp7127
sVcharlie
p7128
g2
(g6
S'\xed\x01\x00\x00'
p7129
tp7130
Rp7131
sVcongrats
p7132
g2
(g6
S'\\\x02\x00\x00'
p7133
tp7134
Rp7135
sVinspires
p7136
g2
(g6
S'\x9a\x05\x00\x00'
p7137
tp7138
Rp7139
sVhispanic
p7140
g2
(g6
S'\x1f\x05\x00\x00'
p7141
tp7142
Rp7143
sVsavings
p7144
g2
(g6
S')\t\x00\x00'
p7145
tp7146
Rp7147
sVgreatest
p7148
g2
(g6
S'\xc5\x04\x00\x00'
p7149
tp7150
Rp7151
sVhearts
p7152
g2
(g6
S'\xfe\x04\x00\x00'
p7153
tp7154
Rp7155
sVmusical
p7156
g2
(g6
S'\x19\x07\x00\x00'
p7157
tp7158
Rp7159
sVtraditions
p7160
g2
(g6
S'\xd7\n\x00\x00'
p7161
tp7162
Rp7163
sVphoto
p7164
g2
(g6
S'\xd5\x07\x00\x00'
p7165
tp7166
Rp7167
sVlaptop
p7168
g2
(g6
S' \x06\x00\x00'
p7169
tp7170
Rp7171
sVthanks
p7172
g2
(g6
S'\x99\n\x00\x00'
p7173
tp7174
Rp7175
sVadding
p7176
g2
(g6
S'\x94\x00\x00\x00'
p7177
tp7178
Rp7179
sVphotographer
p7180
g2
(g6
S'\xd6\x07\x00\x00'
p7181
tp7182
Rp7183
sVjosh
p7184
g2
(g6
S'\xe8\x05\x00\x00'
p7185
tp7186
Rp7187
sV5m
p7188
g2
(g6
S'R\x00\x00\x00'
p7189
tp7190
Rp7191
sVcountrys
p7192
g2
(g6
S'\x87\x02\x00\x00'
p7193
tp7194
Rp7195
sVshout
p7196
g2
(g6
S'\x88\t\x00\x00'
p7197
tp7198
Rp7199
sVspread
p7200
g2
(g6
S'\xec\t\x00\x00'
p7201
tp7202
Rp7203
sVboard
p7204
g2
(g6
S'X\x01\x00\x00'
p7205
tp7206
Rp7207
sVgave
p7208
g2
(g6
S'\x8d\x04\x00\x00'
p7209
tp7210
Rp7211
sVbreaks
p7212
g2
(g6
S't\x01\x00\x00'
p7213
tp7214
Rp7215
sVlooks
p7216
g2
(g6
S'r\x06\x00\x00'
p7217
tp7218
Rp7219
sVboxes
p7220
g2
(g6
S'h\x01\x00\x00'
p7221
tp7222
Rp7223
sVjudge
p7224
g2
(g6
S'\xed\x05\x00\x00'
p7225
tp7226
Rp7227
sVdesigners
p7228
g2
(g6
S'\x00\x03\x00\x00'
p7229
tp7230
Rp7231
sVadvanced
p7232
g2
(g6
S'\x9e\x00\x00\x00'
p7233
tp7234
Rp7235
sVhunt
p7236
g2
(g6
S'O\x05\x00\x00'
p7237
tp7238
Rp7239
sV50
p7240
g2
(g6
S'M\x00\x00\x00'
p7241
tp7242
Rp7243
sV53
p7244
g2
(g6
S'P\x00\x00\x00'
p7245
tp7246
Rp7247
sVhunk
p7248
g2
(g6
S'N\x05\x00\x00'
p7249
tp7250
Rp7251
sVnight
p7252
g2
(g6
S'B\x07\x00\x00'
p7253
tp7254
Rp7255
sVsecurity
p7256
g2
(g6
S'Q\t\x00\x00'
p7257
tp7258
Rp7259
sVmazes
p7260
g2
(g6
S'\xb2\x06\x00\x00'
p7261
tp7262
Rp7263
sVhonored
p7264
g2
(g6
S'1\x05\x00\x00'
p7265
tp7266
Rp7267
sVmash
p7268
g2
(g6
S'\xa8\x06\x00\x00'
p7269
tp7270
Rp7271
sVcybersecurity
p7272
g2
(g6
S'\xc2\x02\x00\x00'
p7273
tp7274
Rp7275
sVjennifer
p7276
g2
(g6
S'\xd5\x05\x00\x00'
p7277
tp7278
Rp7279
sVwithussernm
p7280
g2
(g6
S'\xb1\x0b\x00\x00'
p7281
tp7282
Rp7283
sVpurple
p7284
g2
(g6
S'i\x08\x00\x00'
p7285
tp7286
Rp7287
sVcompanions
p7288
g2
(g6
S'K\x02\x00\x00'
p7289
tp7290
Rp7291
sVcomments
p7292
g2
(g6
S'A\x02\x00\x00'
p7293
tp7294
Rp7295
sVadorable
p7296
g2
(g6
S'\x9c\x00\x00\x00'
p7297
tp7298
Rp7299
sVchristmas
p7300
g2
(g6
S'\x08\x02\x00\x00'
p7301
tp7302
Rp7303
sVofficer
p7304
g2
(g6
S'a\x07\x00\x00'
p7305
tp7306
Rp7307
sVpeek
p7308
g2
(g6
S'\xb9\x07\x00\x00'
p7309
tp7310
Rp7311
sVmarketing
p7312
g2
(g6
S'\xa1\x06\x00\x00'
p7313
tp7314
Rp7315
sVcorn
p7316
g2
(g6
S'}\x02\x00\x00'
p7317
tp7318
Rp7319
sVcontest
p7320
g2
(g6
S'k\x02\x00\x00'
p7321
tp7322
Rp7323
sVillustration
p7324
g2
(g6
S'b\x05\x00\x00'
p7325
tp7326
Rp7327
sVeye
p7328
g2
(g6
S'\xeb\x03\x00\x00'
p7329
tp7330
Rp7331
sVpost
p7332
g2
(g6
S'\x13\x08\x00\x00'
p7333
tp7334
Rp7335
sVgartner
p7336
g2
(g6
S'\x87\x04\x00\x00'
p7337
tp7338
Rp7339
sVmeyer
p7340
g2
(g6
S'\xd2\x06\x00\x00'
p7341
tp7342
Rp7343
sVtheirs
p7344
g2
(g6
S'\x9e\n\x00\x00'
p7345
tp7346
Rp7347
sVmonths
p7348
g2
(g6
S'\x05\x07\x00\x00'
p7349
tp7350
Rp7351
sVle
p7352
g2
(g6
S'3\x06\x00\x00'
p7353
tp7354
Rp7355
sVplus
p7356
g2
(g6
S'\xfc\x07\x00\x00'
p7357
tp7358
Rp7359
sVhorizon
p7360
g2
(g6
S'6\x05\x00\x00'
p7361
tp7362
Rp7363
sVefforts
p7364
g2
(g6
S's\x03\x00\x00'
p7365
tp7366
Rp7367
sVpresence
p7368
g2
(g6
S'(\x08\x00\x00'
p7369
tp7370
Rp7371
sVcivil
p7372
g2
(g6
S'\x11\x02\x00\x00'
p7373
tp7374
Rp7375
sVgearing
p7376
g2
(g6
S'\x8f\x04\x00\x00'
p7377
tp7378
Rp7379
sVentrepreneur
p7380
g2
(g6
S'\xa8\x03\x00\x00'
p7381
tp7382
Rp7383
sVdonated
p7384
g2
(g6
S'=\x03\x00\x00'
p7385
tp7386
Rp7387
sVdeal
p7388
g2
(g6
S'\xda\x02\x00\x00'
p7389
tp7390
Rp7391
sVtransform
p7392
g2
(g6
S'\xdd\n\x00\x00'
p7393
tp7394
Rp7395
sVfight
p7396
g2
(g6
S"'\x04\x00\x00"
p7397
tp7398
Rp7399
sVgig
p7400
g2
(g6
S'\x9f\x04\x00\x00'
p7401
tp7402
Rp7403
sVanderson
p7404
g2
(g6
S'\xc7\x00\x00\x00'
p7405
tp7406
Rp7407
sVunstaged
p7408
g2
(g6
S'\x1f\x0b\x00\x00'
p7409
tp7410
Rp7411
sVway
p7412
g2
(g6
S'\x82\x0b\x00\x00'
p7413
tp7414
Rp7415
sVeditions
p7416
g2
(g6
S'l\x03\x00\x00'
p7417
tp7418
Rp7419
sVwar
p7420
g2
(g6
S'v\x0b\x00\x00'
p7421
tp7422
Rp7423
sVhead
p7424
g2
(g6
S'\xf3\x04\x00\x00'
p7425
tp7426
Rp7427
sVdeaf
p7428
g2
(g6
S'\xd9\x02\x00\x00'
p7429
tp7430
Rp7431
sVgarages
p7432
g2
(g6
S'\x84\x04\x00\x00'
p7433
tp7434
Rp7435
sVhear
p7436
g2
(g6
S'\xf9\x04\x00\x00'
p7437
tp7438
Rp7439
sVsolar
p7440
g2
(g6
S'\xc3\t\x00\x00'
p7441
tp7442
Rp7443
sVcacio
p7444
g2
(g6
S'\xa0\x01\x00\x00'
p7445
tp7446
Rp7447
sVtrue
p7448
g2
(g6
S'\xf3\n\x00\x00'
p7449
tp7450
Rp7451
sVdeepest
p7452
g2
(g6
S'\xe6\x02\x00\x00'
p7453
tp7454
Rp7455
sVfriday
p7456
g2
(g6
S'j\x04\x00\x00'
p7457
tp7458
Rp7459
sVgenerosity
p7460
g2
(g6
S'\x96\x04\x00\x00'
p7461
tp7462
Rp7463
sVpromises
p7464
g2
(g6
S'P\x08\x00\x00'
p7465
tp7466
Rp7467
sVcomputing
p7468
g2
(g6
S'S\x02\x00\x00'
p7469
tp7470
Rp7471
sVabstract
p7472
g2
(g6
S't\x00\x00\x00'
p7473
tp7474
Rp7475
sVkaufman
p7476
g2
(g6
S'\xf7\x05\x00\x00'
p7477
tp7478
Rp7479
sVdear
p7480
g2
(g6
S'\xdc\x02\x00\x00'
p7481
tp7482
Rp7483
sVtrip
p7484
g2
(g6
S'\xee\n\x00\x00'
p7485
tp7486
Rp7487
sVphysical
p7488
g2
(g6
S'\xd9\x07\x00\x00'
p7489
tp7490
Rp7491
sVnh
p7492
g2
(g6
S'>\x07\x00\x00'
p7493
tp7494
Rp7495
sVtix
p7496
g2
(g6
S'\xb9\n\x00\x00'
p7497
tp7498
Rp7499
sVdying
p7500
g2
(g6
S'Y\x03\x00\x00'
p7501
tp7502
Rp7503
sVmashup
p7504
g2
(g6
S'\xa9\x06\x00\x00'
p7505
tp7506
Rp7507
sVstake
p7508
g2
(g6
S'\xf8\t\x00\x00'
p7509
tp7510
Rp7511
sVhandmade
p7512
g2
(g6
S'\xe1\x04\x00\x00'
p7513
tp7514
Rp7515
sVreality
p7516
g2
(g6
S'\x94\x08\x00\x00'
p7517
tp7518
Rp7519
sVnz
p7520
g2
(g6
S'T\x07\x00\x00'
p7521
tp7522
Rp7523
sVinterested
p7524
g2
(g6
S'\xa6\x05\x00\x00'
p7525
tp7526
Rp7527
sVtest
p7528
g2
(g6
S'\x95\n\x00\x00'
p7529
tp7530
Rp7531
sVscored
p7532
g2
(g6
S'>\t\x00\x00'
p7533
tp7534
Rp7535
sVpicture
p7536
g2
(g6
S'\xde\x07\x00\x00'
p7537
tp7538
Rp7539
sVmentor
p7540
g2
(g6
S'\xc5\x06\x00\x00'
p7541
tp7542
Rp7543
sVwelcome
p7544
g2
(g6
S'\x93\x0b\x00\x00'
p7545
tp7546
Rp7547
sVupdate
p7548
g2
(g6
S'&\x0b\x00\x00'
p7549
tp7550
Rp7551
sVseeing
p7552
g2
(g6
S'R\t\x00\x00'
p7553
tp7554
Rp7555
sVregime
p7556
g2
(g6
S'\xb1\x08\x00\x00'
p7557
tp7558
Rp7559
sVfaster
p7560
g2
(g6
S'\x06\x04\x00\x00'
p7561
tp7562
Rp7563
sVlanded
p7564
g2
(g6
S'\x1c\x06\x00\x00'
p7565
tp7566
Rp7567
sVlineup
p7568
g2
(g6
S'[\x06\x00\x00'
p7569
tp7570
Rp7571
sVsongs
p7572
g2
(g6
S'\xca\t\x00\x00'
p7573
tp7574
Rp7575
sVconcept
p7576
g2
(g6
S'T\x02\x00\x00'
p7577
tp7578
Rp7579
sVbroke
p7580
g2
(g6
S'\x85\x01\x00\x00'
p7581
tp7582
Rp7583
sVremarkable
p7584
g2
(g6
S'\xbb\x08\x00\x00'
p7585
tp7586
Rp7587
sVdance
p7588
g2
(g6
S'\xc6\x02\x00\x00'
p7589
tp7590
Rp7591
sVglobal
p7592
g2
(g6
S'\xac\x04\x00\x00'
p7593
tp7594
Rp7595
sVfocus
p7596
g2
(g6
S'I\x04\x00\x00'
p7597
tp7598
Rp7599
sVdeliveries
p7600
g2
(g6
S'\xea\x02\x00\x00'
p7601
tp7602
Rp7603
sVleads
p7604
g2
(g6
S'9\x06\x00\x00'
p7605
tp7606
Rp7607
sVquestions
p7608
g2
(g6
S'w\x08\x00\x00'
p7609
tp7610
Rp7611
sVlatinos
p7612
g2
(g6
S'*\x06\x00\x00'
p7613
tp7614
Rp7615
sVbattle
p7616
g2
(g6
S'0\x01\x00\x00'
p7617
tp7618
Rp7619
sVrow
p7620
g2
(g6
S'\n\t\x00\x00'
p7621
tp7622
Rp7623
sVcertainly
p7624
g2
(g6
S'\xdb\x01\x00\x00'
p7625
tp7626
Rp7627
sVzone
p7628
g2
(g6
S'\xe5\x0b\x00\x00'
p7629
tp7630
Rp7631
sVhonoring
p7632
g2
(g6
S'2\x05\x00\x00'
p7633
tp7634
Rp7635
sVhump
p7636
g2
(g6
S'M\x05\x00\x00'
p7637
tp7638
Rp7639
sVclick
p7640
g2
(g6
S'\x1a\x02\x00\x00'
p7641
tp7642
Rp7643
sVcharge
p7644
g2
(g6
S'\xea\x01\x00\x00'
p7645
tp7646
Rp7647
sVvegas
p7648
g2
(g6
S'@\x0b\x00\x00'
p7649
tp7650
Rp7651
sVexpectations
p7652
g2
(g6
S'\xd9\x03\x00\x00'
p7653
tp7654
Rp7655
sVcool
p7656
g2
(g6
S'z\x02\x00\x00'
p7657
tp7658
Rp7659
sVclouds
p7660
g2
(g6
S'%\x02\x00\x00'
p7661
tp7662
Rp7663
sVhour
p7664
g2
(g6
S'B\x05\x00\x00'
p7665
tp7666
Rp7667
sVtrifecta
p7668
g2
(g6
S'\xed\n\x00\x00'
p7669
tp7670
Rp7671
sVpresented
p7672
g2
(g6
S'*\x08\x00\x00'
p7673
tp7674
Rp7675
sVturns
p7676
g2
(g6
S'\x00\x0b\x00\x00'
p7677
tp7678
Rp7679
sVphilippines
p7680
g2
(g6
S'\xd0\x07\x00\x00'
p7681
tp7682
Rp7683
sVposts
p7684
g2
(g6
S'\x14\x08\x00\x00'
p7685
tp7686
Rp7687
sVyale
p7688
g2
(g6
S'\xd4\x0b\x00\x00'
p7689
tp7690
Rp7691
sVquick
p7692
g2
(g6
S'x\x08\x00\x00'
p7693
tp7694
Rp7695
sVgop
p7696
g2
(g6
S'\xb6\x04\x00\x00'
p7697
tp7698
Rp7699
sVpork
p7700
g2
(g6
S'\x0b\x08\x00\x00'
p7701
tp7702
Rp7703
sVrevolution
p7704
g2
(g6
S'\xdf\x08\x00\x00'
p7705
tp7706
Rp7707
sVsays
p7708
g2
(g6
S'-\t\x00\x00'
p7709
tp7710
Rp7711
sVregret
p7712
g2
(g6
S'\xb4\x08\x00\x00'
p7713
tp7714
Rp7715
sVtrend
p7716
g2
(g6
S'\xe9\n\x00\x00'
p7717
tp7718
Rp7719
sVbravo
p7720
g2
(g6
S'o\x01\x00\x00'
p7721
tp7722
Rp7723
sVdiscover
p7724
g2
(g6
S'\x1f\x03\x00\x00'
p7725
tp7726
Rp7727
sVcyber
p7728
g2
(g6
S'\xc1\x02\x00\x00'
p7729
tp7730
Rp7731
sVcost
p7732
g2
(g6
S'\x80\x02\x00\x00'
p7733
tp7734
Rp7735
sVbold
p7736
g2
(g6
S'[\x01\x00\x00'
p7737
tp7738
Rp7739
sVshares
p7740
g2
(g6
S't\t\x00\x00'
p7741
tp7742
Rp7743
sVgoes
p7744
g2
(g6
S'\xb1\x04\x00\x00'
p7745
tp7746
Rp7747
sVshared
p7748
g2
(g6
S's\t\x00\x00'
p7749
tp7750
Rp7751
sVstaff
p7752
g2
(g6
S'\xf5\t\x00\x00'
p7753
tp7754
Rp7755
sVsupporting
p7756
g2
(g6
S'N\n\x00\x00'
p7757
tp7758
Rp7759
sVgeicosnaps
p7760
g2
(g6
S'\x92\x04\x00\x00'
p7761
tp7762
Rp7763
sVinspiring
p7764
g2
(g6
S'\x9b\x05\x00\x00'
p7765
tp7766
Rp7767
sVwater
p7768
g2
(g6
S'}\x0b\x00\x00'
p7769
tp7770
Rp7771
sVdownloaded
p7772
g2
(g6
S'D\x03\x00\x00'
p7773
tp7774
Rp7775
sVbaseball
p7776
g2
(g6
S'+\x01\x00\x00'
p7777
tp7778
Rp7779
sVteaches
p7780
g2
(g6
S'~\n\x00\x00'
p7781
tp7782
Rp7783
sVappears
p7784
g2
(g6
S'\xde\x00\x00\x00'
p7785
tp7786
Rp7787
sVchange
p7788
g2
(g6
S'\xe3\x01\x00\x00'
p7789
tp7790
Rp7791
sVsending
p7792
g2
(g6
S']\t\x00\x00'
p7793
tp7794
Rp7795
sVdec
p7796
g2
(g6
S'\xdf\x02\x00\x00'
p7797
tp7798
Rp7799
sVpediatric
p7800
g2
(g6
S'\xb7\x07\x00\x00'
p7801
tp7802
Rp7803
sVcorp
p7804
g2
(g6
S'\x7f\x02\x00\x00'
p7805
tp7806
Rp7807
sVextra
p7808
g2
(g6
S'\xe8\x03\x00\x00'
p7809
tp7810
Rp7811
sVbicultural
p7812
g2
(g6
S'>\x01\x00\x00'
p7813
tp7814
Rp7815
sV1st
p7816
g2
(g6
S'\x1e\x00\x00\x00'
p7817
tp7818
Rp7819
sVforussernmat
p7820
g2
(g6
S'^\x04\x00\x00'
p7821
tp7822
Rp7823
sVmarket
p7824
g2
(g6
S'\xa0\x06\x00\x00'
p7825
tp7826
Rp7827
sVlive
p7828
g2
(g6
S'e\x06\x00\x00'
p7829
tp7830
Rp7831
sVandy
p7832
g2
(g6
S'\xc9\x00\x00\x00'
p7833
tp7834
Rp7835
sViphone
p7836
g2
(g6
S'\xbb\x05\x00\x00'
p7837
tp7838
Rp7839
sVaustralian
p7840
g2
(g6
S'\x08\x01\x00\x00'
p7841
tp7842
Rp7843
sVprep
p7844
g2
(g6
S'"\x08\x00\x00'
p7845
tp7846
Rp7847
sVtoday
p7848
g2
(g6
S'\xbc\n\x00\x00'
p7849
tp7850
Rp7851
sVclub
p7852
g2
(g6
S'&\x02\x00\x00'
p7853
tp7854
Rp7855
sVshare
p7856
g2
(g6
S'r\t\x00\x00'
p7857
tp7858
Rp7859
sVclue
p7860
g2
(g6
S"'\x02\x00\x00"
p7861
tp7862
Rp7863
sVnguyen
p7864
g2
(g6
S'=\x07\x00\x00'
p7865
tp7866
Rp7867
sVcommissioned
p7868
g2
(g6
S'D\x02\x00\x00'
p7869
tp7870
Rp7871
sVcases
p7872
g2
(g6
S'\xc9\x01\x00\x00'
p7873
tp7874
Rp7875
sVinsights
p7876
g2
(g6
S'\x96\x05\x00\x00'
p7877
tp7878
Rp7879
sVorganizations
p7880
g2
(g6
S'z\x07\x00\x00'
p7881
tp7882
Rp7883
sVchions
p7884
g2
(g6
S'\x01\x02\x00\x00'
p7885
tp7886
Rp7887
sVgraphic
p7888
g2
(g6
S'\xc0\x04\x00\x00'
p7889
tp7890
Rp7891
sVcar
p7892
g2
(g6
S'\xb7\x01\x00\x00'
p7893
tp7894
Rp7895
sVcat
p7896
g2
(g6
S'\xcc\x01\x00\x00'
p7897
tp7898
Rp7899
sVflagship
p7900
g2
(g6
S'C\x04\x00\x00'
p7901
tp7902
Rp7903
sVgathers
p7904
g2
(g6
S'\x8c\x04\x00\x00'
p7905
tp7906
Rp7907
sVhope
p7908
g2
(g6
S'5\x05\x00\x00'
p7909
tp7910
Rp7911
sVroundtable
p7912
g2
(g6
S'\x06\t\x00\x00'
p7913
tp7914
Rp7915
sVstreak
p7916
g2
(g6
S"'\n\x00\x00"
p7917
tp7918
Rp7919
sVheart
p7920
g2
(g6
S'\xfd\x04\x00\x00'
p7921
tp7922
Rp7923
sVdedicated
p7924
g2
(g6
S'\xe4\x02\x00\x00'
p7925
tp7926
Rp7927
sVgaston
p7928
g2
(g6
S'\x88\x04\x00\x00'
p7929
tp7930
Rp7931
sVtrump
p7932
g2
(g6
S'\xf5\n\x00\x00'
p7933
tp7934
Rp7935
sVhears
p7936
g2
(g6
S'\xfc\x04\x00\x00'
p7937
tp7938
Rp7939
sVexpanding
p7940
g2
(g6
S'\xd5\x03\x00\x00'
p7941
tp7942
Rp7943
sVheard
p7944
g2
(g6
S'\xfa\x04\x00\x00'
p7945
tp7946
Rp7947
sVhandle
p7948
g2
(g6
S'\xe0\x04\x00\x00'
p7949
tp7950
Rp7951
sVclothing
p7952
g2
(g6
S'#\x02\x00\x00'
p7953
tp7954
Rp7955
sVswedish
p7956
g2
(g6
S'^\n\x00\x00'
p7957
tp7958
Rp7959
sVproductive
p7960
g2
(g6
S'D\x08\x00\x00'
p7961
tp7962
Rp7963
sVinstant
p7964
g2
(g6
S'\x9e\x05\x00\x00'
p7965
tp7966
Rp7967
sVrobinson
p7968
g2
(g6
S'\xf7\x08\x00\x00'
p7969
tp7970
Rp7971
sVdiscussion
p7972
g2
(g6
S'"\x03\x00\x00'
p7973
tp7974
Rp7975
sVwatching
p7976
g2
(g6
S'|\x0b\x00\x00'
p7977
tp7978
Rp7979
sVgiveaways
p7980
g2
(g6
S'\xa3\x04\x00\x00'
p7981
tp7982
Rp7983
sVlounge
p7984
g2
(g6
S'v\x06\x00\x00'
p7985
tp7986
Rp7987
sVfourth
p7988
g2
(g6
S'a\x04\x00\x00'
p7989
tp7990
Rp7991
sVensure
p7992
g2
(g6
S'\xa0\x03\x00\x00'
p7993
tp7994
Rp7995
sVspeaks
p7996
g2
(g6
S'\xd8\t\x00\x00'
p7997
tp7998
Rp7999
sVphotography
p8000
g2
(g6
S'\xd7\x07\x00\x00'
p8001
tp8002
Rp8003
sVeconomy
p8004
g2
(g6
S'h\x03\x00\x00'
p8005
tp8006
Rp8007
sVproduct
p8008
g2
(g6
S'C\x08\x00\x00'
p8009
tp8010
Rp8011
sVhuge
p8012
g2
(g6
S'K\x05\x00\x00'
p8013
tp8014
Rp8015
sVdive
p8016
g2
(g6
S"'\x03\x00\x00"
p8017
tp8018
Rp8019
sVlevi
p8020
g2
(g6
S'M\x06\x00\x00'
p8021
tp8022
Rp8023
sV4th
p8024
g2
(g6
S'L\x00\x00\x00'
p8025
tp8026
Rp8027
sVprodeploy
p8028
g2
(g6
S'A\x08\x00\x00'
p8029
tp8030
Rp8031
sVnomination
p8032
g2
(g6
S'D\x07\x00\x00'
p8033
tp8034
Rp8035
sVavengers
p8036
g2
(g6
S'\x11\x01\x00\x00'
p8037
tp8038
Rp8039
sVgoal
p8040
g2
(g6
S'\xaf\x04\x00\x00'
p8041
tp8042
Rp8043
sVclassroom
p8044
g2
(g6
S'\x18\x02\x00\x00'
p8045
tp8046
Rp8047
sVhhttgacy
p8048
g2
(g6
S'\x10\x05\x00\x00'
p8049
tp8050
Rp8051
sVremember
p8052
g2
(g6
S'\xbc\x08\x00\x00'
p8053
tp8054
Rp8055
sVsept
p8056
g2
(g6
S'`\t\x00\x00'
p8057
tp8058
Rp8059
sVfutures
p8060
g2
(g6
S'w\x04\x00\x00'
p8061
tp8062
Rp8063
sVexclusive
p8064
g2
(g6
S'\xcc\x03\x00\x00'
p8065
tp8066
Rp8067
sVserving
p8068
g2
(g6
S'h\t\x00\x00'
p8069
tp8070
Rp8071
sVwords
p8072
g2
(g6
S'\xbb\x0b\x00\x00'
p8073
tp8074
Rp8075
sVmidnight
p8076
g2
(g6
S'\xd9\x06\x00\x00'
p8077
tp8078
Rp8079
sVbrain
p8080
g2
(g6
S'l\x01\x00\x00'
p8081
tp8082
Rp8083
sVtablets
p8084
g2
(g6
S'j\n\x00\x00'
p8085
tp8086
Rp8087
sVcold
p8088
g2
(g6
S'/\x02\x00\x00'
p8089
tp8090
Rp8091
sVbirds
p8092
g2
(g6
S'F\x01\x00\x00'
p8093
tp8094
Rp8095
sVplatform
p8096
g2
(g6
S'\xf1\x07\x00\x00'
p8097
tp8098
Rp8099
sVbroadcasts
p8100
g2
(g6
S'\x83\x01\x00\x00'
p8101
tp8102
Rp8103
sVoffers
p8104
g2
(g6
S'_\x07\x00\x00'
p8105
tp8106
Rp8107
sVselfie
p8108
g2
(g6
S'X\t\x00\x00'
p8109
tp8110
Rp8111
sVhappened
p8112
g2
(g6
S'\xe4\x04\x00\x00'
p8113
tp8114
Rp8115
sVunveiling
p8116
g2
(g6
S'"\x0b\x00\x00'
p8117
tp8118
Rp8119
sVevolution
p8120
g2
(g6
S'\xc6\x03\x00\x00'
p8121
tp8122
Rp8123
sVintroduce
p8124
g2
(g6
S'\xae\x05\x00\x00'
p8125
tp8126
Rp8127
sVhalf
p8128
g2
(g6
S'\xdb\x04\x00\x00'
p8129
tp8130
Rp8131
sVrecap
p8132
g2
(g6
S'\x99\x08\x00\x00'
p8133
tp8134
Rp8135
sVnov
p8136
g2
(g6
S'N\x07\x00\x00'
p8137
tp8138
Rp8139
sVhall
p8140
g2
(g6
S'\xdc\x04\x00\x00'
p8141
tp8142
Rp8143
sVterm
p8144
g2
(g6
S'\x92\n\x00\x00'
p8145
tp8146
Rp8147
sVequality
p8148
g2
(g6
S'\xb4\x03\x00\x00'
p8149
tp8150
Rp8151
sVdrop
p8152
g2
(g6
S'P\x03\x00\x00'
p8153
tp8154
Rp8155
sVaccomplishments
p8156
g2
(g6
S'}\x00\x00\x00'
p8157
tp8158
Rp8159
sVconcerts
p8160
g2
(g6
S'W\x02\x00\x00'
p8161
tp8162
Rp8163
sVem
p8164
g2
(g6
S'{\x03\x00\x00'
p8165
tp8166
Rp8167
sVen
p8168
g2
(g6
S'\x8b\x03\x00\x00'
p8169
tp8170
Rp8171
sVwebinar
p8172
g2
(g6
S'\x8b\x0b\x00\x00'
p8173
tp8174
Rp8175
sVreplay
p8176
g2
(g6
S'\xc2\x08\x00\x00'
p8177
tp8178
Rp8179
sVyear
p8180
g2
(g6
S'\xd5\x0b\x00\x00'
p8181
tp8182
Rp8183
sVet
p8184
g2
(g6
S'\xbe\x03\x00\x00'
p8185
tp8186
Rp8187
sVteams
p8188
g2
(g6
S'\x83\n\x00\x00'
p8189
tp8190
Rp8191
sVmonitors
p8192
g2
(g6
S'\x02\x07\x00\x00'
p8193
tp8194
Rp8195
sValbum
p8196
g2
(g6
S'\xb2\x00\x00\x00'
p8197
tp8198
Rp8199
sVshown
p8200
g2
(g6
S'\x8b\t\x00\x00'
p8201
tp8202
Rp8203
sVopened
p8204
g2
(g6
S'n\x07\x00\x00'
p8205
tp8206
Rp8207
sVspace
p8208
g2
(g6
S'\xd2\t\x00\x00'
p8209
tp8210
Rp8211
sVprofit
p8212
g2
(g6
S'I\x08\x00\x00'
p8213
tp8214
Rp8215
sVlooking
p8216
g2
(g6
S'q\x06\x00\x00'
p8217
tp8218
Rp8219
sVshows
p8220
g2
(g6
S'\x8c\t\x00\x00'
p8221
tp8222
Rp8223
sVcars
p8224
g2
(g6
S'\xc6\x01\x00\x00'
p8225
tp8226
Rp8227
sVzuckerberg
p8228
g2
(g6
S'\xe6\x0b\x00\x00'
p8229
tp8230
Rp8231
sVprosser
p8232
g2
(g6
S'R\x08\x00\x00'
p8233
tp8234
Rp8235
sVcard
p8236
g2
(g6
S'\xba\x01\x00\x00'
p8237
tp8238
Rp8239
sVcare
p8240
g2
(g6
S'\xbc\x01\x00\x00'
p8241
tp8242
Rp8243
sVcouldn
p8244
g2
(g6
S'\x83\x02\x00\x00'
p8245
tp8246
Rp8247
sVtransition
p8248
g2
(g6
S'\xe1\n\x00\x00'
p8249
tp8250
Rp8251
sVbritish
p8252
g2
(g6
S'\x81\x01\x00\x00'
p8253
tp8254
Rp8255
sVturn
p8256
g2
(g6
S'\xff\n\x00\x00'
p8257
tp8258
Rp8259
sVplace
p8260
g2
(g6
S'\xe9\x07\x00\x00'
p8261
tp8262
Rp8263
sVstyles
p8264
g2
(g6
S'9\n\x00\x00'
p8265
tp8266
Rp8267
sVnonprofit
p8268
g2
(g6
S'F\x07\x00\x00'
p8269
tp8270
Rp8271
sV1000
p8272
g2
(g6
S'\x04\x00\x00\x00'
p8273
tp8274
Rp8275
sVblind
p8276
g2
(g6
S'P\x01\x00\x00'
p8277
tp8278
Rp8279
sVstriking
p8280
g2
(g6
S',\n\x00\x00'
p8281
tp8282
Rp8283
sVxd
p8284
g2
(g6
S'\xcf\x0b\x00\x00'
p8285
tp8286
Rp8287
sVsoaring
p8288
g2
(g6
S'\xbd\t\x00\x00'
p8289
tp8290
Rp8291
sVsimplified
p8292
g2
(g6
S'\x98\t\x00\x00'
p8293
tp8294
Rp8295
sVdirectly
p8296
g2
(g6
S'\x18\x03\x00\x00'
p8297
tp8298
Rp8299
sVgala
p8300
g2
(g6
S'|\x04\x00\x00'
p8301
tp8302
Rp8303
sVring
p8304
g2
(g6
S'\xeb\x08\x00\x00'
p8305
tp8306
Rp8307
sVtomorrow
p8308
g2
(g6
S'\xc1\n\x00\x00'
p8309
tp8310
Rp8311
sVengineer
p8312
g2
(g6
S'\x95\x03\x00\x00'
p8313
tp8314
Rp8315
sVgif
p8316
g2
(g6
S'\x9c\x04\x00\x00'
p8317
tp8318
Rp8319
sVcaught
p8320
g2
(g6
S'\xce\x01\x00\x00'
p8321
tp8322
Rp8323
sVremotely
p8324
g2
(g6
S'\xbf\x08\x00\x00'
p8325
tp8326
Rp8327
sVreturns
p8328
g2
(g6
S'\xd9\x08\x00\x00'
p8329
tp8330
Rp8331
sVwhite
p8332
g2
(g6
S'\x9c\x0b\x00\x00'
p8333
tp8334
Rp8335
sVgives
p8336
g2
(g6
S'\xa5\x04\x00\x00'
p8337
tp8338
Rp8339
sVhub
p8340
g2
(g6
S'I\x05\x00\x00'
p8341
tp8342
Rp8343
sVreleased
p8344
g2
(g6
S'\xb7\x08\x00\x00'
p8345
tp8346
Rp8347
sVprofessionals
p8348
g2
(g6
S'H\x08\x00\x00'
p8349
tp8350
Rp8351
sVtelevision
p8352
g2
(g6
S'\x8d\n\x00\x00'
p8353
tp8354
Rp8355
sVrugged
p8356
g2
(g6
S'\r\t\x00\x00'
p8357
tp8358
Rp8359
sVtweeting
p8360
g2
(g6
S'\x04\x0b\x00\x00'
p8361
tp8362
Rp8363
sVcards
p8364
g2
(g6
S'\xbb\x01\x00\x00'
p8365
tp8366
Rp8367
sVenabled
p8368
g2
(g6
S'\x8d\x03\x00\x00'
p8369
tp8370
Rp8371
sVmulligan
p8372
g2
(g6
S'\x15\x07\x00\x00'
p8373
tp8374
Rp8375
sVthehhttg
p8376
g2
(g6
S'\x9d\n\x00\x00'
p8377
tp8378
Rp8379
sVpre
p8380
g2
(g6
S'\x1c\x08\x00\x00'
p8381
tp8382
Rp8383
sVenhanced
p8384
g2
(g6
S'\x99\x03\x00\x00'
p8385
tp8386
Rp8387
sVpro
p8388
g2
(g6
S'>\x08\x00\x00'
p8389
tp8390
Rp8391
sVslam
p8392
g2
(g6
S'\xab\t\x00\x00'
p8393
tp8394
Rp8395
sVmarathon
p8396
g2
(g6
S'\x9b\x06\x00\x00'
p8397
tp8398
Rp8399
sVoffering
p8400
g2
(g6
S'^\x07\x00\x00'
p8401
tp8402
Rp8403
sVveteran
p8404
g2
(g6
S'H\x0b\x00\x00'
p8405
tp8406
Rp8407
sVideal
p8408
g2
(g6
S']\x05\x00\x00'
p8409
tp8410
Rp8411
sVanimation
p8412
g2
(g6
S'\xcb\x00\x00\x00'
p8413
tp8414
Rp8415
sVonline
p8416
g2
(g6
S'k\x07\x00\x00'
p8417
tp8418
Rp8419
sVawaits
p8420
g2
(g6
S'\x15\x01\x00\x00'
p8421
tp8422
Rp8423
sVswung
p8424
g2
(g6
S'e\n\x00\x00'
p8425
tp8426
Rp8427
sVbegin
p8428
g2
(g6
S'4\x01\x00\x00'
p8429
tp8430
Rp8431
sVsure
p8432
g2
(g6
S'P\n\x00\x00'
p8433
tp8434
Rp8435
sVprice
p8436
g2
(g6
S'2\x08\x00\x00'
p8437
tp8438
Rp8439
sVvisitors
p8440
g2
(g6
S']\x0b\x00\x00'
p8441
tp8442
Rp8443
sVdonation
p8444
g2
(g6
S'>\x03\x00\x00'
p8445
tp8446
Rp8447
sVicon
p8448
g2
(g6
S'V\x05\x00\x00'
p8449
tp8450
Rp8451
sVwireless
p8452
g2
(g6
S'\xaa\x0b\x00\x00'
p8453
tp8454
Rp8455
sVproud
p8456
g2
(g6
S'W\x08\x00\x00'
p8457
tp8458
Rp8459
sVimplications
p8460
g2
(g6
S'i\x05\x00\x00'
p8461
tp8462
Rp8463
sVsunset
p8464
g2
(g6
S'E\n\x00\x00'
p8465
tp8466
Rp8467
sVsoho
p8468
g2
(g6
S'\xc2\t\x00\x00'
p8469
tp8470
Rp8471
sVprofessional
p8472
g2
(g6
S'G\x08\x00\x00'
p8473
tp8474
Rp8475
sVdirected
p8476
g2
(g6
S'\x16\x03\x00\x00'
p8477
tp8478
Rp8479
sVrecipe
p8480
g2
(g6
S'\x9e\x08\x00\x00'
p8481
tp8482
Rp8483
sVteamed
p8484
g2
(g6
S'\x80\n\x00\x00'
p8485
tp8486
Rp8487
sVhack
p8488
g2
(g6
S'\xd7\x04\x00\x00'
p8489
tp8490
Rp8491
sVground
p8492
g2
(g6
S'\xc9\x04\x00\x00'
p8493
tp8494
Rp8495
sVwood
p8496
g2
(g6
S'\xb9\x0b\x00\x00'
p8497
tp8498
Rp8499
sVlarsson
p8500
g2
(g6
S'$\x06\x00\x00'
p8501
tp8502
Rp8503
sVtruly
p8504
g2
(g6
S'\xf4\n\x00\x00'
p8505
tp8506
Rp8507
sVukraines
p8508
g2
(g6
S'\x10\x0b\x00\x00'
p8509
tp8510
Rp8511
sVcelebrate
p8512
g2
(g6
S'\xd2\x01\x00\x00'
p8513
tp8514
Rp8515
sVfreaking
p8516
g2
(g6
S'f\x04\x00\x00'
p8517
tp8518
Rp8519
sVreveal
p8520
g2
(g6
S'\xda\x08\x00\x00'
p8521
tp8522
Rp8523
sVleather
p8524
g2
(g6
S'>\x06\x00\x00'
p8525
tp8526
Rp8527
sVisnt
p8528
g2
(g6
S'\xc0\x05\x00\x00'
p8529
tp8530
Rp8531
sVcraftsmanship
p8532
g2
(g6
S'\x93\x02\x00\x00'
p8533
tp8534
Rp8535
sVsupercar
p8536
g2
(g6
S'G\n\x00\x00'
p8537
tp8538
Rp8539
sVhotspots
p8540
g2
(g6
S'@\x05\x00\x00'
p8541
tp8542
Rp8543
sVreveals
p8544
g2
(g6
S'\xdc\x08\x00\x00'
p8545
tp8546
Rp8547
sVconcert
p8548
g2
(g6
S'V\x02\x00\x00'
p8549
tp8550
Rp8551
sVends
p8552
g2
(g6
S'\x94\x03\x00\x00'
p8553
tp8554
Rp8555
sVconnections
p8556
g2
(g6
S'b\x02\x00\x00'
p8557
tp8558
Rp8559
sVcollege
p8560
g2
(g6
S'3\x02\x00\x00'
p8561
tp8562
Rp8563
sVsport
p8564
g2
(g6
S'\xe5\t\x00\x00'
p8565
tp8566
Rp8567
sValienware
p8568
g2
(g6
S'\xb4\x00\x00\x00'
p8569
tp8570
Rp8571
sVways
p8572
g2
(g6
S'\x83\x0b\x00\x00'
p8573
tp8574
Rp8575
sVreview
p8576
g2
(g6
S'\xdd\x08\x00\x00'
p8577
tp8578
Rp8579
sVfearless
p8580
g2
(g6
S'\x10\x04\x00\x00'
p8581
tp8582
Rp8583
sVcomeback
p8584
g2
(g6
S':\x02\x00\x00'
p8585
tp8586
Rp8587
sVcities
p8588
g2
(g6
S'\x0f\x02\x00\x00'
p8589
tp8590
Rp8591
sVcome
p8592
g2
(g6
S'9\x02\x00\x00'
p8593
tp8594
Rp8595
sVlookbook
p8596
g2
(g6
S'p\x06\x00\x00'
p8597
tp8598
Rp8599
sVjavier
p8600
g2
(g6
S'\xcb\x05\x00\x00'
p8601
tp8602
Rp8603
sVkicking
p8604
g2
(g6
S'\x04\x06\x00\x00'
p8605
tp8606
Rp8607
sVdeals
p8608
g2
(g6
S'\xdb\x02\x00\x00'
p8609
tp8610
Rp8611
sVregion
p8612
g2
(g6
S'\xb2\x08\x00\x00'
p8613
tp8614
Rp8615
sVenabling
p8616
g2
(g6
S'\x8f\x03\x00\x00'
p8617
tp8618
Rp8619
sVwheels
p8620
g2
(g6
S'\x9a\x0b\x00\x00'
p8621
tp8622
Rp8623
sVcomes
p8624
g2
(g6
S'<\x02\x00\x00'
p8625
tp8626
Rp8627
sVduty
p8628
g2
(g6
S'W\x03\x00\x00'
p8629
tp8630
Rp8631
sVcolor
p8632
g2
(g6
S'4\x02\x00\x00'
p8633
tp8634
Rp8635
sVjeans
p8636
g2
(g6
S'\xd1\x05\x00\x00'
p8637
tp8638
Rp8639
sV60
p8640
g2
(g6
S'U\x00\x00\x00'
p8641
tp8642
Rp8643
sVlearning
p8644
g2
(g6
S'=\x06\x00\x00'
p8645
tp8646
Rp8647
sVmariela
p8648
g2
(g6
S'\x9e\x06\x00\x00'
p8649
tp8650
Rp8651
sVactually
p8652
g2
(g6
S'\x8e\x00\x00\x00'
p8653
tp8654
Rp8655
sVnicole
p8656
g2
(g6
S'@\x07\x00\x00'
p8657
tp8658
Rp8659
sVturkey
p8660
g2
(g6
S'\xfe\n\x00\x00'
p8661
tp8662
Rp8663
sVteammate
p8664
g2
(g6
S'\x82\n\x00\x00'
p8665
tp8666
Rp8667
sVcares
p8668
g2
(g6
S'\xc0\x01\x00\x00'
p8669
tp8670
Rp8671
sVinclusive
p8672
g2
(g6
S'v\x05\x00\x00'
p8673
tp8674
Rp8675
sVcarey
p8676
g2
(g6
S'\xc1\x01\x00\x00'
p8677
tp8678
Rp8679
sVfeaturing
p8680
g2
(g6
S'\x16\x04\x00\x00'
p8681
tp8682
Rp8683
sVhhttg
p8684
g2
(g6
S'\x0f\x05\x00\x00'
p8685
tp8686
Rp8687
sVapplebees
p8688
g2
(g6
S'\xe1\x00\x00\x00'
p8689
tp8690
Rp8691
sVcommands
p8692
g2
(g6
S'@\x02\x00\x00'
p8693
tp8694
Rp8695
sV6s
p8696
g2
(g6
S'X\x00\x00\x00'
p8697
tp8698
Rp8699
sVcovers
p8700
g2
(g6
S'\x8f\x02\x00\x00'
p8701
tp8702
Rp8703
sVcareful
p8704
g2
(g6
S'\xbf\x01\x00\x00'
p8705
tp8706
Rp8707
sVspirit
p8708
g2
(g6
S'\xe0\t\x00\x00'
p8709
tp8710
Rp8711
sVpilot
p8712
g2
(g6
S'\xe3\x07\x00\x00'
p8713
tp8714
Rp8715
sVpaying
p8716
g2
(g6
S'\xaf\x07\x00\x00'
p8717
tp8718
Rp8719
sVeir
p8720
g2
(g6
S'w\x03\x00\x00'
p8721
tp8722
Rp8723
sVdeveloping
p8724
g2
(g6
S'\x08\x03\x00\x00'
p8725
tp8726
Rp8727
sVarnold
p8728
g2
(g6
S'\xea\x00\x00\x00'
p8729
tp8730
Rp8731
sVcoolest
p8732
g2
(g6
S'{\x02\x00\x00'
p8733
tp8734
Rp8735
sVunderstand
p8736
g2
(g6
S'\x14\x0b\x00\x00'
p8737
tp8738
Rp8739
sVhenn
p8740
g2
(g6
S'\x07\x05\x00\x00'
p8741
tp8742
Rp8743
sV100th
p8744
g2
(g6
S'\x05\x00\x00\x00'
p8745
tp8746
Rp8747
sVkenya
p8748
g2
(g6
S'\xfd\x05\x00\x00'
p8749
tp8750
Rp8751
sVdevelop
p8752
g2
(g6
S'\x07\x03\x00\x00'
p8753
tp8754
Rp8755
sVinquire
p8756
g2
(g6
S'\x93\x05\x00\x00'
p8757
tp8758
Rp8759
sVmedia
p8760
g2
(g6
S'\xba\x06\x00\x00'
p8761
tp8762
Rp8763
sVcheck
p8764
g2
(g6
S'\xf2\x01\x00\x00'
p8765
tp8766
Rp8767
sVfood
p8768
g2
(g6
S'O\x04\x00\x00'
p8769
tp8770
Rp8771
sVcruzs
p8772
g2
(g6
S'\xa6\x02\x00\x00'
p8773
tp8774
Rp8775
sVreminder
p8776
g2
(g6
S'\xbd\x08\x00\x00'
p8777
tp8778
Rp8779
sVevents
p8780
g2
(g6
S'\xc4\x03\x00\x00'
p8781
tp8782
Rp8783
sVweek
p8784
g2
(g6
S'\x8f\x0b\x00\x00'
p8785
tp8786
Rp8787
sVfinish
p8788
g2
(g6
S';\x04\x00\x00'
p8789
tp8790
Rp8791
sVdrives
p8792
g2
(g6
S'L\x03\x00\x00'
p8793
tp8794
Rp8795
sVdirector
p8796
g2
(g6
S'\x19\x03\x00\x00'
p8797
tp8798
Rp8799
sVfavorites
p8800
g2
(g6
S'\x0c\x04\x00\x00'
p8801
tp8802
Rp8803
sVfootprint
p8804
g2
(g6
S'R\x04\x00\x00'
p8805
tp8806
Rp8807
sVchanging
p8808
g2
(g6
S'\xe5\x01\x00\x00'
p8809
tp8810
Rp8811
sVcartoon
p8812
g2
(g6
S'\xc7\x01\x00\x00'
p8813
tp8814
Rp8815
sVmagical
p8816
g2
(g6
S'\x8a\x06\x00\x00'
p8817
tp8818
Rp8819
sVinvites
p8820
g2
(g6
S'\xb6\x05\x00\x00'
p8821
tp8822
Rp8823
sVwithour
p8824
g2
(g6
S'\xae\x0b\x00\x00'
p8825
tp8826
Rp8827
sVmodel
p8828
g2
(g6
S'\xf5\x06\x00\x00'
p8829
tp8830
Rp8831
sVmilestone
p8832
g2
(g6
S'\xde\x06\x00\x00'
p8833
tp8834
Rp8835
sVgreetings
p8836
g2
(g6
S'\xc7\x04\x00\x00'
p8837
tp8838
Rp8839
sVharrison
p8840
g2
(g6
S'\xeb\x04\x00\x00'
p8841
tp8842
Rp8843
sVtouch
p8844
g2
(g6
S'\xcc\n\x00\x00'
p8845
tp8846
Rp8847
sVspeed
p8848
g2
(g6
S'\xdb\t\x00\x00'
p8849
tp8850
Rp8851
sVcaptured
p8852
g2
(g6
S'\xb4\x01\x00\x00'
p8853
tp8854
Rp8855
sVny
p8856
g2
(g6
S'R\x07\x00\x00'
p8857
tp8858
Rp8859
sVthinking
p8860
g2
(g6
S'\xa5\n\x00\x00'
p8861
tp8862
Rp8863
sViphones
p8864
g2
(g6
S'\xbc\x05\x00\x00'
p8865
tp8866
Rp8867
sVblog
p8868
g2
(g6
S'Q\x01\x00\x00'
p8869
tp8870
Rp8871
sVlets
p8872
g2
(g6
S'I\x06\x00\x00'
p8873
tp8874
Rp8875
sVsetting
p8876
g2
(g6
S'k\t\x00\x00'
p8877
tp8878
Rp8879
sVtreatment
p8880
g2
(g6
S'\xe7\n\x00\x00'
p8881
tp8882
Rp8883
sVmomentum
p8884
g2
(g6
S'\xfc\x06\x00\x00'
p8885
tp8886
Rp8887
sVreal
p8888
g2
(g6
S'\x93\x08\x00\x00'
p8889
tp8890
Rp8891
sVread
p8892
g2
(g6
S'\x8f\x08\x00\x00'
p8893
tp8894
Rp8895
sVdigital
p8896
g2
(g6
S'\x11\x03\x00\x00'
p8897
tp8898
Rp8899
sVamy
p8900
g2
(g6
S'\xc1\x00\x00\x00'
p8901
tp8902
Rp8903
sVlistening
p8904
g2
(g6
S'`\x06\x00\x00'
p8905
tp8906
Rp8907
sVusing
p8908
g2
(g6
S'4\x0b\x00\x00'
p8909
tp8910
Rp8911
sVlady
p8912
g2
(g6
S'\x18\x06\x00\x00'
p8913
tp8914
Rp8915
sVpst
p8916
g2
(g6
S'_\x08\x00\x00'
p8917
tp8918
Rp8919
sVfortune
p8920
g2
(g6
S'[\x04\x00\x00'
p8921
tp8922
Rp8923
sVblackberry
p8924
g2
(g6
S'M\x01\x00\x00'
p8925
tp8926
Rp8927
sVtower
p8928
g2
(g6
S'\xd1\n\x00\x00'
p8929
tp8930
Rp8931
sVtroubleshoot
p8932
g2
(g6
S'\xf0\n\x00\x00'
p8933
tp8934
Rp8935
sVcompetition
p8936
g2
(g6
S'O\x02\x00\x00'
p8937
tp8938
Rp8939
sVtable
p8940
g2
(g6
S'h\n\x00\x00'
p8941
tp8942
Rp8943
sVviral
p8944
g2
(g6
S'W\x0b\x00\x00'
p8945
tp8946
Rp8947
sVxing
p8948
g2
(g6
S'\xd1\x0b\x00\x00'
p8949
tp8950
Rp8951
sVrecorded
p8952
g2
(g6
S'\xa3\x08\x00\x00'
p8953
tp8954
Rp8955
sVlegal
p8956
g2
(g6
S'B\x06\x00\x00'
p8957
tp8958
Rp8959
sVprovides
p8960
g2
(g6
S'\\\x08\x00\x00'
p8961
tp8962
Rp8963
sVprovider
p8964
g2
(g6
S'Z\x08\x00\x00'
p8965
tp8966
Rp8967
sVeiffel
p8968
g2
(g6
S'v\x03\x00\x00'
p8969
tp8970
Rp8971
sVbusiness
p8972
g2
(g6
S'\x9a\x01\x00\x00'
p8973
tp8974
Rp8975
sVassemble
p8976
g2
(g6
S'\xf6\x00\x00\x00'
p8977
tp8978
Rp8979
sVstereotypes
p8980
g2
(g6
S'\x14\n\x00\x00'
p8981
tp8982
Rp8983
sVdatacenter
p8984
g2
(g6
S'\xce\x02\x00\x00'
p8985
tp8986
Rp8987
sVoh
p8988
g2
(g6
S'd\x07\x00\x00'
p8989
tp8990
Rp8991
sVjeep
p8992
g2
(g6
S'\xd2\x05\x00\x00'
p8993
tp8994
Rp8995
sVjourney
p8996
g2
(g6
S'\xe9\x05\x00\x00'
p8997
tp8998
Rp8999
sVstand
p9000
g2
(g6
S'\xfa\t\x00\x00'
p9001
tp9002
Rp9003
sVunderway
p9004
g2
(g6
S'\x15\x0b\x00\x00'
p9005
tp9006
Rp9007
sVos
p9008
g2
(g6
S'}\x07\x00\x00'
p9009
tp9010
Rp9011
sVinclusion
p9012
g2
(g6
S'u\x05\x00\x00'
p9013
tp9014
Rp9015
sVtheussernmussernm
p9016
g2
(g6
S'\xa1\n\x00\x00'
p9017
tp9018
Rp9019
sVaccounts
p9020
g2
(g6
S'\x80\x00\x00\x00'
p9021
tp9022
Rp9023
sVprepare
p9024
g2
(g6
S'#\x08\x00\x00'
p9025
tp9026
Rp9027
sVarea
p9028
g2
(g6
S'\xe9\x00\x00\x00'
p9029
tp9030
Rp9031
sVstart
p9032
g2
(g6
S'\x00\n\x00\x00'
p9033
tp9034
Rp9035
sVlow
p9036
g2
(g6
S'}\x06\x00\x00'
p9037
tp9038
Rp9039
sVstars
p9040
g2
(g6
S'\xff\t\x00\x00'
p9041
tp9042
Rp9043
sVvalley
p9044
g2
(g6
S':\x0b\x00\x00'
p9045
tp9046
Rp9047
sVlasseter
p9048
g2
(g6
S'&\x06\x00\x00'
p9049
tp9050
Rp9051
sV750
p9052
g2
(g6
S'_\x00\x00\x00'
p9053
tp9054
Rp9055
sVchomping
p9056
g2
(g6
S'\x04\x02\x00\x00'
p9057
tp9058
Rp9059
sVended
p9060
g2
(g6
S'\x92\x03\x00\x00'
p9061
tp9062
Rp9063
sVmultitasking
p9064
g2
(g6
S'\x17\x07\x00\x00'
p9065
tp9066
Rp9067
sVpodcast
p9068
g2
(g6
S'\xfe\x07\x00\x00'
p9069
tp9070
Rp9071
sVhottest
p9072
g2
(g6
S'A\x05\x00\x00'
p9073
tp9074
Rp9075
sVhappening
p9076
g2
(g6
S'\xe5\x04\x00\x00'
p9077
tp9078
Rp9079
sVkatrina
p9080
g2
(g6
S'\xf6\x05\x00\x00'
p9081
tp9082
Rp9083
sVtaylor
p9084
g2
(g6
S'{\n\x00\x00'
p9085
tp9086
Rp9087
sVtaste
p9088
g2
(g6
S'y\n\x00\x00'
p9089
tp9090
Rp9091
sVmoved
p9092
g2
(g6
S'\x0f\x07\x00\x00'
p9093
tp9094
Rp9095
sVsales
p9096
g2
(g6
S'\x1d\t\x00\x00'
p9097
tp9098
Rp9099
sVpolitics
p9100
g2
(g6
S'\x04\x08\x00\x00'
p9101
tp9102
Rp9103
sVmoves
p9104
g2
(g6
S'\x11\x07\x00\x00'
p9105
tp9106
Rp9107
sVhospitals
p9108
g2
(g6
S'7\x05\x00\x00'
p9109
tp9110
Rp9111
sVstorage
p9112
g2
(g6
S'\x1e\n\x00\x00'
p9113
tp9114
Rp9115
sVannouncements
p9116
g2
(g6
S'\xd1\x00\x00\x00'
p9117
tp9118
Rp9119
sVpoor
p9120
g2
(g6
S'\x07\x08\x00\x00'
p9121
tp9122
Rp9123
sVfinale
p9124
g2
(g6
S'/\x04\x00\x00'
p9125
tp9126
Rp9127
sVpodium
p9128
g2
(g6
S'\xff\x07\x00\x00'
p9129
tp9130
Rp9131
sVpeak
p9132
g2
(g6
S'\xb6\x07\x00\x00'
p9133
tp9134
Rp9135
sVcoverage
p9136
g2
(g6
S'\x8d\x02\x00\x00'
p9137
tp9138
Rp9139
sVfinals
p9140
g2
(g6
S'3\x04\x00\x00'
p9141
tp9142
Rp9143
sVbuilding
p9144
g2
(g6
S'\x91\x01\x00\x00'
p9145
tp9146
Rp9147
sVinvest
p9148
g2
(g6
S'\xb3\x05\x00\x00'
p9149
tp9150
Rp9151
sVnarwal
p9152
g2
(g6
S'\x1e\x07\x00\x00'
p9153
tp9154
Rp9155
sVcurve
p9156
g2
(g6
S'\xb6\x02\x00\x00'
p9157
tp9158
Rp9159
sVpreview
p9160
g2
(g6
S'1\x08\x00\x00'
p9161
tp9162
Rp9163
sV4pm
p9164
g2
(g6
S'K\x00\x00\x00'
p9165
tp9166
Rp9167
sVgraphics
p9168
g2
(g6
S'\xc1\x04\x00\x00'
p9169
tp9170
Rp9171
sVmonth
p9172
g2
(g6
S'\x03\x07\x00\x00'
p9173
tp9174
Rp9175
sVfollow
p9176
g2
(g6
S'L\x04\x00\x00'
p9177
tp9178
Rp9179
sVmonty
p9180
g2
(g6
S'\x06\x07\x00\x00'
p9181
tp9182
Rp9183
sVcarpet
p9184
g2
(g6
S'\xc3\x01\x00\x00'
p9185
tp9186
Rp9187
sVglimpse
p9188
g2
(g6
S'\xab\x04\x00\x00'
p9189
tp9190
Rp9191
sVopportunities
p9192
g2
(g6
S't\x07\x00\x00'
p9193
tp9194
Rp9195
sVprogram
p9196
g2
(g6
S'J\x08\x00\x00'
p9197
tp9198
Rp9199
sVgrilled
p9200
g2
(g6
S'\xc8\x04\x00\x00'
p9201
tp9202
Rp9203
sVwoman
p9204
g2
(g6
S'\xb4\x0b\x00\x00'
p9205
tp9206
Rp9207
sVspreading
p9208
g2
(g6
S'\xed\t\x00\x00'
p9209
tp9210
Rp9211
sV1pm
p9212
g2
(g6
S'\x1d\x00\x00\x00'
p9213
tp9214
Rp9215
sVfar
p9216
g2
(g6
S'\x01\x04\x00\x00'
p9217
tp9218
Rp9219
sVselfies
p9220
g2
(g6
S'Y\t\x00\x00'
p9221
tp9222
Rp9223
sVfan
p9224
g2
(g6
S'\xfe\x03\x00\x00'
p9225
tp9226
Rp9227
sVfab
p9228
g2
(g6
S'\xee\x03\x00\x00'
p9229
tp9230
Rp9231
sVbubbles
p9232
g2
(g6
S'\x8b\x01\x00\x00'
p9233
tp9234
Rp9235
sVenter
p9236
g2
(g6
S'\xa1\x03\x00\x00'
p9237
tp9238
Rp9239
sVlist
p9240
g2
(g6
S'^\x06\x00\x00'
p9241
tp9242
Rp9243
sVvibes
p9244
g2
(g6
S'J\x0b\x00\x00'
p9245
tp9246
Rp9247
sVmile
p9248
g2
(g6
S'\xdc\x06\x00\x00'
p9249
tp9250
Rp9251
sVsmith
p9252
g2
(g6
S'\xb6\t\x00\x00'
p9253
tp9254
Rp9255
sVcookies
p9256
g2
(g6
S'x\x02\x00\x00'
p9257
tp9258
Rp9259
sVinstagram
p9260
g2
(g6
S'\x9d\x05\x00\x00'
p9261
tp9262
Rp9263
sVlouvre
p9264
g2
(g6
S'w\x06\x00\x00'
p9265
tp9266
Rp9267
sVtea
p9268
g2
(g6
S'|\n\x00\x00'
p9269
tp9270
Rp9271
sVstreets
p9272
g2
(g6
S'+\n\x00\x00'
p9273
tp9274
Rp9275
sVted
p9276
g2
(g6
S'\x89\n\x00\x00'
p9277
tp9278
Rp9279
sVtee
p9280
g2
(g6
S'\x8a\n\x00\x00'
p9281
tp9282
Rp9283
sVrate
p9284
g2
(g6
S'\x89\x08\x00\x00'
p9285
tp9286
Rp9287
sVfiber
p9288
g2
(g6
S'$\x04\x00\x00'
p9289
tp9290
Rp9291
sVdesign
p9292
g2
(g6
S'\xfd\x02\x00\x00'
p9293
tp9294
Rp9295
sVvalue
p9296
g2
(g6
S'<\x0b\x00\x00'
p9297
tp9298
Rp9299
sVpoll
p9300
g2
(g6
S'\x05\x08\x00\x00'
p9301
tp9302
Rp9303
sVnba
p9304
g2
(g6
S'(\x07\x00\x00'
p9305
tp9306
Rp9307
sVanniversary
p9308
g2
(g6
S'\xce\x00\x00\x00'
p9309
tp9310
Rp9311
sVcrush
p9312
g2
(g6
S'\xa4\x02\x00\x00'
p9313
tp9314
Rp9315
sVversion
p9316
g2
(g6
S'E\x0b\x00\x00'
p9317
tp9318
Rp9319
sVinfamous
p9320
g2
(g6
S'\x84\x05\x00\x00'
p9321
tp9322
Rp9323
sVlearned
p9324
g2
(g6
S'<\x06\x00\x00'
p9325
tp9326
Rp9327
sVracing
p9328
g2
(g6
S'}\x08\x00\x00'
p9329
tp9330
Rp9331
sVanswers
p9332
g2
(g6
S'\xd8\x00\x00\x00'
p9333
tp9334
Rp9335
sVmaui
p9336
g2
(g6
S'\xb1\x06\x00\x00'
p9337
tp9338
Rp9339
sVtracks
p9340
g2
(g6
S'\xd5\n\x00\x00'
p9341
tp9342
Rp9343
sVdirections
p9344
g2
(g6
S'\x17\x03\x00\x00'
p9345
tp9346
Rp9347
sVstrong
p9348
g2
(g6
S'-\n\x00\x00'
p9349
tp9350
Rp9351
sVcappella
p9352
g2
(g6
S'\xb0\x01\x00\x00'
p9353
tp9354
Rp9355
sVnaval
p9356
g2
(g6
S'&\x07\x00\x00'
p9357
tp9358
Rp9359
sVahead
p9360
g2
(g6
S'\xa8\x00\x00\x00'
p9361
tp9362
Rp9363
sVinspired
p9364
g2
(g6
S'\x99\x05\x00\x00'
p9365
tp9366
Rp9367
sVpoint
p9368
g2
(g6
S'\x00\x08\x00\x00'
p9369
tp9370
Rp9371
sVcup
p9372
g2
(g6
S'\xaf\x02\x00\x00'
p9373
tp9374
Rp9375
sVfamily
p9376
g2
(g6
S'\xfc\x03\x00\x00'
p9377
tp9378
Rp9379
sVpartnering
p9380
g2
(g6
S'\x9f\x07\x00\x00'
p9381
tp9382
Rp9383
sVsemester
p9384
g2
(g6
S'[\t\x00\x00'
p9385
tp9386
Rp9387
sVtoys
p9388
g2
(g6
S'\xd3\n\x00\x00'
p9389
tp9390
Rp9391
sVactress
p9392
g2
(g6
S'\x8d\x00\x00\x00'
p9393
tp9394
Rp9395
sVenvironment
p9396
g2
(g6
S'\xad\x03\x00\x00'
p9397
tp9398
Rp9399
sVtakes
p9400
g2
(g6
S'n\n\x00\x00'
p9401
tp9402
Rp9403
sVheroic
p9404
g2
(g6
S'\x0c\x05\x00\x00'
p9405
tp9406
Rp9407
sVdemo
p9408
g2
(g6
S'\xf3\x02\x00\x00'
p9409
tp9410
Rp9411
sVtaken
p9412
g2
(g6
S'l\n\x00\x00'
p9413
tp9414
Rp9415
sVmarkets
p9416
g2
(g6
S'\xa2\x06\x00\x00'
p9417
tp9418
Rp9419
sVterminally
p9420
g2
(g6
S'\x93\n\x00\x00'
p9421
tp9422
Rp9423
sVknows
p9424
g2
(g6
S'\x11\x06\x00\x00'
p9425
tp9426
Rp9427
sVowners
p9428
g2
(g6
S'\x87\x07\x00\x00'
p9429
tp9430
Rp9431
sVflag
p9432
g2
(g6
S'B\x04\x00\x00'
p9433
tp9434
Rp9435
sVglam
p9436
g2
(g6
S'\xa8\x04\x00\x00'
p9437
tp9438
Rp9439
sVknown
p9440
g2
(g6
S'\x10\x06\x00\x00'
p9441
tp9442
Rp9443
sV7000
p9444
g2
(g6
S'\\\x00\x00\x00'
p9445
tp9446
Rp9447
sVnbc
p9448
g2
(g6
S')\x07\x00\x00'
p9449
tp9450
Rp9451
sVglad
p9452
g2
(g6
S'\xa7\x04\x00\x00'
p9453
tp9454
Rp9455
sVvp
p9456
g2
(g6
S'j\x0b\x00\x00'
p9457
tp9458
Rp9459
sV21mp
p9460
g2
(g6
S')\x00\x00\x00'
p9461
tp9462
Rp9463
sVhistory
p9464
g2
(g6
S'!\x05\x00\x00'
p9465
tp9466
Rp9467
sVf1
p9468
g2
(g6
S'\xed\x03\x00\x00'
p9469
tp9470
Rp9471
sVbrown
p9472
g2
(g6
S'\x89\x01\x00\x00'
p9473
tp9474
Rp9475
sVbreaking
p9476
g2
(g6
S's\x01\x00\x00'
p9477
tp9478
Rp9479
sVexplains
p9480
g2
(g6
S'\xe0\x03\x00\x00'
p9481
tp9482
Rp9483
sVthreat
p9484
g2
(g6
S'\xa9\n\x00\x00'
p9485
tp9486
Rp9487
sVsneak
p9488
g2
(g6
S'\xba\t\x00\x00'
p9489
tp9490
Rp9491
sVbrands
p9492
g2
(g6
S'n\x01\x00\x00'
p9493
tp9494
Rp9495
sVadventure
p9496
g2
(g6
S'\x9f\x00\x00\x00'
p9497
tp9498
Rp9499
sVfi
p9500
g2
(g6
S'#\x04\x00\x00'
p9501
tp9502
Rp9503
sVshort
p9504
g2
(g6
S'\x85\t\x00\x00'
p9505
tp9506
Rp9507
sVbugs
p9508
g2
(g6
S'\x8f\x01\x00\x00'
p9509
tp9510
Rp9511
sVanytime
p9512
g2
(g6
S'\xd9\x00\x00\x00'
p9513
tp9514
Rp9515
sVbuns
p9516
g2
(g6
S'\x96\x01\x00\x00'
p9517
tp9518
Rp9519
sVdream
p9520
g2
(g6
S'H\x03\x00\x00'
p9521
tp9522
Rp9523
sVhelp
p9524
g2
(g6
S'\x02\x05\x00\x00'
p9525
tp9526
Rp9527
sVseptember
p9528
g2
(g6
S'a\t\x00\x00'
p9529
tp9530
Rp9531
sVcharities
p9532
g2
(g6
S'\xec\x01\x00\x00'
p9533
tp9534
Rp9535
sVdisabled
p9536
g2
(g6
S'\x1b\x03\x00\x00'
p9537
tp9538
Rp9539
sVcommitted
p9540
g2
(g6
S'F\x02\x00\x00'
p9541
tp9542
Rp9543
sVavenue
p9544
g2
(g6
S'\x12\x01\x00\x00'
p9545
tp9546
Rp9547
sVstyle
p9548
g2
(g6
S'8\n\x00\x00'
p9549
tp9550
Rp9551
sVnordstrom
p9552
g2
(g6
S'H\x07\x00\x00'
p9553
tp9554
Rp9555
sVfurstenberg
p9556
g2
(g6
S'u\x04\x00\x00'
p9557
tp9558
Rp9559
sVsystems
p9560
g2
(g6
S'f\n\x00\x00'
p9561
tp9562
Rp9563
sVreturn
p9564
g2
(g6
S'\xd8\x08\x00\x00'
p9565
tp9566
Rp9567
sVdim
p9568
g2
(g6
S'\x12\x03\x00\x00'
p9569
tp9570
Rp9571
sVces
p9572
g2
(g6
S'\xdc\x01\x00\x00'
p9573
tp9574
Rp9575
sVstarbucks
p9576
g2
(g6
S'\xfd\t\x00\x00'
p9577
tp9578
Rp9579
sVhackathon
p9580
g2
(g6
S'\xd8\x04\x00\x00'
p9581
tp9582
Rp9583
sVparty
p9584
g2
(g6
S'\xa4\x07\x00\x00'
p9585
tp9586
Rp9587
sVcommunities
p9588
g2
(g6
S'H\x02\x00\x00'
p9589
tp9590
Rp9591
sVyr
p9592
g2
(g6
S'\xe2\x0b\x00\x00'
p9593
tp9594
Rp9595
sVandroid
p9596
g2
(g6
S'\xc8\x00\x00\x00'
p9597
tp9598
Rp9599
sVbigger
p9600
g2
(g6
S'A\x01\x00\x00'
p9601
tp9602
Rp9603
sVimpressive
p9604
g2
(g6
S'l\x05\x00\x00'
p9605
tp9606
Rp9607
sVdelorean
p9608
g2
(g6
S'\xf0\x02\x00\x00'
p9609
tp9610
Rp9611
sVlevel
p9612
g2
(g6
S'K\x06\x00\x00'
p9613
tp9614
Rp9615
sVstopped
p9616
g2
(g6
S'\x1c\n\x00\x00'
p9617
tp9618
Rp9619
sVfairy
p9620
g2
(g6
S'\xf8\x03\x00\x00'
p9621
tp9622
Rp9623
sVfriendship
p9624
g2
(g6
S'm\x04\x00\x00'
p9625
tp9626
Rp9627
sVtrailer
p9628
g2
(g6
S'\xd8\n\x00\x00'
p9629
tp9630
Rp9631
sVneil
p9632
g2
(g6
S'1\x07\x00\x00'
p9633
tp9634
Rp9635
sVgeneration
p9636
g2
(g6
S'\x95\x04\x00\x00'
p9637
tp9638
Rp9639
sVused
p9640
g2
(g6
S'/\x0b\x00\x00'
p9641
tp9642
Rp9643
sVexpect
p9644
g2
(g6
S'\xd8\x03\x00\x00'
p9645
tp9646
Rp9647
sVtodd
p9648
g2
(g6
S'\xbe\n\x00\x00'
p9649
tp9650
Rp9651
sVevent
p9652
g2
(g6
S'\xc3\x03\x00\x00'
p9653
tp9654
Rp9655
sVmagnet
p9656
g2
(g6
S'\x8b\x06\x00\x00'
p9657
tp9658
Rp9659
sVrobert
p9660
g2
(g6
S'\xf5\x08\x00\x00'
p9661
tp9662
Rp9663
sVsafety
p9664
g2
(g6
S'\x19\t\x00\x00'
p9665
tp9666
Rp9667
sVhill
p9668
g2
(g6
S'\x1b\x05\x00\x00'
p9669
tp9670
Rp9671
sVissue
p9672
g2
(g6
S'\xc1\x05\x00\x00'
p9673
tp9674
Rp9675
sVaviators
p9676
g2
(g6
S'\x13\x01\x00\x00'
p9677
tp9678
Rp9679
sViot
p9680
g2
(g6
S'\xb7\x05\x00\x00'
p9681
tp9682
Rp9683
sVreason
p9684
g2
(g6
S'\x97\x08\x00\x00'
p9685
tp9686
Rp9687
sVcookie
p9688
g2
(g6
S'w\x02\x00\x00'
p9689
tp9690
Rp9691
sVask
p9692
g2
(g6
S'\xf3\x00\x00\x00'
p9693
tp9694
Rp9695
sVrandall
p9696
g2
(g6
S'\x84\x08\x00\x00'
p9697
tp9698
Rp9699
sVteach
p9700
g2
(g6
S'}\n\x00\x00'
p9701
tp9702
Rp9703
sVgenerate
p9704
g2
(g6
S'\x94\x04\x00\x00'
p9705
tp9706
Rp9707
sVrevolutionary
p9708
g2
(g6
S'\xe0\x08\x00\x00'
p9709
tp9710
Rp9711
sVlaunch
p9712
g2
(g6
S'.\x06\x00\x00'
p9713
tp9714
Rp9715
sVjust
p9716
g2
(g6
S'\xf2\x05\x00\x00'
p9717
tp9718
Rp9719
sVcaption
p9720
g2
(g6
S'\xb2\x01\x00\x00'
p9721
tp9722
Rp9723
sVamerican
p9724
g2
(g6
S'\xbe\x00\x00\x00'
p9725
tp9726
Rp9727
sVpartnerships
p9728
g2
(g6
S'\xa2\x07\x00\x00'
p9729
tp9730
Rp9731
sVfeel
p9732
g2
(g6
S'\x1a\x04\x00\x00'
p9733
tp9734
Rp9735
sVfeet
p9736
g2
(g6
S'\x1c\x04\x00\x00'
p9737
tp9738
Rp9739
sVtalked
p9740
g2
(g6
S's\n\x00\x00'
p9741
tp9742
Rp9743
sVmiss
p9744
g2
(g6
S'\xec\x06\x00\x00'
p9745
tp9746
Rp9747
sVstory
p9748
g2
(g6
S'"\n\x00\x00'
p9749
tp9750
Rp9751
sVleading
p9752
g2
(g6
S'8\x06\x00\x00'
p9753
tp9754
Rp9755
sVinterviews
p9756
g2
(g6
S'\xac\x05\x00\x00'
p9757
tp9758
Rp9759
sVstrategy
p9760
g2
(g6
S'&\n\x00\x00'
p9761
tp9762
Rp9763
sVstation
p9764
g2
(g6
S'\x08\n\x00\x00'
p9765
tp9766
Rp9767
sVidentity
p9768
g2
(g6
S'^\x05\x00\x00'
p9769
tp9770
Rp9771
sVchallenge
p9772
g2
(g6
S'\xe0\x01\x00\x00'
p9773
tp9774
Rp9775
sVstore
p9776
g2
(g6
S'\x1f\n\x00\x00'
p9777
tp9778
Rp9779
sVgps
p9780
g2
(g6
S'\xbb\x04\x00\x00'
p9781
tp9782
Rp9783
sVhotel
p9784
g2
(g6
S'=\x05\x00\x00'
p9785
tp9786
Rp9787
sVoverdrive
p9788
g2
(g6
S'\x84\x07\x00\x00'
p9789
tp9790
Rp9791
sVking
p9792
g2
(g6
S'\x0b\x06\x00\x00'
p9793
tp9794
Rp9795
sVfinancing
p9796
g2
(g6
S'6\x04\x00\x00'
p9797
tp9798
Rp9799
sVaims
p9800
g2
(g6
S'\xac\x00\x00\x00'
p9801
tp9802
Rp9803
sVrisks
p9804
g2
(g6
S'\xef\x08\x00\x00'
p9805
tp9806
Rp9807
sVdang
p9808
g2
(g6
S'\xc7\x02\x00\x00'
p9809
tp9810
Rp9811
sVweapon
p9812
g2
(g6
S'\x84\x0b\x00\x00'
p9813
tp9814
Rp9815
sVmickey
p9816
g2
(g6
S'\xd5\x06\x00\x00'
p9817
tp9818
Rp9819
sVneeds
p9820
g2
(g6
S'/\x07\x00\x00'
p9821
tp9822
Rp9823
sVjuice
p9824
g2
(g6
S'\xee\x05\x00\x00'
p9825
tp9826
Rp9827
sValike
p9828
g2
(g6
S'\xb6\x00\x00\x00'
p9829
tp9830
Rp9831
sVphilly
p9832
g2
(g6
S'\xd1\x07\x00\x00'
p9833
tp9834
Rp9835
sVfinding
p9836
g2
(g6
S'7\x04\x00\x00'
p9837
tp9838
Rp9839
sVaired
p9840
g2
(g6
S'\xae\x00\x00\x00'
p9841
tp9842
Rp9843
sVelectric
p9844
g2
(g6
S'x\x03\x00\x00'
p9845
tp9846
Rp9847
sVexec
p9848
g2
(g6
S'\xce\x03\x00\x00'
p9849
tp9850
Rp9851
sVquote
p9852
g2
(g6
S'{\x08\x00\x00'
p9853
tp9854
Rp9855
sVinconvenience
p9856
g2
(g6
S'x\x05\x00\x00'
p9857
tp9858
Rp9859
sVreach
p9860
g2
(g6
S'\x8c\x08\x00\x00'
p9861
tp9862
Rp9863
sVmacy
p9864
g2
(g6
S'\x87\x06\x00\x00'
p9865
tp9866
Rp9867
sVsponsored
p9868
g2
(g6
S'\xe4\t\x00\x00'
p9869
tp9870
Rp9871
sVgilt
p9872
g2
(g6
S'\xa0\x04\x00\x00'
p9873
tp9874
Rp9875
sVseasons
p9876
g2
(g6
S'G\t\x00\x00'
p9877
tp9878
Rp9879
sVapproved
p9880
g2
(g6
S'\xe6\x00\x00\x00'
p9881
tp9882
Rp9883
sVcreators
p9884
g2
(g6
S'\x9b\x02\x00\x00'
p9885
tp9886
Rp9887
sVmobile
p9888
g2
(g6
S'\xf3\x06\x00\x00'
p9889
tp9890
Rp9891
sV10am
p9892
g2
(g6
S'\x07\x00\x00\x00'
p9893
tp9894
Rp9895
sVclean
p9896
g2
(g6
S'\x19\x02\x00\x00'
p9897
tp9898
Rp9899
sVlatest
p9900
g2
(g6
S'(\x06\x00\x00'
p9901
tp9902
Rp9903
sVhyper
p9904
g2
(g6
S'S\x05\x00\x00'
p9905
tp9906
Rp9907
sVv10
p9908
g2
(g6
S'9\x0b\x00\x00'
p9909
tp9910
Rp9911
sVstores
p9912
g2
(g6
S' \n\x00\x00'
p9913
tp9914
Rp9915
sValbums
p9916
g2
(g6
S'\xb3\x00\x00\x00'
p9917
tp9918
Rp9919
sVbelieve
p9920
g2
(g6
S'6\x01\x00\x00'
p9921
tp9922
Rp9923
sVbff
p9924
g2
(g6
S'=\x01\x00\x00'
p9925
tp9926
Rp9927
sVnorthern
p9928
g2
(g6
S'J\x07\x00\x00'
p9929
tp9930
Rp9931
sVjustice
p9932
g2
(g6
S'\xf3\x05\x00\x00'
p9933
tp9934
Rp9935
sVpretty
p9936
g2
(g6
S'0\x08\x00\x00'
p9937
tp9938
Rp9939
sVcircle
p9940
g2
(g6
S'\r\x02\x00\x00'
p9941
tp9942
Rp9943
sVreap
p9944
g2
(g6
S'\x96\x08\x00\x00'
p9945
tp9946
Rp9947
sVkind
p9948
g2
(g6
S'\n\x06\x00\x00'
p9949
tp9950
Rp9951
sVblank
p9952
g2
(g6
S'N\x01\x00\x00'
p9953
tp9954
Rp9955
sVfamous
p9956
g2
(g6
S'\xfd\x03\x00\x00'
p9957
tp9958
Rp9959
sVcapsule
p9960
g2
(g6
S'\xb1\x01\x00\x00'
p9961
tp9962
Rp9963
sVfastest
p9964
g2
(g6
S'\x07\x04\x00\x00'
p9965
tp9966
Rp9967
sVcompeting
p9968
g2
(g6
S'N\x02\x00\x00'
p9969
tp9970
Rp9971
sVemails
p9972
g2
(g6
S'}\x03\x00\x00'
p9973
tp9974
Rp9975
sVboost
p9976
g2
(g6
S'`\x01\x00\x00'
p9977
tp9978
Rp9979
sVfeed
p9980
g2
(g6
S'\x19\x04\x00\x00'
p9981
tp9982
Rp9983
sVscanning
p9984
g2
(g6
S'4\t\x00\x00'
p9985
tp9986
Rp9987
sVart
p9988
g2
(g6
S'\xee\x00\x00\x00'
p9989
tp9990
Rp9991
sVthrowing
p9992
g2
(g6
S'\xad\n\x00\x00'
p9993
tp9994
Rp9995
sVintelligence
p9996
g2
(g6
S'\xa4\x05\x00\x00'
p9997
tp9998
Rp9999
sVarrives
p10000
g2
(g6
S'\xec\x00\x00\x00'
p10001
tp10002
Rp10003
sVkylie
p10004
g2
(g6
S'\x13\x06\x00\x00'
p10005
tp10006
Rp10007
sVculture
p10008
g2
(g6
S'\xae\x02\x00\x00'
p10009
tp10010
Rp10011
sVclose
p10012
g2
(g6
S' \x02\x00\x00'
p10013
tp10014
Rp10015
sVscandinavian
p10016
g2
(g6
S'3\t\x00\x00'
p10017
tp10018
Rp10019
sVthreats
p10020
g2
(g6
S'\xaa\n\x00\x00'
p10021
tp10022
Rp10023
sVwon
p10024
g2
(g6
S'\xb7\x0b\x00\x00'
p10025
tp10026
Rp10027
sVuse
p10028
g2
(g6
S'.\x0b\x00\x00'
p10029
tp10030
Rp10031
sVprobably
p10032
g2
(g6
S'?\x08\x00\x00'
p10033
tp10034
Rp10035
sVconditions
p10036
g2
(g6
S'Y\x02\x00\x00'
p10037
tp10038
Rp10039
sVlatin
p10040
g2
(g6
S')\x06\x00\x00'
p10041
tp10042
Rp10043
sVrecently
p10044
g2
(g6
S'\x9d\x08\x00\x00'
p10045
tp10046
Rp10047
sVcreating
p10048
g2
(g6
S'\x98\x02\x00\x00'
p10049
tp10050
Rp10051
sVattention
p10052
g2
(g6
S'\x01\x01\x00\x00'
p10053
tp10054
Rp10055
sVscalability
p10056
g2
(g6
S'.\t\x00\x00'
p10057
tp10058
Rp10059
sVranked
p10060
g2
(g6
S'\x85\x08\x00\x00'
p10061
tp10062
Rp10063
sVmentoring
p10064
g2
(g6
S'\xc6\x06\x00\x00'
p10065
tp10066
Rp10067
sVresponse
p10068
g2
(g6
S'\xd0\x08\x00\x00'
p10069
tp10070
Rp10071
sVleague
p10072
g2
(g6
S':\x06\x00\x00'
p10073
tp10074
Rp10075
sVmega
p10076
g2
(g6
S'\xbf\x06\x00\x00'
p10077
tp10078
Rp10079
sVsecrets
p10080
g2
(g6
S'M\t\x00\x00'
p10081
tp10082
Rp10083
sVkeaton
p10084
g2
(g6
S'\xfa\x05\x00\x00'
p10085
tp10086
Rp10087
sVcurates
p10088
g2
(g6
S'\xb0\x02\x00\x00'
p10089
tp10090
Rp10091
sV8am
p10092
g2
(g6
S'e\x00\x00\x00'
p10093
tp10094
Rp10095
sVcontext
p10096
g2
(g6
S'l\x02\x00\x00'
p10097
tp10098
Rp10099
sVbuzz
p10100
g2
(g6
S'\x9d\x01\x00\x00'
p10101
tp10102
Rp10103
sVreply
p10104
g2
(g6
S'\xc3\x08\x00\x00'
p10105
tp10106
Rp10107
sVmillions
p10108
g2
(g6
S'\xe3\x06\x00\x00'
p10109
tp10110
Rp10111
sVhackers
p10112
g2
(g6
S'\xd9\x04\x00\x00'
p10113
tp10114
Rp10115
sVbattery
p10116
g2
(g6
S'/\x01\x00\x00'
p10117
tp10118
Rp10119
sVsweet
p10120
g2
(g6
S'`\n\x00\x00'
p10121
tp10122
Rp10123
sVembarrassing
p10124
g2
(g6
S'~\x03\x00\x00'
p10125
tp10126
Rp10127
sVsweep
p10128
g2
(g6
S'_\n\x00\x00'
p10129
tp10130
Rp10131
sVlikes
p10132
g2
(g6
S'V\x06\x00\x00'
p10133
tp10134
Rp10135
sVdeploys
p10136
g2
(g6
S'\xf9\x02\x00\x00'
p10137
tp10138
Rp10139
sVprimetime
p10140
g2
(g6
S'6\x08\x00\x00'
p10141
tp10142
Rp10143
sVenhancements
p10144
g2
(g6
S'\x9a\x03\x00\x00'
p10145
tp10146
Rp10147
sVpt
p10148
g2
(g6
S'`\x08\x00\x00'
p10149
tp10150
Rp10151
sVduo
p10152
g2
(g6
S'U\x03\x00\x00'
p10153
tp10154
Rp10155
sVpolitical
p10156
g2
(g6
S'\x03\x08\x00\x00'
p10157
tp10158
Rp10159
sVpc
p10160
g2
(g6
S'\xb2\x07\x00\x00'
p10161
tp10162
Rp10163
sVdamn
p10164
g2
(g6
S'\xc5\x02\x00\x00'
p10165
tp10166
Rp10167
sVdame
p10168
g2
(g6
S'\xc4\x02\x00\x00'
p10169
tp10170
Rp10171
sVsanders
p10172
g2
(g6
S'!\t\x00\x00'
p10173
tp10174
Rp10175
sVflight
p10176
g2
(g6
S'E\x04\x00\x00'
p10177
tp10178
Rp10179
sV73
p10180
g2
(g6
S'^\x00\x00\x00'
p10181
tp10182
Rp10183
sVprecision
p10184
g2
(g6
S'\x1d\x08\x00\x00'
p10185
tp10186
Rp10187
sVdemand
p10188
g2
(g6
S'\xf2\x02\x00\x00'
p10189
tp10190
Rp10191
sVrocking
p10192
g2
(g6
S'\xfb\x08\x00\x00'
p10193
tp10194
Rp10195
sVlook
p10196
g2
(g6
S'o\x06\x00\x00'
p10197
tp10198
Rp10199
sVsmart
p10200
g2
(g6
S'\xb0\t\x00\x00'
p10201
tp10202
Rp10203
sVguide
p10204
g2
(g6
S'\xd3\x04\x00\x00'
p10205
tp10206
Rp10207
sVpack
p10208
g2
(g6
S'\x8b\x07\x00\x00'
p10209
tp10210
Rp10211
sVdemos
p10212
g2
(g6
S'\xf5\x02\x00\x00'
p10213
tp10214
Rp10215
sVskype
p10216
g2
(g6
S'\xaa\t\x00\x00'
p10217
tp10218
Rp10219
sVready
p10220
g2
(g6
S'\x92\x08\x00\x00'
p10221
tp10222
Rp10223
sVgrant
p10224
g2
(g6
S'\xbf\x04\x00\x00'
p10225
tp10226
Rp10227
sVgrand
p10228
g2
(g6
S'\xbe\x04\x00\x00'
p10229
tp10230
Rp10231
sVhigher
p10232
g2
(g6
S'\x17\x05\x00\x00'
p10233
tp10234
Rp10235
sVbonus
p10236
g2
(g6
S']\x01\x00\x00'
p10237
tp10238
Rp10239
sVholidays
p10240
g2
(g6
S'+\x05\x00\x00'
p10241
tp10242
Rp10243
sV000
p10244
g2
(g6
S'\x00\x00\x00\x00'
p10245
tp10246
Rp10247
sVuses
p10248
g2
(g6
S'3\x0b\x00\x00'
p10249
tp10250
Rp10251
sVuser
p10252
g2
(g6
S'0\x0b\x00\x00'
p10253
tp10254
Rp10255
sVlower
p10256
g2
(g6
S'~\x06\x00\x00'
p10257
tp10258
Rp10259
sVanalysis
p10260
g2
(g6
S'\xc2\x00\x00\x00'
p10261
tp10262
Rp10263
sVcheer
p10264
g2
(g6
S'\xf3\x01\x00\x00'
p10265
tp10266
Rp10267
sVedge
p10268
g2
(g6
S'j\x03\x00\x00'
p10269
tp10270
Rp10271
sVcorner
p10272
g2
(g6
S'~\x02\x00\x00'
p10273
tp10274
Rp10275
sVambassador
p10276
g2
(g6
S'\xbc\x00\x00\x00'
p10277
tp10278
Rp10279
sVdeployment
p10280
g2
(g6
S'\xf8\x02\x00\x00'
p10281
tp10282
Rp10283
sViqbal
p10284
g2
(g6
S'\xbd\x05\x00\x00'
p10285
tp10286
Rp10287
sVstartups
p10288
g2
(g6
S'\x05\n\x00\x00'
p10289
tp10290
Rp10291
sVadrienne
p10292
g2
(g6
S'\x9d\x00\x00\x00'
p10293
tp10294
Rp10295
sVworkers
p10296
g2
(g6
S'\xbe\x0b\x00\x00'
p10297
tp10298
Rp10299
sVcustomers
p10300
g2
(g6
S'\xbd\x02\x00\x00'
p10301
tp10302
Rp10303
sVmarch
p10304
g2
(g6
S'\x9c\x06\x00\x00'
p10305
tp10306
Rp10307
sVfinalists
p10308
g2
(g6
S'1\x04\x00\x00'
p10309
tp10310
Rp10311
sVshowing
p10312
g2
(g6
S'\x8a\t\x00\x00'
p10313
tp10314
Rp10315
sVadvocate
p10316
g2
(g6
S'\xa2\x00\x00\x00'
p10317
tp10318
Rp10319
sVunlimited
p10320
g2
(g6
S'\x1c\x0b\x00\x00'
p10321
tp10322
Rp10323
sVlovin
p10324
g2
(g6
S'{\x06\x00\x00'
p10325
tp10326
Rp10327
sVgame
p10328
g2
(g6
S'\x7f\x04\x00\x00'
p10329
tp10330
Rp10331
sV76c
p10332
g2
(g6
S'`\x00\x00\x00'
p10333
tp10334
Rp10335
sVawaken
p10336
g2
(g6
S'\x16\x01\x00\x00'
p10337
tp10338
Rp10339
sVshaped
p10340
g2
(g6
S'o\t\x00\x00'
p10341
tp10342
Rp10343
sVshapes
p10344
g2
(g6
S'p\t\x00\x00'
p10345
tp10346
Rp10347
sVpopular
p10348
g2
(g6
S'\n\x08\x00\x00'
p10349
tp10350
Rp10351
sVsketch
p10352
g2
(g6
S'\xa4\t\x00\x00'
p10353
tp10354
Rp10355
sVparade
p10356
g2
(g6
S'\x96\x07\x00\x00'
p10357
tp10358
Rp10359
sVstreaming
p10360
g2
(g6
S')\n\x00\x00'
p10361
tp10362
Rp10363
sVtrends
p10364
g2
(g6
S'\xea\n\x00\x00'
p10365
tp10366
Rp10367
sVeconomic
p10368
g2
(g6
S'g\x03\x00\x00'
p10369
tp10370
Rp10371
sVpreparing
p10372
g2
(g6
S'&\x08\x00\x00'
p10373
tp10374
Rp10375
sVannounces
p10376
g2
(g6
S'\xd2\x00\x00\x00'
p10377
tp10378
Rp10379
sVcrisis
p10380
g2
(g6
S'\x9e\x02\x00\x00'
p10381
tp10382
Rp10383
sVworkflow
p10384
g2
(g6
S'\xbf\x0b\x00\x00'
p10385
tp10386
Rp10387
sVinnovation
p10388
g2
(g6
S'\x8f\x05\x00\x00'
p10389
tp10390
Rp10391
sVrun
p10392
g2
(g6
S'\x11\t\x00\x00'
p10393
tp10394
Rp10395
sVstep
p10396
g2
(g6
S'\x12\n\x00\x00'
p10397
tp10398
Rp10399
sVshine
p10400
g2
(g6
S'{\t\x00\x00'
p10401
tp10402
Rp10403
sVexperiences
p10404
g2
(g6
S'\xdb\x03\x00\x00'
p10405
tp10406
Rp10407
sVclassics
p10408
g2
(g6
S'\x17\x02\x00\x00'
p10409
tp10410
Rp10411
sVshiny
p10412
g2
(g6
S'}\t\x00\x00'
p10413
tp10414
Rp10415
sVximon
p10416
g2
(g6
S'\xd0\x0b\x00\x00'
p10417
tp10418
Rp10419
sVstitched
p10420
g2
(g6
S'\x18\n\x00\x00'
p10421
tp10422
Rp10423
sVwithtoday
p10424
g2
(g6
S'\xb0\x0b\x00\x00'
p10425
tp10426
Rp10427
sV70
p10428
g2
(g6
S'Z\x00\x00\x00'
p10429
tp10430
Rp10431
sVsports
p10432
g2
(g6
S'\xe6\t\x00\x00'
p10433
tp10434
Rp10435
sViycmihhttg
p10436
g2
(g6
S'\xc6\x05\x00\x00'
p10437
tp10438
Rp10439
sVquestion
p10440
g2
(g6
S'v\x08\x00\x00'
p10441
tp10442
Rp10443
sVlong
p10444
g2
(g6
S'n\x06\x00\x00'
p10445
tp10446
Rp10447
sVstatistica
p10448
g2
(g6
S'\n\n\x00\x00'
p10449
tp10450
Rp10451
sVheritage
p10452
g2
(g6
S'\n\x05\x00\x00'
p10453
tp10454
Rp10455
sVxps
p10456
g2
(g6
S'\xd2\x0b\x00\x00'
p10457
tp10458
Rp10459
sVmountains
p10460
g2
(g6
S'\r\x07\x00\x00'
p10461
tp10462
Rp10463
sVglamour
p10464
g2
(g6
S'\xa9\x04\x00\x00'
p10465
tp10466
Rp10467
sVreed
p10468
g2
(g6
S'\xac\x08\x00\x00'
p10469
tp10470
Rp10471
sVdelta
p10472
g2
(g6
S'\xf1\x02\x00\x00'
p10473
tp10474
Rp10475
sVraising
p10476
g2
(g6
S'\x83\x08\x00\x00'
p10477
tp10478
Rp10479
sVinfo
p10480
g2
(g6
S'\x87\x05\x00\x00'
p10481
tp10482
Rp10483
sVhair
p10484
g2
(g6
S'\xda\x04\x00\x00'
p10485
tp10486
Rp10487
sVfries
p10488
g2
(g6
S'n\x04\x00\x00'
p10489
tp10490
Rp10491
sVwindows
p10492
g2
(g6
S'\xa4\x0b\x00\x00'
p10493
tp10494
Rp10495
sVgrowth
p10496
g2
(g6
S'\xcd\x04\x00\x00'
p10497
tp10498
Rp10499
sVfdx
p10500
g2
(g6
S'\x0f\x04\x00\x00'
p10501
tp10502
Rp10503
sVmindful
p10504
g2
(g6
S'\xe5\x06\x00\x00'
p10505
tp10506
Rp10507
sVgecko
p10508
g2
(g6
S'\x90\x04\x00\x00'
p10509
tp10510
Rp10511
sVrainbow
p10512
g2
(g6
S'\x81\x08\x00\x00'
p10513
tp10514
Rp10515
sVpeace
p10516
g2
(g6
S'\xb5\x07\x00\x00'
p10517
tp10518
Rp10519
sVfears
p10520
g2
(g6
S'\x11\x04\x00\x00'
p10521
tp10522
Rp10523
sVnat
p10524
g2
(g6
S'!\x07\x00\x00'
p10525
tp10526
Rp10527
sVincome
p10528
g2
(g6
S'w\x05\x00\x00'
p10529
tp10530
Rp10531
sVsmiles
p10532
g2
(g6
S'\xb5\t\x00\x00'
p10533
tp10534
Rp10535
sVecosystem
p10536
g2
(g6
S'i\x03\x00\x00'
p10537
tp10538
Rp10539
sVusers
p10540
g2
(g6
S'2\x0b\x00\x00'
p10541
tp10542
Rp10543
sVhelping
p10544
g2
(g6
S'\x05\x05\x00\x00'
p10545
tp10546
Rp10547
sVmeaning
p10548
g2
(g6
S'\xb6\x06\x00\x00'
p10549
tp10550
Rp10551
sVallowing
p10552
g2
(g6
S'\xb8\x00\x00\x00'
p10553
tp10554
Rp10555
sVindependently
p10556
g2
(g6
S'\x7f\x05\x00\x00'
p10557
tp10558
Rp10559
sVvice
p10560
g2
(g6
S'K\x0b\x00\x00'
p10561
tp10562
Rp10563
sVrequired
p10564
g2
(g6
S'\xc8\x08\x00\x00'
p10565
tp10566
Rp10567
sVyoutube
p10568
g2
(g6
S'\xe0\x0b\x00\x00'
p10569
tp10570
Rp10571
sVnasa
p10572
g2
(g6
S'\x1f\x07\x00\x00'
p10573
tp10574
Rp10575
sVchelsea28
p10576
g2
(g6
S'\xf6\x01\x00\x00'
p10577
tp10578
Rp10579
sVhoverboards
p10580
g2
(g6
S'E\x05\x00\x00'
p10581
tp10582
Rp10583
sVdvr
p10584
g2
(g6
S'X\x03\x00\x00'
p10585
tp10586
Rp10587
sVmerced
p10588
g2
(g6
S'\xca\x06\x00\x00'
p10589
tp10590
Rp10591
sVsteve
p10592
g2
(g6
S'\x15\n\x00\x00'
p10593
tp10594
Rp10595
sVfarms
p10596
g2
(g6
S'\x03\x04\x00\x00'
p10597
tp10598
Rp10599
sVinfographic
p10600
g2
(g6
S'\x88\x05\x00\x00'
p10601
tp10602
Rp10603
sVgang
p10604
g2
(g6
S'\x82\x04\x00\x00'
p10605
tp10606
Rp10607
sVga
p10608
g2
(g6
S'z\x04\x00\x00'
p10609
tp10610
Rp10611
sVgm
p10612
g2
(g6
S'\xae\x04\x00\x00'
p10613
tp10614
Rp10615
sVissues
p10616
g2
(g6
S'\xc2\x05\x00\x00'
p10617
tp10618
Rp10619
sVsuite
p10620
g2
(g6
S'A\n\x00\x00'
p10621
tp10622
Rp10623
sVinclude
p10624
g2
(g6
S's\x05\x00\x00'
p10625
tp10626
Rp10627
sVfriendly
p10628
g2
(g6
S'k\x04\x00\x00'
p10629
tp10630
Rp10631
sVwave
p10632
g2
(g6
S'\x80\x0b\x00\x00'
p10633
tp10634
Rp10635
sVfacebook
p10636
g2
(g6
S'\xf1\x03\x00\x00'
p10637
tp10638
Rp10639
sVtelling
p10640
g2
(g6
S'\x8f\n\x00\x00'
p10641
tp10642
Rp10643
sVgender
p10644
g2
(g6
S'\x93\x04\x00\x00'
p10645
tp10646
Rp10647
sVmichael
p10648
g2
(g6
S'\xd4\x06\x00\x00'
p10649
tp10650
Rp10651
sVqueen
p10652
g2
(g6
S't\x08\x00\x00'
p10653
tp10654
Rp10655
sVdebuts
p10656
g2
(g6
S'\xde\x02\x00\x00'
p10657
tp10658
Rp10659
sVproof
p10660
g2
(g6
S'Q\x08\x00\x00'
p10661
tp10662
Rp10663
sVconcluded
p10664
g2
(g6
S'X\x02\x00\x00'
p10665
tp10666
Rp10667
sVsmaller
p10668
g2
(g6
S'\xaf\t\x00\x00'
p10669
tp10670
Rp10671
sVbooty
p10672
g2
(g6
S'c\x01\x00\x00'
p10673
tp10674
Rp10675
sVbooth
p10676
g2
(g6
S'b\x01\x00\x00'
p10677
tp10678
Rp10679
sVdownload
p10680
g2
(g6
S'C\x03\x00\x00'
p10681
tp10682
Rp10683
sVhonors
p10684
g2
(g6
S'3\x05\x00\x00'
p10685
tp10686
Rp10687
sVc9010
p10688
g2
(g6
S'\x9e\x01\x00\x00'
p10689
tp10690
Rp10691
sVsangria
p10692
g2
(g6
S'"\t\x00\x00'
p10693
tp10694
Rp10695
sVnetworks
p10696
g2
(g6
S'6\x07\x00\x00'
p10697
tp10698
Rp10699
sVwaiting
p10700
g2
(g6
S'p\x0b\x00\x00'
p10701
tp10702
Rp10703
sVstance
p10704
g2
(g6
S'\xf9\t\x00\x00'
p10705
tp10706
Rp10707
sVcommercial
p10708
g2
(g6
S'C\x02\x00\x00'
p10709
tp10710
Rp10711
sVgrowing
p10712
g2
(g6
S'\xcb\x04\x00\x00'
p10713
tp10714
Rp10715
sVexplore
p10716
g2
(g6
S'\xe2\x03\x00\x00'
p10717
tp10718
Rp10719
sVawakens
p10720
g2
(g6
S'\x17\x01\x00\x00'
p10721
tp10722
Rp10723
sVfocused
p10724
g2
(g6
S'J\x04\x00\x00'
p10725
tp10726
Rp10727
sVincredible
p10728
g2
(g6
S'|\x05\x00\x00'
p10729
tp10730
Rp10731
sVsecuring
p10732
g2
(g6
S'P\t\x00\x00'
p10733
tp10734
Rp10735
sVsurvivor
p10736
g2
(g6
S'Z\n\x00\x00'
p10737
tp10738
Rp10739
sV99th
p10740
g2
(g6
S'm\x00\x00\x00'
p10741
tp10742
Rp10743
sVproducts
p10744
g2
(g6
S'F\x08\x00\x00'
p10745
tp10746
Rp10747
sVolivier
p10748
g2
(g6
S'h\x07\x00\x00'
p10749
tp10750
Rp10751
sVaddresses
p10752
g2
(g6
S'\x99\x00\x00\x00'
p10753
tp10754
Rp10755
sVclaim
p10756
g2
(g6
S'\x13\x02\x00\x00'
p10757
tp10758
Rp10759
sVwin
p10760
g2
(g6
S'\xa2\x0b\x00\x00'
p10761
tp10762
Rp10763
sVapp
p10764
g2
(g6
S'\xdb\x00\x00\x00'
p10765
tp10766
Rp10767
sVapj
p10768
g2
(g6
S'\xda\x00\x00\x00'
p10769
tp10770
Rp10771
sVsinging
p10772
g2
(g6
S'\x9d\t\x00\x00'
p10773
tp10774
Rp10775
sVcloud
p10776
g2
(g6
S'$\x02\x00\x00'
p10777
tp10778
Rp10779
sVannounced
p10780
g2
(g6
S'\xd0\x00\x00\x00'
p10781
tp10782
Rp10783
sVfed
p10784
g2
(g6
S'\x17\x04\x00\x00'
p10785
tp10786
Rp10787
sVcamera
p10788
g2
(g6
S'\xa8\x01\x00\x00'
p10789
tp10790
Rp10791
sVscariest
p10792
g2
(g6
S'5\t\x00\x00'
p10793
tp10794
Rp10795
sVvehicle
p10796
g2
(g6
S'A\x0b\x00\x00'
p10797
tp10798
Rp10799
sVreflects
p10800
g2
(g6
S'\xad\x08\x00\x00'
p10801
tp10802
Rp10803
sVsort
p10804
g2
(g6
S'\xcc\t\x00\x00'
p10805
tp10806
Rp10807
sVstarted
p10808
g2
(g6
S'\x01\n\x00\x00'
p10809
tp10810
Rp10811
sVtennis
p10812
g2
(g6
S'\x91\n\x00\x00'
p10813
tp10814
Rp10815
sVjustin
p10816
g2
(g6
S'\xf4\x05\x00\x00'
p10817
tp10818
Rp10819
sVannouncing
p10820
g2
(g6
S'\xd3\x00\x00\x00'
p10821
tp10822
Rp10823
sV7pm
p10824
g2
(g6
S'a\x00\x00\x00'
p10825
tp10826
Rp10827
sVride
p10828
g2
(g6
S'\xe6\x08\x00\x00'
p10829
tp10830
Rp10831
sVintvu
p10832
g2
(g6
S'\xb1\x05\x00\x00'
p10833
tp10834
Rp10835
sVmeet
p10836
g2
(g6
S'\xbc\x06\x00\x00'
p10837
tp10838
Rp10839
sVdropped
p10840
g2
(g6
S'Q\x03\x00\x00'
p10841
tp10842
Rp10843
sVcontrol
p10844
g2
(g6
S'r\x02\x00\x00'
p10845
tp10846
Rp10847
sVwishes
p10848
g2
(g6
S'\xac\x0b\x00\x00'
p10849
tp10850
Rp10851
sVproviders
p10852
g2
(g6
S'[\x08\x00\x00'
p10853
tp10854
Rp10855
sVhalloween
p10856
g2
(g6
S'\xdd\x04\x00\x00'
p10857
tp10858
Rp10859
sVtag
p10860
g2
(g6
S'k\n\x00\x00'
p10861
tp10862
Rp10863
sVshipping
p10864
g2
(g6
S'~\t\x00\x00'
p10865
tp10866
Rp10867
sVtab
p10868
g2
(g6
S'g\n\x00\x00'
p10869
tp10870
Rp10871
sVchic
p10872
g2
(g6
S'\xf7\x01\x00\x00'
p10873
tp10874
Rp10875
sVhit
p10876
g2
(g6
S'"\x05\x00\x00'
p10877
tp10878
Rp10879
sVbrian
p10880
g2
(g6
S'w\x01\x00\x00'
p10881
tp10882
Rp10883
sVassistive
p10884
g2
(g6
S'\xf9\x00\x00\x00'
p10885
tp10886
Rp10887
sVinstead
p10888
g2
(g6
S'\xa0\x05\x00\x00'
p10889
tp10890
Rp10891
sVattend
p10892
g2
(g6
S'\xff\x00\x00\x00'
p10893
tp10894
Rp10895
sVfarm
p10896
g2
(g6
S'\x02\x04\x00\x00'
p10897
tp10898
Rp10899
sVlight
p10900
g2
(g6
S'S\x06\x00\x00'
p10901
tp10902
Rp10903
sVibiza
p10904
g2
(g6
S'T\x05\x00\x00'
p10905
tp10906
Rp10907
sVscoop
p10908
g2
(g6
S'<\t\x00\x00'
p10909
tp10910
Rp10911
sVagenda
p10912
g2
(g6
S'\xa5\x00\x00\x00'
p10913
tp10914
Rp10915
sVhealthcare
p10916
g2
(g6
S'\xf7\x04\x00\x00'
p10917
tp10918
Rp10919
sVnecklace
p10920
g2
(g6
S',\x07\x00\x00'
p10921
tp10922
Rp10923
sVbreast
p10924
g2
(g6
S'u\x01\x00\x00'
p10925
tp10926
Rp10927
sVicymimore
p10928
g2
(g6
S'Z\x05\x00\x00'
p10929
tp10930
Rp10931
sVincluding
p10932
g2
(g6
S't\x05\x00\x00'
p10933
tp10934
Rp10935
sVboosts
p10936
g2
(g6
S'a\x01\x00\x00'
p10937
tp10938
Rp10939
sVcarols
p10940
g2
(g6
S'\xc2\x01\x00\x00'
p10941
tp10942
Rp10943
sVtraveling
p10944
g2
(g6
S'\xe4\n\x00\x00'
p10945
tp10946
Rp10947
sVyesterdays
p10948
g2
(g6
S'\xda\x0b\x00\x00'
p10949
tp10950
Rp10951
sVcovered
p10952
g2
(g6
S'\x8e\x02\x00\x00'
p10953
tp10954
Rp10955
sVholiday
p10956
g2
(g6
S'*\x05\x00\x00'
p10957
tp10958
Rp10959
sVauto
p10960
g2
(g6
S'\n\x01\x00\x00'
p10961
tp10962
Rp10963
sVhands
p10964
g2
(g6
S'\xe2\x04\x00\x00'
p10965
tp10966
Rp10967
sVconsecutive
p10968
g2
(g6
S'f\x02\x00\x00'
p10969
tp10970
Rp10971
sVworlds
p10972
g2
(g6
S'\xc7\x0b\x00\x00'
p10973
tp10974
Rp10975
sVnfc
p10976
g2
(g6
S';\x07\x00\x00'
p10977
tp10978
Rp10979
sVuniversity
p10980
g2
(g6
S'\x1b\x0b\x00\x00'
p10981
tp10982
Rp10983
sVnfl
p10984
g2
(g6
S'<\x07\x00\x00'
p10985
tp10986
Rp10987
sVfeast
p10988
g2
(g6
S'\x12\x04\x00\x00'
p10989
tp10990
Rp10991
sVguard
p10992
g2
(g6
S'\xce\x04\x00\x00'
p10993
tp10994
Rp10995
sVcrossing
p10996
g2
(g6
S'\xa1\x02\x00\x00'
p10997
tp10998
Rp10999
sVseniors
p11000
g2
(g6
S'^\t\x00\x00'
p11001
tp11002
Rp11003
sVfemale
p11004
g2
(g6
S'\x1e\x04\x00\x00'
p11005
tp11006
Rp11007
sVglobe
p11008
g2
(g6
S'\xad\x04\x00\x00'
p11009
tp11010
Rp11011
sV700
p11012
g2
(g6
S'[\x00\x00\x00'
p11013
tp11014
Rp11015
sVstaying
p11016
g2
(g6
S'\x0e\n\x00\x00'
p11017
tp11018
Rp11019
sVsupermodel
p11020
g2
(g6
S'I\n\x00\x00'
p11021
tp11022
Rp11023
sV80
p11024
g2
(g6
S'b\x00\x00\x00'
p11025
tp11026
Rp11027
sV87
p11028
g2
(g6
S'c\x00\x00\x00'
p11029
tp11030
Rp11031
sVspecial
p11032
g2
(g6
S'\xd9\t\x00\x00'
p11033
tp11034
Rp11035
sVentertainment
p11036
g2
(g6
S'\xa5\x03\x00\x00'
p11037
tp11038
Rp11039
sVactivism
p11040
g2
(g6
S'\x8a\x00\x00\x00'
p11041
tp11042
Rp11043
sVtranscript
p11044
g2
(g6
S'\xdb\n\x00\x00'
p11045
tp11046
Rp11047
sVactivist
p11048
g2
(g6
S'\x8b\x00\x00\x00'
p11049
tp11050
Rp11051
sVplayground
p11052
g2
(g6
S'\xf8\x07\x00\x00'
p11053
tp11054
Rp11055
sVperforms
p11056
g2
(g6
S'\xc3\x07\x00\x00'
p11057
tp11058
Rp11059
sVlally
p11060
g2
(g6
S'\x1a\x06\x00\x00'
p11061
tp11062
Rp11063
sVcause
p11064
g2
(g6
S'\xcf\x01\x00\x00'
p11065
tp11066
Rp11067
sVtorres
p11068
g2
(g6
S'\xc8\n\x00\x00'
p11069
tp11070
Rp11071
sV8c
p11072
g2
(g6
S'f\x00\x00\x00'
p11073
tp11074
Rp11075
sVtransfer
p11076
g2
(g6
S'\xdc\n\x00\x00'
p11077
tp11078
Rp11079
sVattending
p11080
g2
(g6
S'\x00\x01\x00\x00'
p11081
tp11082
Rp11083
sVyork
p11084
g2
(g6
S'\xdb\x0b\x00\x00'
p11085
tp11086
Rp11087
sVyorkers
p11088
g2
(g6
S'\xdc\x0b\x00\x00'
p11089
tp11090
Rp11091
sVaccessory
p11092
g2
(g6
S'|\x00\x00\x00'
p11093
tp11094
Rp11095
sVapplications
p11096
g2
(g6
S'\xe3\x00\x00\x00'
p11097
tp11098
Rp11099
sVroute
p11100
g2
(g6
S'\x08\t\x00\x00'
p11101
tp11102
Rp11103
sVtimes
p11104
g2
(g6
S'\xb3\n\x00\x00'
p11105
tp11106
Rp11107
sV59
p11108
g2
(g6
S'Q\x00\x00\x00'
p11109
tp11110
Rp11111
sVlte
p11112
g2
(g6
S'\x7f\x06\x00\x00'
p11113
tp11114
Rp11115
sVaustin
p11116
g2
(g6
S'\x07\x01\x00\x00'
p11117
tp11118
Rp11119
sVrecruiter
p11120
g2
(g6
S'\xa6\x08\x00\x00'
p11121
tp11122
Rp11123
sVdesigned
p11124
g2
(g6
S'\xfe\x02\x00\x00'
p11125
tp11126
Rp11127
sVchromecast
p11128
g2
(g6
S'\n\x02\x00\x00'
p11129
tp11130
Rp11131
sVpowerful
p11132
g2
(g6
S'\x18\x08\x00\x00'
p11133
tp11134
Rp11135
sVchoose
p11136
g2
(g6
S'\x05\x02\x00\x00'
p11137
tp11138
Rp11139
sVquality
p11140
g2
(g6
S'r\x08\x00\x00'
p11141
tp11142
Rp11143
sVdestinations
p11144
g2
(g6
S'\x05\x03\x00\x00'
p11145
tp11146
Rp11147
sVplaylist
p11148
g2
(g6
S'\xfa\x07\x00\x00'
p11149
tp11150
Rp11151
sVmanagement
p11152
g2
(g6
S'\x97\x06\x00\x00'
p11153
tp11154
Rp11155
sVprivacy
p11156
g2
(g6
S'8\x08\x00\x00'
p11157
tp11158
Rp11159
sVrevealed
p11160
g2
(g6
S'\xdb\x08\x00\x00'
p11161
tp11162
Rp11163
sVattack
p11164
g2
(g6
S'\xfe\x00\x00\x00'
p11165
tp11166
Rp11167
sV650
p11168
g2
(g6
S'V\x00\x00\x00'
p11169
tp11170
Rp11171
sVperfectly
p11172
g2
(g6
S'\xbe\x07\x00\x00'
p11173
tp11174
Rp11175
sVfinal
p11176
g2
(g6
S'.\x04\x00\x00'
p11177
tp11178
Rp11179
sVstagefright
p11180
g2
(g6
S'\xf7\t\x00\x00'
p11181
tp11182
Rp11183
sVcraziest
p11184
g2
(g6
S'\x94\x02\x00\x00'
p11185
tp11186
Rp11187
sVup2715k
p11188
g2
(g6
S'#\x0b\x00\x00'
p11189
tp11190
Rp11191
sVcultural
p11192
g2
(g6
S'\xad\x02\x00\x00'
p11193
tp11194
Rp11195
sVlists
p11196
g2
(g6
S'b\x06\x00\x00'
p11197
tp11198
Rp11199
sVjuly
p11200
g2
(g6
S'\xf0\x05\x00\x00'
p11201
tp11202
Rp11203
sVben
p11204
g2
(g6
S'7\x01\x00\x00'
p11205
tp11206
Rp11207
sVpatients
p11208
g2
(g6
S'\xab\x07\x00\x00'
p11209
tp11210
Rp11211
sVproviding
p11212
g2
(g6
S']\x08\x00\x00'
p11213
tp11214
Rp11215
sVwheelchair
p11216
g2
(g6
S'\x99\x0b\x00\x00'
p11217
tp11218
Rp11219
sVclip
p11220
g2
(g6
S'\x1e\x02\x00\x00'
p11221
tp11222
Rp11223
sVneel
p11224
g2
(g6
S'0\x07\x00\x00'
p11225
tp11226
Rp11227
sVneed
p11228
g2
(g6
S'-\x07\x00\x00'
p11229
tp11230
Rp11231
sVangle
p11232
g2
(g6
S'\xca\x00\x00\x00'
p11233
tp11234
Rp11235
sVable
p11236
g2
(g6
S'r\x00\x00\x00'
p11237
tp11238
Rp11239
sVpurchasing
p11240
g2
(g6
S'g\x08\x00\x00'
p11241
tp11242
Rp11243
sVmakeover
p11244
g2
(g6
S'\x8e\x06\x00\x00'
p11245
tp11246
Rp11247
sVlocals
p11248
g2
(g6
S'k\x06\x00\x00'
p11249
tp11250
Rp11251
sVmedals
p11252
g2
(g6
S'\xb9\x06\x00\x00'
p11253
tp11254
Rp11255
sVsnubs
p11256
g2
(g6
S'\xbc\t\x00\x00'
p11257
tp11258
Rp11259
sVcombat
p11260
g2
(g6
S'6\x02\x00\x00'
p11261
tp11262
Rp11263
sVdeploy
p11264
g2
(g6
S'\xf7\x02\x00\x00'
p11265
tp11266
Rp11267
sVcollaboration
p11268
g2
(g6
S'1\x02\x00\x00'
p11269
tp11270
Rp11271
sVparenting
p11272
g2
(g6
S'\x97\x07\x00\x00'
p11273
tp11274
Rp11275
sVoyelowo
p11276
g2
(g6
S'\x88\x07\x00\x00'
p11277
tp11278
Rp11279
sVconnected
p11280
g2
(g6
S'`\x02\x00\x00'
p11281
tp11282
Rp11283
sVawe
p11284
g2
(g6
S'\x1c\x01\x00\x00'
p11285
tp11286
Rp11287
sVgallery
p11288
g2
(g6
S'~\x04\x00\x00'
p11289
tp11290
Rp11291
sVbarista
p11292
g2
(g6
S')\x01\x00\x00'
p11293
tp11294
Rp11295
sVmiyares
p11296
g2
(g6
S'\xf0\x06\x00\x00'
p11297
tp11298
Rp11299
sVgoals
p11300
g2
(g6
S'\xb0\x04\x00\x00'
p11301
tp11302
Rp11303
sVemerging
p11304
g2
(g6
S'\x82\x03\x00\x00'
p11305
tp11306
Rp11307
sV30pm
p11308
g2
(g6
S':\x00\x00\x00'
p11309
tp11310
Rp11311
sVautomated
p11312
g2
(g6
S'\x0b\x01\x00\x00'
p11313
tp11314
Rp11315
sV12s
p11316
g2
(g6
S'\x10\x00\x00\x00'
p11317
tp11318
Rp11319
sVsoldiers
p11320
g2
(g6
S'\xc4\t\x00\x00'
p11321
tp11322
Rp11323
sVchicken
p11324
g2
(g6
S'\xf9\x01\x00\x00'
p11325
tp11326
Rp11327
sVfeat
p11328
g2
(g6
S'\x13\x04\x00\x00'
p11329
tp11330
Rp11331
sVshoes
p11332
g2
(g6
S'\x80\t\x00\x00'
p11333
tp11334
Rp11335
sVq1
p11336
g2
(g6
S'm\x08\x00\x00'
p11337
tp11338
Rp11339
sVpartners
p11340
g2
(g6
S'\xa0\x07\x00\x00'
p11341
tp11342
Rp11343
sVq2
p11344
g2
(g6
S'n\x08\x00\x00'
p11345
tp11346
Rp11347
sVbased
p11348
g2
(g6
S',\x01\x00\x00'
p11349
tp11350
Rp11351
sVq4
p11352
g2
(g6
S'p\x08\x00\x00'
p11353
tp11354
Rp11355
sVearned
p11356
g2
(g6
S'^\x03\x00\x00'
p11357
tp11358
Rp11359
sVholder
p11360
g2
(g6
S'(\x05\x00\x00'
p11361
tp11362
Rp11363
sVwinner
p11364
g2
(g6
S'\xa5\x0b\x00\x00'
p11365
tp11366
Rp11367
sVbrighten
p11368
g2
(g6
S'{\x01\x00\x00'
p11369
tp11370
Rp11371
sVbrighter
p11372
g2
(g6
S'|\x01\x00\x00'
p11373
tp11374
Rp11375
sVcandidates
p11376
g2
(g6
S'\xad\x01\x00\x00'
p11377
tp11378
Rp11379
sVemployee
p11380
g2
(g6
S'\x85\x03\x00\x00'
p11381
tp11382
Rp11383
sVachieve
p11384
g2
(g6
S'\x81\x00\x00\x00'
p11385
tp11386
Rp11387
sVworkin
p11388
g2
(g6
S'\xc1\x0b\x00\x00'
p11389
tp11390
Rp11391
sVcuba
p11392
g2
(g6
S'\xab\x02\x00\x00'
p11393
tp11394
Rp11395
sV120
p11396
g2
(g6
S'\r\x00\x00\x00'
p11397
tp11398
Rp11399
sVones
p11400
g2
(g6
S'j\x07\x00\x00'
p11401
tp11402
Rp11403
sVjoins
p11404
g2
(g6
S'\xe2\x05\x00\x00'
p11405
tp11406
Rp11407
sVmgt
p11408
g2
(g6
S'\xd3\x06\x00\x00'
p11409
tp11410
Rp11411
sVnearly
p11412
g2
(g6
S'+\x07\x00\x00'
p11413
tp11414
Rp11415
sVtrucks
p11416
g2
(g6
S'\xf2\n\x00\x00'
p11417
tp11418
Rp11419
sVcourse
p11420
g2
(g6
S'\x8a\x02\x00\x00'
p11421
tp11422
Rp11423
sVshopping
p11424
g2
(g6
S'\x84\t\x00\x00'
p11425
tp11426
Rp11427
sVamex
p11428
g2
(g6
S'\xc0\x00\x00\x00'
p11429
tp11430
Rp11431
sVtuned
p11432
g2
(g6
S'\xfa\n\x00\x00'
p11433
tp11434
Rp11435
sVqa
p11436
g2
(g6
S'q\x08\x00\x00'
p11437
tp11438
Rp11439
sVtunes
p11440
g2
(g6
S'\xfb\n\x00\x00'
p11441
tp11442
Rp11443
sVgrab
p11444
g2
(g6
S'\xbc\x04\x00\x00'
p11445
tp11446
Rp11447
sV11am
p11448
g2
(g6
S'\x0b\x00\x00\x00'
p11449
tp11450
Rp11451
sVview
p11452
g2
(g6
S'P\x0b\x00\x00'
p11453
tp11454
Rp11455
sVspotted
p11456
g2
(g6
S'\xeb\t\x00\x00'
p11457
tp11458
Rp11459
sVavailable
p11460
g2
(g6
S'\x10\x01\x00\x00'
p11461
tp11462
Rp11463
sVcomputer
p11464
g2
(g6
S'Q\x02\x00\x00'
p11465
tp11466
Rp11467
sVhhttgedge
p11468
g2
(g6
S'\x11\x05\x00\x00'
p11469
tp11470
Rp11471
sVviolet
p11472
g2
(g6
S'U\x0b\x00\x00'
p11473
tp11474
Rp11475
sVcloser
p11476
g2
(g6
S'"\x02\x00\x00'
p11477
tp11478
Rp11479
sVputs
p11480
g2
(g6
S'k\x08\x00\x00'
p11481
tp11482
Rp11483
sVstats
p11484
g2
(g6
S'\x0b\n\x00\x00'
p11485
tp11486
Rp11487
sVrecord
p11488
g2
(g6
S'\xa2\x08\x00\x00'
p11489
tp11490
Rp11491
sVstate
p11492
g2
(g6
S'\x06\n\x00\x00'
p11493
tp11494
Rp11495
sVclosed
p11496
g2
(g6
S'!\x02\x00\x00'
p11497
tp11498
Rp11499
sVlimit
p11500
g2
(g6
S'W\x06\x00\x00'
p11501
tp11502
Rp11503
sVamazon
p11504
g2
(g6
S'\xbb\x00\x00\x00'
p11505
tp11506
Rp11507
sVimportance
p11508
g2
(g6
S'j\x05\x00\x00'
p11509
tp11510
Rp11511
sVjoy
p11512
g2
(g6
S'\xeb\x05\x00\x00'
p11513
tp11514
Rp11515
sVefficiency
p11516
g2
(g6
S'q\x03\x00\x00'
p11517
tp11518
Rp11519
sVjob
p11520
g2
(g6
S'\xda\x05\x00\x00'
p11521
tp11522
Rp11523
sVtakeover
p11524
g2
(g6
S'm\n\x00\x00'
p11525
tp11526
Rp11527
sVkey
p11528
g2
(g6
S'\xff\x05\x00\x00'
p11529
tp11530
Rp11531
sVpolice
p11532
g2
(g6
S'\x02\x08\x00\x00'
p11533
tp11534
Rp11535
sVswift
p11536
g2
(g6
S'a\n\x00\x00'
p11537
tp11538
Rp11539
sVjon
p11540
g2
(g6
S'\xe4\x05\x00\x00'
p11541
tp11542
Rp11543
sVmonitor
p11544
g2
(g6
S'\x00\x07\x00\x00'
p11545
tp11546
Rp11547
sVhits
p11548
g2
(g6
S'#\x05\x00\x00'
p11549
tp11550
Rp11551
sVpiece
p11552
g2
(g6
S'\xe0\x07\x00\x00'
p11553
tp11554
Rp11555
sVcareer
p11556
g2
(g6
S'\xbd\x01\x00\x00'
p11557
tp11558
Rp11559
sVminds
p11560
g2
(g6
S'\xe6\x06\x00\x00'
p11561
tp11562
Rp11563
sVswarovski
p11564
g2
(g6
S'\\\n\x00\x00'
p11565
tp11566
Rp11567
sVsucceed
p11568
g2
(g6
S'=\n\x00\x00'
p11569
tp11570
Rp11571
sVsafely
p11572
g2
(g6
S'\x17\t\x00\x00'
p11573
tp11574
Rp11575
sVwall
p11576
g2
(g6
S'r\x0b\x00\x00'
p11577
tp11578
Rp11579
sVtuesday
p11580
g2
(g6
S'\xf8\n\x00\x00'
p11581
tp11582
Rp11583
sVenvironments
p11584
g2
(g6
S'\xae\x03\x00\x00'
p11585
tp11586
Rp11587
sVwalk
p11588
g2
(g6
S'q\x0b\x00\x00'
p11589
tp11590
Rp11591
sVpreparedness
p11592
g2
(g6
S'%\x08\x00\x00'
p11593
tp11594
Rp11595
sVkings
p11596
g2
(g6
S'\x0c\x06\x00\x00'
p11597
tp11598
Rp11599
sVaddition
p11600
g2
(g6
S'\x95\x00\x00\x00'
p11601
tp11602
Rp11603
sVwindow
p11604
g2
(g6
S'\xa3\x0b\x00\x00'
p11605
tp11606
Rp11607
sVtreat
p11608
g2
(g6
S'\xe6\n\x00\x00'
p11609
tp11610
Rp11611
sVusername
p11612
g2
(g6
S'1\x0b\x00\x00'
p11613
tp11614
Rp11615
sVpic
p11616
g2
(g6
S'\xda\x07\x00\x00'
p11617
tp11618
Rp11619
sVdiversity
p11620
g2
(g6
S')\x03\x00\x00'
p11621
tp11622
Rp11623
sVtap
p11624
g2
(g6
S'v\n\x00\x00'
p11625
tp11626
Rp11627
sVdisney
p11628
g2
(g6
S'%\x03\x00\x00'
p11629
tp11630
Rp11631
sVcontroller
p11632
g2
(g6
S's\x02\x00\x00'
p11633
tp11634
Rp11635
sVkicks
p11636
g2
(g6
S'\x06\x06\x00\x00'
p11637
tp11638
Rp11639
sVpresent
p11640
g2
(g6
S')\x08\x00\x00'
p11641
tp11642
Rp11643
sVtwist
p11644
g2
(g6
S'\x07\x0b\x00\x00'
p11645
tp11646
Rp11647
sVsmartphones
p11648
g2
(g6
S'\xb2\t\x00\x00'
p11649
tp11650
Rp11651
sVlicense
p11652
g2
(g6
S'P\x06\x00\x00'
p11653
tp11654
Rp11655
sVphishing
p11656
g2
(g6
S'\xd2\x07\x00\x00'
p11657
tp11658
Rp11659
sVstunning
p11660
g2
(g6
S'6\n\x00\x00'
p11661
tp11662
Rp11663
sVwild
p11664
g2
(g6
S'\xa1\x0b\x00\x00'
p11665
tp11666
Rp11667
sVannual
p11668
g2
(g6
S'\xd4\x00\x00\x00'
p11669
tp11670
Rp11671
sVsurface
p11672
g2
(g6
S'Q\n\x00\x00'
p11673
tp11674
Rp11675
sVsimone
p11676
g2
(g6
S'\x96\t\x00\x00'
p11677
tp11678
Rp11679
sVaudiences
p11680
g2
(g6
S'\x04\x01\x00\x00'
p11681
tp11682
Rp11683
sVforeign
p11684
g2
(g6
S'W\x04\x00\x00'
p11685
tp11686
Rp11687
sVfinance
p11688
g2
(g6
S'4\x04\x00\x00'
p11689
tp11690
Rp11691
sVcapture
p11692
g2
(g6
S'\xb3\x01\x00\x00'
p11693
tp11694
Rp11695
sVshooting
p11696
g2
(g6
S'\x82\t\x00\x00'
p11697
tp11698
Rp11699
sVvintage
p11700
g2
(g6
S'S\x0b\x00\x00'
p11701
tp11702
Rp11703
sVcross
p11704
g2
(g6
S'\xa0\x02\x00\x00'
p11705
tp11706
Rp11707
sVmember
p11708
g2
(g6
S'\xc0\x06\x00\x00'
p11709
tp11710
Rp11711
sVmoms
p11712
g2
(g6
S'\xfd\x06\x00\x00'
p11713
tp11714
Rp11715
sVparts
p11716
g2
(g6
S'\xa3\x07\x00\x00'
p11717
tp11718
Rp11719
sVlargest
p11720
g2
(g6
S'"\x06\x00\x00'
p11721
tp11722
Rp11723
sVunderground
p11724
g2
(g6
S'\x13\x0b\x00\x00'
p11725
tp11726
Rp11727
sVincl
p11728
g2
(g6
S'r\x05\x00\x00'
p11729
tp11730
Rp11731
sVprivileged
p11732
g2
(g6
S';\x08\x00\x00'
p11733
tp11734
Rp11735
sVpremiere
p11736
g2
(g6
S'\x1f\x08\x00\x00'
p11737
tp11738
Rp11739
sVappearances
p11740
g2
(g6
S'\xdd\x00\x00\x00'
p11741
tp11742
Rp11743
sVcollab
p11744
g2
(g6
S'0\x02\x00\x00'
p11745
tp11746
Rp11747
sVautomation
p11748
g2
(g6
S'\x0c\x01\x00\x00'
p11749
tp11750
Rp11751
sVstudent
p11752
g2
(g6
S'1\n\x00\x00'
p11753
tp11754
Rp11755
sVlunch
p11756
g2
(g6
S'\x83\x06\x00\x00'
p11757
tp11758
Rp11759
sVama
p11760
g2
(g6
S'\xb9\x00\x00\x00'
p11761
tp11762
Rp11763
sVobstacles
p11764
g2
(g6
S'Y\x07\x00\x00'
p11765
tp11766
Rp11767
sVunpacked
p11768
g2
(g6
S'\x1e\x0b\x00\x00'
p11769
tp11770
Rp11771
sVfighting
p11772
g2
(g6
S'(\x04\x00\x00'
p11773
tp11774
Rp11775
sVfinds
p11776
g2
(g6
S'9\x04\x00\x00'
p11777
tp11778
Rp11779
sVdrone
p11780
g2
(g6
S'O\x03\x00\x00'
p11781
tp11782
Rp11783
sVadvocacy
p11784
g2
(g6
S'\xa1\x00\x00\x00'
p11785
tp11786
Rp11787
sVfy15
p11788
g2
(g6
S'x\x04\x00\x00'
p11789
tp11790
Rp11791
sVfy16
p11792
g2
(g6
S'y\x04\x00\x00'
p11793
tp11794
Rp11795
sVvirtual
p11796
g2
(g6
S'X\x0b\x00\x00'
p11797
tp11798
Rp11799
sVrocked
p11800
g2
(g6
S'\xf9\x08\x00\x00'
p11801
tp11802
Rp11803
sVhappiness
p11804
g2
(g6
S'\xe7\x04\x00\x00'
p11805
tp11806
Rp11807
sVconsole
p11808
g2
(g6
S'g\x02\x00\x00'
p11809
tp11810
Rp11811
sVjeff
p11812
g2
(g6
S'\xd3\x05\x00\x00'
p11813
tp11814
Rp11815
sVsky
p11816
g2
(g6
S'\xa9\t\x00\x00'
p11817
tp11818
Rp11819
sVdiscuss
p11820
g2
(g6
S' \x03\x00\x00'
p11821
tp11822
Rp11823
sVreasons
p11824
g2
(g6
S'\x98\x08\x00\x00'
p11825
tp11826
Rp11827
sVadoption
p11828
g2
(g6
S'\x9b\x00\x00\x00'
p11829
tp11830
Rp11831
sVkick
p11832
g2
(g6
S'\x02\x06\x00\x00'
p11833
tp11834
Rp11835
sVsick
p11836
g2
(g6
S'\x8d\t\x00\x00'
p11837
tp11838
Rp11839
sVrepping
p11840
g2
(g6
S'\xc6\x08\x00\x00'
p11841
tp11842
Rp11843
sVhistoric
p11844
g2
(g6
S' \x05\x00\x00'
p11845
tp11846
Rp11847
sVknow
p11848
g2
(g6
S'\x0f\x06\x00\x00'
p11849
tp11850
Rp11851
sVpress
p11852
g2
(g6
S'/\x08\x00\x00'
p11853
tp11854
Rp11855
sVlost
p11856
g2
(g6
S's\x06\x00\x00'
p11857
tp11858
Rp11859
sVcandy
p11860
g2
(g6
S'\xae\x01\x00\x00'
p11861
tp11862
Rp11863
sVhosts
p11864
g2
(g6
S';\x05\x00\x00'
p11865
tp11866
Rp11867
sVpayments
p11868
g2
(g6
S'\xb1\x07\x00\x00'
p11869
tp11870
Rp11871
sVmartin
p11872
g2
(g6
S'\xa5\x06\x00\x00'
p11873
tp11874
Rp11875
sVrefugees
p11876
g2
(g6
S'\xb0\x08\x00\x00'
p11877
tp11878
Rp11879
sVpage
p11880
g2
(g6
S'\x8f\x07\x00\x00'
p11881
tp11882
Rp11883
sVwarmed
p11884
g2
(g6
S'w\x0b\x00\x00'
p11885
tp11886
Rp11887
sVtwitter
p11888
g2
(g6
S'\x08\x0b\x00\x00'
p11889
tp11890
Rp11891
sVsearching
p11892
g2
(g6
S'E\t\x00\x00'
p11893
tp11894
Rp11895
sVplatforms
p11896
g2
(g6
S'\xf2\x07\x00\x00'
p11897
tp11898
Rp11899
sVrepeat
p11900
g2
(g6
S'\xc1\x08\x00\x00'
p11901
tp11902
Rp11903
sVshes
p11904
g2
(g6
S'x\t\x00\x00'
p11905
tp11906
Rp11907
sVhome
p11908
g2
(g6
S'-\x05\x00\x00'
p11909
tp11910
Rp11911
sVpeter
p11912
g2
(g6
S'\xcc\x07\x00\x00'
p11913
tp11914
Rp11915
sVemployment
p11916
g2
(g6
S'\x88\x03\x00\x00'
p11917
tp11918
Rp11919
sVhealth
p11920
g2
(g6
S'\xf6\x04\x00\x00'
p11921
tp11922
Rp11923
sVlead
p11924
g2
(g6
S'4\x06\x00\x00'
p11925
tp11926
Rp11927
sVcfire
p11928
g2
(g6
S'\xdd\x01\x00\x00'
p11929
tp11930
Rp11931
sVleader
p11932
g2
(g6
S'5\x06\x00\x00'
p11933
tp11934
Rp11935
sVhashbrowns
p11936
g2
(g6
S'\xec\x04\x00\x00'
p11937
tp11938
Rp11939
sVbirthday
p11940
g2
(g6
S'G\x01\x00\x00'
p11941
tp11942
Rp11943
sVreaching
p11944
g2
(g6
S'\x8e\x08\x00\x00'
p11945
tp11946
Rp11947
sVexpansion
p11948
g2
(g6
S'\xd7\x03\x00\x00'
p11949
tp11950
Rp11951
sV98c
p11952
g2
(g6
S'l\x00\x00\x00'
p11953
tp11954
Rp11955
sVstay
p11956
g2
(g6
S'\r\n\x00\x00'
p11957
tp11958
Rp11959
sVraise
p11960
g2
(g6
S'\x82\x08\x00\x00'
p11961
tp11962
Rp11963
sVrare
p11964
g2
(g6
S'\x88\x08\x00\x00'
p11965
tp11966
Rp11967
sVgetting
p11968
g2
(g6
S'\x99\x04\x00\x00'
p11969
tp11970
Rp11971
sVfreedom
p11972
g2
(g6
S'h\x04\x00\x00'
p11973
tp11974
Rp11975
sVrecognized
p11976
g2
(g6
S'\xa0\x08\x00\x00'
p11977
tp11978
Rp11979
sVcelebrations
p11980
g2
(g6
S'\xd6\x01\x00\x00'
p11981
tp11982
Rp11983
sVtravelers
p11984
g2
(g6
S'\xe3\n\x00\x00'
p11985
tp11986
Rp11987
sVcocoa
p11988
g2
(g6
S',\x02\x00\x00'
p11989
tp11990
Rp11991
sVweather
p11992
g2
(g6
S'\x88\x0b\x00\x00'
p11993
tp11994
Rp11995
sVartists
p11996
g2
(g6
S'\xf0\x00\x00\x00'
p11997
tp11998
Rp11999
sVadditions
p12000
g2
(g6
S'\x97\x00\x00\x00'
p12001
tp12002
Rp12003
sVmississippi
p12004
g2
(g6
S'\xee\x06\x00\x00'
p12005
tp12006
Rp12007
sVnetworking
p12008
g2
(g6
S'5\x07\x00\x00'
p12009
tp12010
Rp12011
sVadditional
p12012
g2
(g6
S'\x96\x00\x00\x00'
p12013
tp12014
Rp12015
sVfrancis
p12016
g2
(g6
S'd\x04\x00\x00'
p12017
tp12018
Rp12019
sVempowers
p12020
g2
(g6
S'\x8a\x03\x00\x00'
p12021
tp12022
Rp12023
sVapps
p12024
g2
(g6
S'\xe7\x00\x00\x00'
p12025
tp12026
Rp12027
sVinner
p12028
g2
(g6
S'\x8d\x05\x00\x00'
p12029
tp12030
Rp12031
sVdaniela
p12032
g2
(g6
S'\xc9\x02\x00\x00'
p12033
tp12034
Rp12035
sVinspiration
p12036
g2
(g6
S'\x97\x05\x00\x00'
p12037
tp12038
Rp12039
sVghost
p12040
g2
(g6
S'\x9a\x04\x00\x00'
p12041
tp12042
Rp12043
sVnorth
p12044
g2
(g6
S'I\x07\x00\x00'
p12045
tp12046
Rp12047
sVhr
p12048
g2
(g6
S'H\x05\x00\x00'
p12049
tp12050
Rp12051
sVhq
p12052
g2
(g6
S'G\x05\x00\x00'
p12053
tp12054
Rp12055
sVhi
p12056
g2
(g6
S'\x14\x05\x00\x00'
p12057
tp12058
Rp12059
sVho
p12060
g2
(g6
S'%\x05\x00\x00'
p12061
tp12062
Rp12063
sVhm
p12064
g2
(g6
S'$\x05\x00\x00'
p12065
tp12066
Rp12067
sVteaming
p12068
g2
(g6
S'\x81\n\x00\x00'
p12069
tp12070
Rp12071
sVeat
p12072
g2
(g6
S'd\x03\x00\x00'
p12073
tp12074
Rp12075
sVhd
p12076
g2
(g6
S'\xf2\x04\x00\x00'
p12077
tp12078
Rp12079
sVchallenges
p12080
g2
(g6
S'\xe1\x01\x00\x00'
p12081
tp12082
Rp12083
sVhosting
p12084
g2
(g6
S':\x05\x00\x00'
p12085
tp12086
Rp12087
sVsigned
p12088
g2
(g6
S'\x91\t\x00\x00'
p12089
tp12090
Rp12091
sVstories
p12092
g2
(g6
S'!\n\x00\x00'
p12093
tp12094
Rp12095
sVruling
p12096
g2
(g6
S'\x0f\t\x00\x00'
p12097
tp12098
Rp12099
sVcake
p12100
g2
(g6
S'\xa3\x01\x00\x00'
p12101
tp12102
Rp12103
sVdisplay
p12104
g2
(g6
S'&\x03\x00\x00'
p12105
tp12106
Rp12107
sVuniversal
p12108
g2
(g6
S'\x1a\x0b\x00\x00'
p12109
tp12110
Rp12111
sVerin
p12112
g2
(g6
S'\xb8\x03\x00\x00'
p12113
tp12114
Rp12115
sVhighlighted
p12116
g2
(g6
S'\x18\x05\x00\x00'
p12117
tp12118
Rp12119
sVcrystals
p12120
g2
(g6
S'\xa7\x02\x00\x00'
p12121
tp12122
Rp12123
sVeducation
p12124
g2
(g6
S'p\x03\x00\x00'
p12125
tp12126
Rp12127
sVperformed
p12128
g2
(g6
S'\xc1\x07\x00\x00'
p12129
tp12130
Rp12131
sVrumors
p12132
g2
(g6
S'\x10\t\x00\x00'
p12133
tp12134
Rp12135
sVingredients
p12136
g2
(g6
S'\x8b\x05\x00\x00'
p12137
tp12138
Rp12139
sVillinois
p12140
g2
(g6
S'a\x05\x00\x00'
p12141
tp12142
Rp12143
sVmembers
p12144
g2
(g6
S'\xc1\x06\x00\x00'
p12145
tp12146
Rp12147
sVbook
p12148
g2
(g6
S'^\x01\x00\x00'
p12149
tp12150
Rp12151
sVstar
p12152
g2
(g6
S'\xfc\t\x00\x00'
p12153
tp12154
Rp12155
sVliving
p12156
g2
(g6
S'h\x06\x00\x00'
p12157
tp12158
Rp12159
sVbackstage
p12160
g2
(g6
S'!\x01\x00\x00'
p12161
tp12162
Rp12163
sVfriends
p12164
g2
(g6
S'l\x04\x00\x00'
p12165
tp12166
Rp12167
sVsamsung
p12168
g2
(g6
S'\x1f\t\x00\x00'
p12169
tp12170
Rp12171
sVblogs
p12172
g2
(g6
S'T\x01\x00\x00'
p12173
tp12174
Rp12175
sVportion
p12176
g2
(g6
S'\x0e\x08\x00\x00'
p12177
tp12178
Rp12179
sVvolumes
p12180
g2
(g6
S'd\x0b\x00\x00'
p12181
tp12182
Rp12183
sVlives
p12184
g2
(g6
S'f\x06\x00\x00'
p12185
tp12186
Rp12187
sV8th
p12188
g2
(g6
S'h\x00\x00\x00'
p12189
tp12190
Rp12191
sVexpands
p12192
g2
(g6
S'\xd6\x03\x00\x00'
p12193
tp12194
Rp12195
s.